 PhysXCommon_64

 Timestamp is 62c7b055 (Fri Jul  8 07:19:33 2022)

 Preferred load address is 0000000180000000

 Start         Length     Name                   Class
 0001:00000000 000029e0H .text$di                CODE
 0001:000029e0 001343e0H .text$mn                CODE
 0001:00136dc0 00000040H .text$mn$00             CODE
 0001:00136e00 000004a0H .text$x                 CODE
 0002:00000000 00000258H .idata$5                DATA
 0002:00000258 00000038H .00cfg                  DATA
 0002:00000290 00000008H .CRT$XCA                DATA
 0002:00000298 00001428H .CRT$XCU                DATA
 0002:000016c0 00000008H .CRT$XCZ                DATA
 0002:000016c8 00000008H .CRT$XIA                DATA
 0002:000016d0 00000018H .CRT$XIC                DATA
 0002:000016e8 00000008H .CRT$XIZ                DATA
 0002:000016f0 00000008H .CRT$XPA                DATA
 0002:000016f8 00000010H .CRT$XPX                DATA
 0002:00001708 00000008H .CRT$XPXA               DATA
 0002:00001710 00000008H .CRT$XPZ                DATA
 0002:00001718 00000008H .CRT$XTA                DATA
 0002:00001720 00000010H .CRT$XTZ                DATA
 0002:00001728 00000000H .gehcont$y              DATA
 0002:00001728 00000000H .gfids$y                DATA
 0002:00001730 0000d6d0H .rdata                  DATA
 0002:0000ee00 00000000H .rdata$CastGuardVftablesA DATA
 0002:0000ee00 00000000H .rdata$CastGuardVftablesC DATA
 0002:0000ee00 0000043cH .rdata$r                DATA
 0002:0000f23c 000001b0H .rdata$voltmd           DATA
 0002:0000f3ec 00000424H .rdata$zzzdbg           DATA
 0002:0000f810 00000008H .rtc$IAA                DATA
 0002:0000f818 00000008H .rtc$IZZ                DATA
 0002:0000f820 00000008H .rtc$TAA                DATA
 0002:0000f828 00000008H .rtc$TZZ                DATA
 0002:0000f830 0000c528H .xdata                  DATA
 0002:0001bd58 00000084H .xdata$x                DATA
 0002:0001bddc 00000020H .didat$2                DATA
 0002:0001bdfc 00000024H .didat$3                DATA
 0002:0001be20 00000090H .didat$4                DATA
 0002:0001beb0 00000330H .didat$6                DATA
 0002:0001c1e0 00000090H .didat$7                DATA
 0002:0001c270 0000a0dcH .edata                  DATA
 0002:0002634c 00000014H .idata$2                DATA
 0002:00026360 00000018H .idata$3                DATA
 0002:00026378 00000258H .idata$4                DATA
 0002:000265d0 0000057cH .idata$6                DATA
 0003:00000000 00001430H .data                   DATA
 0003:00001430 000005c8H .data$r                 DATA
 0003:000019f8 000000f0H .data$rs                DATA
 0003:00001ae8 00000098H .didat$5                DATA
 0003:00001b80 00003ae0H .bss                    DATA
 0004:00000000 00006ec4H .pdata                  DATA
 0005:00000000 0000236cH _RDATA                  DATA
 0006:00000000 000000a0H .rsrc$01                DATA
 0006:000000a0 000004b0H .rsrc$02                DATA

  Address         Publics by Value              Rva+Base               Lib:Object

 0000:00000000       __AbsoluteZero             0000000000000000     <absolute>
 0000:00000000       ___safe_se_handler_count   0000000000000000     <absolute>
 0000:00000000       ___safe_se_handler_table   0000000000000000     <absolute>
 0000:00000000       __arm64x_extra_rfe_table   0000000000000000     <absolute>
 0000:00000000       __arm64x_extra_rfe_table_size 0000000000000000     <absolute>
 0000:00000000       __arm64x_native_entrypoint 0000000000000000     <absolute>
 0000:00000000       __arm64x_redirection_metadata 0000000000000000     <absolute>
 0000:00000000       __arm64x_redirection_metadata_count 0000000000000000     <absolute>
 0000:00000000       __dynamic_value_reloc_table 0000000000000000     <absolute>
 0000:00000000       __enclave_config           0000000000000000     <absolute>
 0000:00000000       __guard_check_icall_a64n_fptr 0000000000000000     <absolute>
 0000:00000000       __guard_eh_cont_count      0000000000000000     <absolute>
 0000:00000000       __guard_eh_cont_table      0000000000000000     <absolute>
 0000:00000000       __guard_fids_count         0000000000000000     <absolute>
 0000:00000000       __guard_fids_table         0000000000000000     <absolute>
 0000:00000000       __guard_iat_count          0000000000000000     <absolute>
 0000:00000000       __guard_iat_table          0000000000000000     <absolute>
 0000:00000000       __guard_longjmp_count      0000000000000000     <absolute>
 0000:00000000       __guard_longjmp_table      0000000000000000     <absolute>
 0000:00000000       __hybrid_auxiliary_iat     0000000000000000     <absolute>
 0000:00000000       __hybrid_auxiliary_iat_copy 0000000000000000     <absolute>
 0000:00000000       __hybrid_code_map          0000000000000000     <absolute>
 0000:00000000       __hybrid_code_map_count    0000000000000000     <absolute>
 0000:00000000       __x64_code_ranges_to_entry_points 0000000000000000     <absolute>
 0000:00000000       __x64_code_ranges_to_entry_points_count 0000000000000000     <absolute>
 0000:00000100       __guard_flags              0000000000000100     <absolute>
 0000:00000000       __ImageBase                0000000180000000     <linker-defined>
 0001:000029e0       ??_ECollection@Cm@physx@@UEAAPEAXI@Z 00000001800039e0 f i CmCollection.obj
 0001:000029e0       ??_GCollection@Cm@physx@@UEAAPEAXI@Z 00000001800039e0 f i CmCollection.obj
 0001:00002a90       ??_EPxCollection@physx@@MEAAPEAXI@Z 0000000180003a90 f i CmCollection.obj
 0001:00002a90       ??_GPxCollection@physx@@MEAAPEAXI@Z 0000000180003a90 f i CmCollection.obj
 0001:00002ac0       ?PxCreateCollection@@YAPEAVPxCollection@physx@@XZ 0000000180003ac0 f   CmCollection.obj
 0001:00002bc0       ?add@Collection@Cm@physx@@UEAAXAEAVPxBase@3@_K@Z 0000000180003bc0 f   CmCollection.obj
 0001:00002cb0       ?add@Collection@Cm@physx@@UEAAXAEAVPxCollection@3@@Z 0000000180003cb0 f   CmCollection.obj
 0001:00002e50       ?addId@Collection@Cm@physx@@UEAAXAEAVPxBase@3@_K@Z 0000000180003e50 f   CmCollection.obj
 0001:00002f80       ?contains@Collection@Cm@physx@@UEBA_NAEAVPxBase@3@@Z 0000000180003f80 f   CmCollection.obj
 0001:00003030       ?create@?$HashBase@V?$Pair@$$CB_KPEAVPxBase@physx@@@shdfnd@physx@@_KU?$Hash@_K@23@UGetKey@?$HashMapBase@_KPEAVPxBase@physx@@U?$Hash@_K@shdfnd@2@VNonTrackingAllocator@42@@internal@23@VNonTrackingAllocator@23@$00@internal@shdfnd@physx@@QEAAPEAV?$Pair@$$CB_KPEAVPxBase@physx@@@34@AEB_KAEA_N@Z 0000000180004030 f i CmCollection.obj
 0001:00003030       ?create@?$HashBase@V?$Pair@QEAVPxBase@physx@@_K@shdfnd@physx@@PEAVPxBase@3@U?$Hash@PEAVPxBase@physx@@@23@UGetKey@?$HashMapBase@PEAVPxBase@physx@@_KU?$Hash@PEAVPxBase@physx@@@shdfnd@2@VNonTrackingAllocator@42@@internal@23@VNonTrackingAllocator@23@$00@internal@shdfnd@physx@@QEAAPEAV?$Pair@QEAVPxBase@physx@@_K@34@AEBQEAVPxBase@4@AEA_N@Z 0000000180004030 f i CmCollection.obj
 0001:000031c0       ?erase@?$HashBase@V?$Pair@$$CB_KPEAVPxBase@physx@@@shdfnd@physx@@_KU?$Hash@_K@23@UGetKey@?$HashMapBase@_KPEAVPxBase@physx@@U?$Hash@_K@shdfnd@2@VNonTrackingAllocator@42@@internal@23@VNonTrackingAllocator@23@$00@internal@shdfnd@physx@@QEAA_NAEB_K@Z 00000001800041c0 f i CmCollection.obj
 0001:000031c0       ?erase@?$HashBase@V?$Pair@QEAVPxBase@physx@@_K@shdfnd@physx@@PEAVPxBase@3@U?$Hash@PEAVPxBase@physx@@@23@UGetKey@?$HashMapBase@PEAVPxBase@physx@@_KU?$Hash@PEAVPxBase@physx@@@shdfnd@2@VNonTrackingAllocator@42@@internal@23@VNonTrackingAllocator@23@$00@internal@shdfnd@physx@@QEAA_NAEBQEAVPxBase@4@@Z 00000001800041c0 f i CmCollection.obj
 0001:00003370       ?find@?$HashMapBase@_KPEAVPxBase@physx@@U?$Hash@_K@shdfnd@2@VNonTrackingAllocator@42@@internal@shdfnd@physx@@QEBAPEBV?$Pair@$$CB_KPEAVPxBase@physx@@@34@AEB_K@Z 0000000180004370 f i CmCollection.obj
 0001:00003410       ?find@Collection@Cm@physx@@UEBAPEAVPxBase@3@_K@Z 0000000180004410 f   CmCollection.obj
 0001:00003440       ?getId@Collection@Cm@physx@@UEBA_KAEBVPxBase@3@@Z 0000000180004440 f   CmCollection.obj
 0001:000034f0       ?getIds@Collection@Cm@physx@@UEBAIPEA_KII@Z 00000001800044f0 f   CmCollection.obj
 0001:000035c0       ?getNbColumns@HeightField@Gu@physx@@UEBAIXZ 00000001800045c0 f   GuBounds.obj
 0001:000035c0       ?getNbIds@Collection@Cm@physx@@UEBAIXZ 00000001800045c0 f   CmCollection.obj
 0001:000035d0       ?getNbObjects@Collection@Cm@physx@@UEBAIXZ 00000001800045d0 f   CmCollection.obj
 0001:000035e0       ?getObject@Collection@Cm@physx@@UEBAAEAVPxBase@3@I@Z 00000001800045e0 f   CmCollection.obj
 0001:000035f0       ?getObjects@Collection@Cm@physx@@UEBAIPEAPEAVPxBase@3@II@Z 00000001800045f0 f   CmCollection.obj
 0001:00003630       ?release@Collection@Cm@physx@@UEAAXXZ 0000000180004630 f i CmCollection.obj
 0001:00003650       ?remove@Collection@Cm@physx@@UEAAXAEAVPxBase@3@@Z 0000000180004650 f   CmCollection.obj
 0001:00003740       ?remove@Collection@Cm@physx@@UEAAXAEAVPxCollection@3@@Z 0000000180004740 f   CmCollection.obj
 0001:00003850       ?removeId@Collection@Cm@physx@@UEAAX_K@Z 0000000180004850 f   CmCollection.obj
 0001:000038d0       ?reserveInternal@?$HashBase@V?$Pair@$$CB_KPEAVPxBase@physx@@@shdfnd@physx@@_KU?$Hash@_K@23@UGetKey@?$HashMapBase@_KPEAVPxBase@physx@@U?$Hash@_K@shdfnd@2@VNonTrackingAllocator@42@@internal@23@VNonTrackingAllocator@23@$00@internal@shdfnd@physx@@AEAAXI@Z 00000001800048d0 f i CmCollection.obj
 0001:000038d0       ?reserveInternal@?$HashBase@V?$Pair@QEAVPxBase@physx@@_K@shdfnd@physx@@PEAVPxBase@3@U?$Hash@PEAVPxBase@physx@@@23@UGetKey@?$HashMapBase@PEAVPxBase@physx@@_KU?$Hash@PEAVPxBase@physx@@@shdfnd@2@VNonTrackingAllocator@42@@internal@23@VNonTrackingAllocator@23@$00@internal@shdfnd@physx@@AEAAXI@Z 00000001800048d0 f i CmCollection.obj
 0001:00003ab0       ??0PtrTable@Cm@physx@@QEAA@W4PxEMPTY@2@@Z 0000000180004ab0 f i CmPtrTable.obj
 0001:00003ad0       ??0PtrTable@Cm@physx@@QEAA@XZ 0000000180004ad0 f   CmPtrTable.obj
 0001:00003ae0       ??1AABBTreeBuildNode@Gu@physx@@QEAA@XZ 0000000180004ae0 f   GuAABBTreeBuild.obj
 0001:00003ae0       ??1Box@Gu@physx@@QEAA@XZ   0000000180004ae0 f   GuBounds.obj
 0001:00003ae0       ??1HeightFieldData@Gu@physx@@QEAA@XZ 0000000180004ae0 f   GuBounds.obj
 0001:00003ae0       ??1MaterialIndicesStruct@physx@@QEAA@XZ 0000000180004ae0 f   GuGeometryUnion.obj
 0001:00003ae0       ??1PtrTable@Cm@physx@@QEAA@XZ 0000000180004ae0 f   CmPtrTable.obj
 0001:00003ae0       ?profile@Callback@RTree@Gu@physx@@UEAAXXZ 0000000180004ae0 f   GuMidphaseRTree.obj
 0001:00003ae0       ?requiresObjects@ConvexMesh@Gu@physx@@UEAAXAEAVPxProcessPxBaseCallback@3@@Z 0000000180004ae0 f   GuConvexMesh.obj
 0001:00003ae0       ?requiresObjects@HeightField@Gu@physx@@UEAAXAEAVPxProcessPxBaseCallback@3@@Z 0000000180004ae0 f   GuHeightField.obj
 0001:00003ae0       ?requiresObjects@TriangleMesh@Gu@physx@@UEAAXAEAVPxProcessPxBaseCallback@3@@Z 0000000180004ae0 f   GuTriangleMesh.obj
 0001:00003ae0       _guard_check_icall_nop     0000000180004ae0 f   LIBCMT:guard_support.obj
 0001:00003af0       ??4CmModuleUpdateLoader@Cm@physx@@QEAAAEAV012@AEBV012@@Z 0000000180004af0 f i CmWindowsModuleUpdateLoader.obj
 0001:00003af0       ??4MaterialIndicesStruct@physx@@QEAAAEAU01@AEBU01@@Z 0000000180004af0 f i GuGeometryUnion.obj
 0001:00003af0       ??4PtrTable@Cm@physx@@QEAAAEAU012@AEBU012@@Z 0000000180004af0 f i CmPtrTable.obj
 0001:00003b00       ?add@PtrTable@Cm@physx@@QEAAXPEAXAEAVPtrTableStorageManager@23@@Z 0000000180004b00 f   CmPtrTable.obj
 0001:00003bc0       ?clear@PtrTable@Cm@physx@@QEAAXAEAVPtrTableStorageManager@23@@Z 0000000180004bc0 f   CmPtrTable.obj
 0001:00003c40       ?exportExtraData@PtrTable@Cm@physx@@QEAAXAEAVPxSerializationContext@3@@Z 0000000180004c40 f   CmPtrTable.obj
 0001:00003c90       ?find@PtrTable@Cm@physx@@QEBAIPEBX@Z 0000000180004c90 f   CmPtrTable.obj
 0001:00003cc0       ?getBinaryMetaData@PtrTable@Cm@physx@@SAXAEAVPxOutputStream@3@@Z 0000000180004cc0 f   CmPtrTable.obj
 0001:00003e70       ?getCount@PtrTable@Cm@physx@@QEBAIXZ 0000000180004e70 f i CmPtrTable.obj
 0001:00003e80       ?getPtrs@PtrTable@Cm@physx@@QEAAPEAPEAXXZ 0000000180004e80 f i CmPtrTable.obj
 0001:00003e80       ?getPtrs@PtrTable@Cm@physx@@QEBAPEBQEAXXZ 0000000180004e80 f i CmPtrTable.obj
 0001:00003e90       ?importExtraData@PtrTable@Cm@physx@@QEAAXAEAVPxDeserializationContext@3@@Z 0000000180004e90 f   CmPtrTable.obj
 0001:00003ec0       ?realloc@PtrTable@Cm@physx@@AEAAXIIAEAVPtrTableStorageManager@23@@Z 0000000180004ec0 f   CmPtrTable.obj
 0001:00003f50       ?replaceWithLast@PtrTable@Cm@physx@@QEAAXIAEAVPtrTableStorageManager@23@@Z 0000000180004f50 f   CmPtrTable.obj
 0001:00004050       ??0RadixSort@Cm@physx@@QEAA@XZ 0000000180005050 f   CmRadixSort.obj
 0001:00004080       ??1RadixSort@Cm@physx@@UEAA@XZ 0000000180005080 f   CmRadixSort.obj
 0001:00004090       ??_ERadixSort@Cm@physx@@UEAAPEAXI@Z 0000000180005090 f i CmRadixSort.obj
 0001:00004120       ?GetNbHits@RadixSort@Cm@physx@@QEBAIXZ 0000000180005120 f i CmRadixSort.obj
 0001:00004130       ?GetNbTotalCalls@RadixSort@Cm@physx@@QEBAIXZ 0000000180005130 f i CmRadixSort.obj
 0001:00004140       ?GetRanks@RadixSort@Cm@physx@@QEBAPEBIXZ 0000000180005140 f i CmRadixSort.obj
 0001:00004140       ?getHeightField@HeightFieldUtil@Gu@physx@@QEBAAEBVHeightField@23@XZ 0000000180005140 f i GuCCTSweepTests.obj
 0001:00004150       ?GetRecyclable@RadixSort@Cm@physx@@QEBAPEAIXZ 0000000180005150 f i CmRadixSort.obj
 0001:00004150       ?GetValencies@BigConvexData@physx@@QEBAPEBUValency@Gu@2@XZ 0000000180005150 f i GuMetaData.obj
 0001:00004150       ?getHeightFieldGeometry@HeightFieldUtil@Gu@physx@@QEBAAEBVPxHeightFieldGeometry@3@XZ 0000000180005150 f i GuCCTSweepTests.obj
 0001:00004150       ?getPos@AABBTreeBuildNode@Gu@physx@@QEBAPEBV123@XZ 0000000180005150 f i GuAABBTreeBuild.obj
 0001:00004160       ?SetBuffers@RadixSort@Cm@physx@@QEAA_NPEAI00PEAPEAI@Z 0000000180005160 f   CmRadixSort.obj
 0001:000041a0       ?Sort@RadixSort@Cm@physx@@QEAAAEAV123@PEBIIW4RadixHint@23@@Z 00000001800051a0 f   CmRadixSort.obj
 0001:00004860       ?Sort@RadixSort@Cm@physx@@QEAAAEAV123@PEBMI@Z 0000000180005860 f   CmRadixSort.obj
 0001:00005000       ?invalidateRanks@RadixSort@Cm@physx@@QEAAXXZ 0000000180006000 f i CmRadixSort.obj
 0001:00005010       ??0RadixSortBuffered@Cm@physx@@QEAA@XZ 0000000180006010 f   CmRadixSortBuffered.obj
 0001:00005040       ??1RadixSortBuffered@Cm@physx@@UEAA@XZ 0000000180006040 f   CmRadixSortBuffered.obj
 0001:00005070       ??_ERadixSortBuffered@Cm@physx@@UEAAPEAXI@Z 0000000180006070 f i CmRadixSortBuffered.obj
 0001:00005140       ?CheckResize@RadixSortBuffered@Cm@physx@@AEAAXI@Z 0000000180006140 f i CmRadixSortBuffered.obj
 0001:00005180       ?Resize@RadixSortBuffered@Cm@physx@@AEAA_NI@Z 0000000180006180 f   CmRadixSortBuffered.obj
 0001:00005270       ?Sort@RadixSortBuffered@Cm@physx@@QEAAAEAV123@PEBIIW4RadixHint@23@@Z 0000000180006270 f   CmRadixSortBuffered.obj
 0001:00005310       ?Sort@RadixSortBuffered@Cm@physx@@QEAAAEAV123@PEBMI@Z 0000000180006310 f   CmRadixSortBuffered.obj
 0001:000053a0       ?reset@RadixSortBuffered@Cm@physx@@QEAAXXZ 00000001800063a0 f   CmRadixSortBuffered.obj
 0001:00005420       ??0DebugText@Cm@physx@@QEAA@$$QEAU012@@Z 0000000180006420 f i CmRenderOutput.obj
 0001:00005420       ??0DebugText@Cm@physx@@QEAA@AEBU012@@Z 0000000180006420 f i CmRenderOutput.obj
 0001:00005500       ??0DebugText@Cm@physx@@QEAA@AEBVPxVec3@2@MPEBDZZ 0000000180006500 f   CmRenderOutput.obj
 0001:00005560       ??0RenderOutput@Cm@physx@@QEAA@AEAVRenderBuffer@12@@Z 0000000180006560 f i CmRenderOutput.obj
 0001:000055b0       ??0RenderOutput@Cm@physx@@QEAA@AEBV012@@Z 00000001800065b0 f i CmRenderOutput.obj
 0001:00005650       ??4DebugText@Cm@physx@@QEAAAEAU012@$$QEAU012@@Z 0000000180006650 f i CmRenderOutput.obj
 0001:00005650       ??4DebugText@Cm@physx@@QEAAAEAU012@AEBU012@@Z 0000000180006650 f i CmRenderOutput.obj
 0001:00005780       ??6Cm@physx@@YAAEAVRenderOutput@01@AEAV201@AEBUDebugArc@01@@Z 0000000180006780 f   CmRenderOutput.obj
 0001:00005880       ??6Cm@physx@@YAAEAVRenderOutput@01@AEAV201@AEBUDebugArrow@01@@Z 0000000180006880 f   CmRenderOutput.obj
 0001:00005c80       ??6Cm@physx@@YAAEAVRenderOutput@01@AEAV201@AEBUDebugBasis@01@@Z 0000000180006c80 f   CmRenderOutput.obj
 0001:00005d80       ??6Cm@physx@@YAAEAVRenderOutput@01@AEAV201@AEBUDebugBox@01@@Z 0000000180006d80 f   CmRenderOutput.obj
 0001:00006280       ??6Cm@physx@@YAAEAVRenderOutput@01@AEAV201@AEBUDebugCircle@01@@Z 0000000180007280 f   CmRenderOutput.obj
 0001:00006360       ??6RenderOutput@Cm@physx@@QEAAAEAV012@AEBUDebugText@12@@Z 0000000180007360 f   CmRenderOutput.obj
 0001:00006560       ??6RenderOutput@Cm@physx@@QEAAAEAV012@AEBVPxMat44@2@@Z 0000000180007560 f   CmRenderOutput.obj
 0001:000065d0       ??6RenderOutput@Cm@physx@@QEAAAEAV012@AEBVPxTransform@2@@Z 00000001800075d0 f   CmRenderOutput.obj
 0001:00006750       ??6RenderOutput@Cm@physx@@QEAAAEAV012@I@Z 0000000180007750 f   CmRenderOutput.obj
 0001:00006760       ??6RenderOutput@Cm@physx@@QEAAAEAV012@VPxVec3@2@@Z 0000000180007760 f   CmRenderOutput.obj
 0001:00006cb0       ??6RenderOutput@Cm@physx@@QEAAAEAV012@W4Primitive@012@@Z 0000000180007cb0 f   CmRenderOutput.obj
 0001:00006cc0       ?allocate@?$Array@DV?$ReflectionAllocator@D@shdfnd@physx@@@shdfnd@physx@@IEAAPEADI@Z 0000000180007cc0 f i CmRenderOutput.obj
 0001:00006d50       ?allocate@?$Array@UPxDebugLine@physx@@V?$ReflectionAllocator@UPxDebugLine@physx@@@shdfnd@2@@shdfnd@physx@@IEAAPEAUPxDebugLine@3@I@Z 0000000180007d50 f i CmRenderOutput.obj
 0001:00006df0       ?allocate@?$Array@UPxDebugPoint@physx@@V?$ReflectionAllocator@UPxDebugPoint@physx@@@shdfnd@2@@shdfnd@physx@@IEAAPEAUPxDebugPoint@3@I@Z 0000000180007df0 f i CmRenderOutput.obj
 0001:00006e90       ?allocate@?$Array@UPxDebugText@physx@@V?$ReflectionAllocator@UPxDebugText@physx@@@shdfnd@2@@shdfnd@physx@@IEAAPEAUPxDebugText@3@I@Z 0000000180007e90 f i CmRenderOutput.obj
 0001:00006f30       ?allocate@?$Array@UPxDebugTriangle@physx@@V?$ReflectionAllocator@UPxDebugTriangle@physx@@@shdfnd@2@@shdfnd@physx@@IEAAPEAUPxDebugTriangle@3@I@Z 0000000180007f30 f i CmRenderOutput.obj
 0001:00006fd0       ?copy@?$Array@UPxDebugLine@physx@@V?$ReflectionAllocator@UPxDebugLine@physx@@@shdfnd@2@@shdfnd@physx@@KAXPEAUPxDebugLine@3@0PEBU43@@Z 0000000180007fd0 f i CmRenderOutput.obj
 0001:00007180       ?copy@?$Array@UPxDebugPoint@physx@@V?$ReflectionAllocator@UPxDebugPoint@physx@@@shdfnd@2@@shdfnd@physx@@KAXPEAUPxDebugPoint@3@0PEBU43@@Z 0000000180008180 f i CmRenderOutput.obj
 0001:00007280       ?copy@?$Array@UPxDebugText@physx@@V?$ReflectionAllocator@UPxDebugText@physx@@@shdfnd@2@@shdfnd@physx@@KAXPEAUPxDebugText@3@0PEBU43@@Z 0000000180008280 f i CmRenderOutput.obj
 0001:000073f0       ?copy@?$Array@UPxDebugTriangle@physx@@V?$ReflectionAllocator@UPxDebugTriangle@physx@@@shdfnd@2@@shdfnd@physx@@KAXPEAUPxDebugTriangle@3@0PEBU43@@Z 00000001800083f0 f i CmRenderOutput.obj
 0001:000075f0       ?growAndPushBack@?$Array@DV?$ReflectionAllocator@D@shdfnd@physx@@@shdfnd@physx@@IEAAAEADAEBD@Z 00000001800085f0 f i CmRenderOutput.obj
 0001:000076b0       ?growAndPushBack@?$Array@UPxDebugLine@physx@@V?$ReflectionAllocator@UPxDebugLine@physx@@@shdfnd@2@@shdfnd@physx@@IEAAAEAUPxDebugLine@3@AEBU43@@Z 00000001800086b0 f i CmRenderOutput.obj
 0001:00007790       ?growAndPushBack@?$Array@UPxDebugPoint@physx@@V?$ReflectionAllocator@UPxDebugPoint@physx@@@shdfnd@2@@shdfnd@physx@@IEAAAEAUPxDebugPoint@3@AEBU43@@Z 0000000180008790 f i CmRenderOutput.obj
 0001:00007850       ?growAndPushBack@?$Array@UPxDebugText@physx@@V?$ReflectionAllocator@UPxDebugText@physx@@@shdfnd@2@@shdfnd@physx@@IEAAAEAUPxDebugText@3@AEBU43@@Z 0000000180008850 f i CmRenderOutput.obj
 0001:00007920       ?growAndPushBack@?$Array@UPxDebugTriangle@physx@@V?$ReflectionAllocator@UPxDebugTriangle@physx@@@shdfnd@2@@shdfnd@physx@@IEAAAEAUPxDebugTriangle@3@AEBU43@@Z 0000000180008920 f i CmRenderOutput.obj
 0001:00007a20       ?outputCapsule@RenderOutput@Cm@physx@@QEAAAEAV123@MMAEBVPxMat44@3@@Z 0000000180008a20 f   CmRenderOutput.obj
 0001:000084e0       ?outputSegment@RenderOutput@Cm@physx@@QEAAXAEBVPxVec3@3@0@Z 00000001800094e0 f i CmRenderOutput.obj
 0001:000085a0       ?recreate@?$Array@DV?$ReflectionAllocator@D@shdfnd@physx@@@shdfnd@physx@@IEAAXI@Z 00000001800095a0 f i CmRenderOutput.obj
 0001:00008640       ?recreate@?$Array@UPxDebugLine@physx@@V?$ReflectionAllocator@UPxDebugLine@physx@@@shdfnd@2@@shdfnd@physx@@IEAAXI@Z 0000000180009640 f i CmRenderOutput.obj
 0001:000086d0       ?reserveSegments@RenderOutput@Cm@physx@@QEAAPEAUPxDebugLine@3@I@Z 00000001800096d0 f i CmRenderOutput.obj
 0001:00008730       ??DPxQuat@physx@@QEBA?AV01@AEBV01@@Z 0000000180009730 f i CmVisualization.obj
 0001:00008870       ?visualizeAngularLimit@Cm@physx@@YAXAEAVRenderOutput@12@MAEBVPxTransform@2@MM_N@Z 0000000180009870 f   CmVisualization.obj
 0001:00008a30       ?visualizeDoubleCone@Cm@physx@@YAXAEAVRenderOutput@12@MAEBVPxTransform@2@M_N@Z 0000000180009a30 f   CmVisualization.obj
 0001:00008c90       ?visualizeJointFrames@Cm@physx@@YAXAEAVRenderOutput@12@MAEBVPxTransform@2@1@Z 0000000180009c90 f   CmVisualization.obj
 0001:00008d50       ?visualizeLimitCone@Cm@physx@@YAXAEAVRenderOutput@12@MAEBVPxTransform@2@MM_N@Z 0000000180009d50 f   CmVisualization.obj
 0001:00008fe0       ?visualizeLinearLimit@Cm@physx@@YAXAEAVRenderOutput@12@MAEBVPxTransform@2@1M_N@Z 0000000180009fe0 f   CmVisualization.obj
 0001:00009260       ??0CmModuleUpdateLoader@Cm@physx@@QEAA@PEBD@Z 000000018000a260 f   CmWindowsModuleUpdateLoader.obj
 0001:000092a0       ??1CmModuleUpdateLoader@Cm@physx@@QEAA@XZ 000000018000a2a0 f   CmWindowsModuleUpdateLoader.obj
 0001:000092d0       ?LoadModule@CmModuleUpdateLoader@Cm@physx@@QEAAPEAUHINSTANCE__@@PEBD0@Z 000000018000a2d0 f   CmWindowsModuleUpdateLoader.obj
 0001:000092f0       ?commonDelayHook@@YAP6A_JXZIPEAUDelayLoadInfo@@@Z 000000018000a2f0 f   CmWindowsDelayLoadHook.obj
 0001:000093d0       PxSetPhysXCommonDelayLoadHook 000000018000a3d0 f   CmWindowsDelayLoadHook.obj
 0001:000093e0       ??0Box@Gu@physx@@QEAA@AEBV012@@Z 000000018000a3e0 f i GuBounds.obj
 0001:000093e0       ??4Box@Gu@physx@@QEAAAEBV012@AEBV012@@Z 000000018000a3e0 f i GuBounds.obj
 0001:00009440       ??0Box@Gu@physx@@QEAA@AEBVPxVec3@2@0AEBVPxMat33@2@@Z 000000018000a440 f i GuBounds.obj
 0001:000094b0       ??$forward@_K@std@@YA$$QEA_KAEA_K@Z 000000018000a4b0 f i libvcruntime:undname.obj
 0001:000094b0       ??0AABBTreeBuildNode@Gu@physx@@QEAA@XZ 000000018000a4b0 f i GuAABBTreeBuild.obj
 0001:000094b0       ??0BigConvexData@physx@@QEAA@W4PxEMPTY@1@@Z 000000018000a4b0 f i GuMetaData.obj
 0001:000094b0       ??0Box@Gu@physx@@QEAA@XZ   000000018000a4b0 f i GuBounds.obj
 0001:000094b0       ??0GeometryUnion@Gu@physx@@QEAA@W4PxEMPTY@2@@Z 000000018000a4b0 f i GuGeometryUnion.obj
 0001:000094b0       ??0HeightFieldData@Gu@physx@@QEAA@W4PxEMPTY@2@@Z 000000018000a4b0 f i GuBounds.obj
 0001:000094b0       ??0MaterialIndicesStruct@physx@@QEAA@W4PxEMPTY@1@@Z 000000018000a4b0 f i GuGeometryUnion.obj
 0001:000094b0       ?getAABB@AABBTreeBuildNode@Gu@physx@@QEBAAEBVPxBounds3@3@XZ 000000018000a4b0 f i GuAABBTreeBuild.obj
 0001:000094b0       ?getGeometry@GeometryUnion@Gu@physx@@QEBAAEBVPxGeometry@3@XZ 000000018000a4b0 f i GuGeometryUnion.obj
 0001:000094b0       ?getPaddedBounds@HeightFieldData@Gu@physx@@QEBAAEBVCenterExtentsPadded@23@XZ 000000018000a4b0 f i GuBounds.obj
 0001:000094c0       ??0HeightFieldData@Gu@physx@@QEAA@$$QEAU012@@Z 000000018000a4c0 f i GuBounds.obj
 0001:000094c0       ??0HeightFieldData@Gu@physx@@QEAA@AEBU012@@Z 000000018000a4c0 f i GuBounds.obj
 0001:000094c0       ??4HeightFieldData@Gu@physx@@QEAAAEAU012@$$QEAU012@@Z 000000018000a4c0 f i GuBounds.obj
 0001:000094c0       ??4HeightFieldData@Gu@physx@@QEAAAEAU012@AEBU012@@Z 000000018000a4c0 f i GuBounds.obj
 0001:00009520       ??0HeightFieldData@Gu@physx@@QEAA@XZ 000000018000a520 f i GuBounds.obj
 0001:00009530       ??0PxQuat@physx@@QEAA@AEBVPxMat33@1@@Z 000000018000a530 f i GuBounds.obj
 0001:00009730       ??0ShapeData@Gu@physx@@QEAA@AEBVPxGeometry@2@AEBVPxTransform@2@M@Z 000000018000a730 f   GuBounds.obj
 0001:00009c90       ??1PxConvexMesh@physx@@MEAA@XZ 000000018000ac90 f i GuBounds.obj
 0001:00009c90       ??1PxHeightField@physx@@MEAA@XZ 000000018000ac90 f i GuBounds.obj
 0001:00009ca0       ??_EPxBVHStructure@physx@@MEAAPEAXI@Z 000000018000aca0 f i GuBVHStructure.obj
 0001:00009ca0       ??_EPxBase@physx@@MEAAPEAXI@Z 000000018000aca0 f i GuBounds.obj
 0001:00009ca0       ??_EPxTriangleMesh@physx@@MEAAPEAXI@Z 000000018000aca0 f i GuTriangleMesh.obj
 0001:00009ca0       ??_GPxBVHStructure@physx@@MEAAPEAXI@Z 000000018000aca0 f i GuBVHStructure.obj
 0001:00009ca0       ??_GPxBase@physx@@MEAAPEAXI@Z 000000018000aca0 f i GuBounds.obj
 0001:00009ca0       ??_GPxTriangleMesh@physx@@MEAAPEAXI@Z 000000018000aca0 f i GuTriangleMesh.obj
 0001:00009cd0       ??_H@YAXPEAX_K1P6APEAX0@Z@Z 000000018000acd0 f i GuBounds.obj
 0001:00009d20       ?computeAABBExtent@Box@Gu@physx@@QEBA?AVPxVec3@3@XZ 000000018000ad20 f i GuBounds.obj
 0001:00009de0       ?computeBounds@Gu@physx@@YAXAEAVPxBounds3@2@AEBVPxGeometry@2@AEBVPxTransform@2@MPEIBVCenterExtentsPadded@12@M@Z 000000018000ade0 f   GuBounds.obj
 0001:0000a6c0       ?computeBoundsWithCCDThreshold@Gu@physx@@YAMAEAVVec3p@12@0AEBVPxGeometry@2@AEBVPxTransform@2@PEIBVCenterExtentsPadded@12@@Z 000000018000b6c0 f   GuBounds.obj
 0001:0000a890       ?computeBoxPoints@Box@Gu@physx@@QEBAXPEIAVPxVec3@3@@Z 000000018000b890 f i GuBounds.obj
 0001:0000b850       ?getConcreteTypeName@PxConvexMesh@physx@@UEBAPEBDXZ 000000018000c850 f i GuBounds.obj
 0001:0000b860       ?getConcreteTypeName@PxHeightField@physx@@UEBAPEBDXZ 000000018000c860 f i GuBounds.obj
 0001:0000b870       ?getConvexEdgeThreshold@HeightField@Gu@physx@@UEBAMXZ 000000018000c870 f i GuBounds.obj
 0001:0000b880       ?getFlags@HeightField@Gu@physx@@UEBA?AV?$PxFlags@W4Enum@PxHeightFieldFlag@physx@@G@3@XZ 000000018000c880 f i GuBounds.obj
 0001:0000b890       ?getFormat@HeightField@Gu@physx@@UEBA?AW4Enum@PxHeightFieldFormat@3@XZ 000000018000c890 f i GuBounds.obj
 0001:0000b8a0       ?getHeight@HeightField@Gu@physx@@UEBAMMM@Z 000000018000c8a0 f i GuBounds.obj
 0001:0000b8e0       ?getHeightInternal2@HeightField@Gu@physx@@QEBAMIMM@Z 000000018000c8e0 f i GuBounds.obj
 0001:0000ba50       ?getIndexBuffer@ConvexMesh@Gu@physx@@UEBAPEBEXZ 000000018000ca50 f i GuBounds.obj
 0001:0000ba90       ?getNbPolygons@ConvexMesh@Gu@physx@@UEBAIXZ 000000018000ca90 f i GuBounds.obj
 0001:0000baa0       ?getNbRows@HeightField@Gu@physx@@UEBAIXZ 000000018000caa0 f i GuBounds.obj
 0001:0000bab0       ?getNbVertices@ConvexMesh@Gu@physx@@UEBAIXZ 000000018000cab0 f i GuBounds.obj
 0001:0000bac0       ?getSample@HeightField@Gu@physx@@UEBAAEBUPxHeightFieldSample@3@II@Z 000000018000cac0 f i GuBounds.obj
 0001:0000bad0       ?getSampleStride@HeightField@Gu@physx@@UEBAIXZ 000000018000cad0 f i GuBounds.obj
 0001:0000bae0       ?getTimestamp@HeightField@Gu@physx@@UEBAIXZ 000000018000cae0 f i GuBounds.obj
 0001:0000baf0       ?getTransform@Box@Gu@physx@@QEBA?AVPxTransform@3@XZ 000000018000caf0 f i GuBounds.obj
 0001:0000bb50       ?getTriangleMaterialIndex@HeightField@Gu@physx@@UEBAGI@Z 000000018000cb50 f i GuBounds.obj
 0001:0000bb80       ?getTriangleNormal@HeightField@Gu@physx@@UEBA?AVPxVec3@3@I@Z 000000018000cb80 f i GuBounds.obj
 0001:0000bba0       ?getTriangleNormalInternal@HeightField@Gu@physx@@QEBA?AVPxVec3@3@I@Z 000000018000cba0 f i GuBounds.obj
 0001:0000bcf0       ?getVertices@ConvexMesh@Gu@physx@@UEBAPEBVPxVec3@3@XZ 000000018000ccf0 f i GuBounds.obj
 0001:0000bd10       ?isKindOf@PxBase@physx@@MEBA_NPEBD@Z 000000018000cd10 f i GuBounds.obj
 0001:0000bd40       ?isKindOf@PxConvexMesh@physx@@MEBA_NPEBD@Z 000000018000cd40 f i GuBounds.obj
 0001:0000bd90       ?isKindOf@PxHeightField@physx@@MEBA_NPEBD@Z 000000018000cd90 f i GuBounds.obj
 0001:0000bde0       ?isReleasable@PxBase@physx@@UEBA_NXZ 000000018000cde0 f i GuBounds.obj
 0001:0000bdf0       ?isValid@Box@Gu@physx@@QEBA_NXZ 000000018000cdf0 f i GuBounds.obj
 0001:0000be10       ?preExportDataReset@ConvexMesh@Gu@physx@@QEAAXXZ 000000018000ce10 f i GuBounds.obj
 0001:0000be10       ?preExportDataReset@HeightField@Gu@physx@@QEAAXXZ 000000018000ce10 f i GuBounds.obj
 0001:0000be20       ?rotate@Box@Gu@physx@@QEBA?AVPxVec3@3@AEBV43@@Z 000000018000ce20 f i GuBounds.obj
 0001:0000beb0       ?rotateInv@Box@Gu@physx@@QEBA?AVPxVec3@3@AEBV43@@Z 000000018000ceb0 f i GuBounds.obj
 0001:0000bf40       ?setAxes@Box@Gu@physx@@QEAAXAEBVPxVec3@3@00@Z 000000018000cf40 f i GuBounds.obj
 0001:0000bf80       ?setEmpty@Box@Gu@physx@@QEAAXXZ 000000018000cf80 f i GuBounds.obj
 0001:0000bfc0       ?transform@Box@Gu@physx@@QEBA?AVPxVec3@3@AEBV43@@Z 000000018000cfc0 f i GuBounds.obj
 0001:0000c060       ?computeOBBPoints@Gu@physx@@YAXPEIAVPxVec3@2@AEBV32@1111@Z 000000018000d060 f   GuBox.obj
 0001:0000c2e0       ?create@Box@Gu@physx@@QEAAXAEBVCapsule@23@@Z 000000018000d2e0 f   GuBox.obj
 0001:0000c510       ?getBoxEdges@Gu@physx@@YAPEBEXZ 000000018000d510 f   GuBox.obj
 0001:0000c520       ?computeBasis@shdfnd@physx@@YAXAEBVPxVec3@2@0AEAV32@11@Z 000000018000d520 f i GuCapsule.obj
 0001:0000c6c0       ?computeBoxAroundCapsule@Gu@physx@@YAXAEBVCapsule@12@AEAVBox@12@@Z 000000018000d6c0 f   GuCapsule.obj
 0001:0000c810       ??0HeightFieldTraceUtil@Gu@physx@@QEAA@AEBVPxHeightFieldGeometry@2@@Z 000000018000d810 f i GuCCTSweepTests.obj
 0001:0000c810       ??0HeightFieldUtil@Gu@physx@@QEAA@AEBVPxHeightFieldGeometry@2@@Z 000000018000d810 f i GuCCTSweepTests.obj
 0001:0000c850       ??4HeightFieldTraceUtil@Gu@physx@@QEAAAEAV012@$$QEAV012@@Z 000000018000d850 f i GuCCTSweepTests.obj
 0001:0000c850       ??4HeightFieldTraceUtil@Gu@physx@@QEAAAEAV012@AEBV012@@Z 000000018000d850 f i GuCCTSweepTests.obj
 0001:0000c850       ??4HeightFieldUtil@Gu@physx@@QEAAAEAV012@AEBV012@@Z 000000018000d850 f i GuCCTSweepTests.obj
 0001:0000c870       ??4HeightFieldUtil@Gu@physx@@QEAAAEAV012@$$QEAV012@@Z 000000018000d870 f i GuCCTSweepTests.obj
 0001:0000c8a0       ??_E?$EntityReport@I@Gu@physx@@UEAAPEAXI@Z 000000018000d8a0 f i GuCCTSweepTests.obj
 0001:0000c8a0       ??_G?$EntityReport@I@Gu@physx@@UEAAPEAXI@Z 000000018000d8a0 f i GuCCTSweepTests.obj
 0001:0000c900       ?ceilUp@HeightFieldTraceUtil@Gu@physx@@SAMM@Z 000000018000d900 f i GuCCTSweepTests.obj
 0001:0000c940       ?computePointNormal@HeightFieldUtil@Gu@physx@@QEBA?AVPxVec3@3@IAEBV43@AEBVPxTransform@3@MMMMAEAM@Z 000000018000d940 f i GuCCTSweepTests.obj
 0001:0000cd60       ?floorDown@HeightFieldTraceUtil@Gu@physx@@SAMM@Z 000000018000dd60 f i GuCCTSweepTests.obj
 0001:0000cda0       ?getFeatureIndex@HeightFieldUtil@Gu@physx@@SAII@Z 000000018000dda0 f i GuCCTSweepTests.obj
 0001:0000cdb0       ?getFeatureType@HeightFieldUtil@Gu@physx@@SA?AW4Feature@123@I@Z 000000018000ddb0 f i GuCCTSweepTests.obj
 0001:0000cdc0       ?getHeightAtShapePoint@HeightFieldUtil@Gu@physx@@QEBAMMM@Z 000000018000ddc0 f i GuCCTSweepTests.obj
 0001:0000ce20       ?getNormalAtShapePoint@HeightFieldUtil@Gu@physx@@QEBA?AVPxVec3@3@MM@Z 000000018000de20 f i GuCCTSweepTests.obj
 0001:0000cee0       ?getNormal_2@HeightField@Gu@physx@@QEBA?AVPxVec3@3@IMMMMM@Z 000000018000dee0 f i GuCCTSweepTests.obj
 0001:0000d000       ?getOneOverColumnScale@HeightFieldUtil@Gu@physx@@QEBAMXZ 000000018000e000 f i GuCCTSweepTests.obj
 0001:0000d010       ?getOneOverHeightScale@HeightFieldUtil@Gu@physx@@QEBAMXZ 000000018000e010 f i GuCCTSweepTests.obj
 0001:0000d020       ?getOneOverRowScale@HeightFieldUtil@Gu@physx@@QEBAMXZ 000000018000e020 f i GuCCTSweepTests.obj
 0001:0000d030       ?getVertexNormal@HeightFieldUtil@Gu@physx@@QEBA?AVPxVec3@3@I@Z 000000018000e030 f i GuCCTSweepTests.obj
 0001:0000d070       ?hf2shapen@HeightFieldUtil@Gu@physx@@QEBA?AVPxVec3@3@AEBV43@@Z 000000018000e070 f i GuCCTSweepTests.obj
 0001:0000d070       ?shape2hfp@HeightFieldUtil@Gu@physx@@QEBA?AVPxVec3@3@AEBV43@@Z 000000018000e070 f i GuCCTSweepTests.obj
 0001:0000d0b0       ?hf2shapep@HeightFieldUtil@Gu@physx@@QEBA?AVPxVec3@3@AEBV43@@Z 000000018000e0b0 f i GuCCTSweepTests.obj
 0001:0000d0f0       ?hf2worldn@HeightFieldUtil@Gu@physx@@QEBA?AVPxVec3@3@AEBVPxTransform@3@AEBV43@@Z 000000018000e0f0 f i GuCCTSweepTests.obj
 0001:0000d260       ?hf2worldp@HeightFieldUtil@Gu@physx@@QEBA?AVPxVec3@3@AEBVPxTransform@3@AEBV43@@Z 000000018000e260 f i GuCCTSweepTests.obj
 0001:0000d3e0       ?isCollisionVertex@HeightFieldUtil@Gu@physx@@QEBA_NIII@Z 000000018000e3e0 f i GuCCTSweepTests.obj
 0001:0000d400       ?isQueryVertex@HeightFieldUtil@Gu@physx@@QEBA_NIII@Z 000000018000e400 f i GuCCTSweepTests.obj
 0001:0000d4c0       ?isShapePointOnHeightField@HeightFieldUtil@Gu@physx@@QEBA_NMM@Z 000000018000e4c0 f i GuCCTSweepTests.obj
 0001:0000d510       ?makeFeatureCode@HeightFieldUtil@Gu@physx@@SAIIW4Feature@123@@Z 000000018000e510 f i GuCCTSweepTests.obj
 0001:0000d6d0       ?sweepBoxTriangles_Precise@Gu@physx@@YA_NIPEBVPxTriangle@2@_NAEBVPxBoxGeometry@2@AEBVPxTransform@2@AEBVPxVec3@2@MAEAUPxSweepHit@2@PEBIMV?$PxFlags@W4Enum@PxHitFlag@physx@@G@2@@Z 000000018000e6d0 f   GuCCTSweepTests.obj
 0001:0000e480       ?sweepBox_BoxGeom_Precise@@YA_NAEBVPxGeometry@physx@@AEBVPxTransform@2@AEBVPxBoxGeometry@2@1AEBVBox@Gu@2@AEBVPxVec3@2@MAEAUPxSweepHit@2@V?$PxFlags@W4Enum@PxHitFlag@physx@@G@2@M@Z 000000018000f480 f   GuCCTSweepTests.obj
 0001:0000e640       ?sweepBox_CapsuleGeom_Precise@@YA_NAEBVPxGeometry@physx@@AEBVPxTransform@2@AEBVPxBoxGeometry@2@1AEBVBox@Gu@2@AEBVPxVec3@2@MAEAUPxSweepHit@2@V?$PxFlags@W4Enum@PxHitFlag@physx@@G@2@M@Z 000000018000f640 f   GuCCTSweepTests.obj
 0001:0000ea10       ?sweepBox_HeightFieldGeom_Precise@@YA_NAEBVPxGeometry@physx@@AEBVPxTransform@2@AEBVPxBoxGeometry@2@1AEBVBox@Gu@2@AEBVPxVec3@2@MAEAUPxSweepHit@2@V?$PxFlags@W4Enum@PxHitFlag@physx@@G@2@M@Z 000000018000fa10 f   GuCCTSweepTests.obj
 0001:0000ede0       ?sweepBox_SphereGeom_Precise@@YA_NAEBVPxGeometry@physx@@AEBVPxTransform@2@AEBVPxBoxGeometry@2@1AEBVBox@Gu@2@AEBVPxVec3@2@MAEAUPxSweepHit@2@V?$PxFlags@W4Enum@PxHitFlag@physx@@G@2@M@Z 000000018000fde0 f   GuCCTSweepTests.obj
 0001:0000f0b0       ?sweepCapsule_BoxGeom_Precise@@YA_NAEBVPxGeometry@physx@@AEBVPxTransform@2@AEBVPxCapsuleGeometry@2@1AEBVCapsule@Gu@2@AEBVPxVec3@2@MAEAUPxSweepHit@2@V?$PxFlags@W4Enum@PxHitFlag@physx@@G@2@M@Z 00000001800100b0 f   GuCCTSweepTests.obj
 0001:0000f710       ?computePenetration@PxGeometryQuery@physx@@SA_NAEAVPxVec3@2@AEAMAEBVPxGeometry@2@AEBVPxTransform@2@23@Z 0000000180010710 f   GuGeometryQuery.obj
 0001:0000f7f0       ?getWorldBounds@PxGeometryQuery@physx@@SA?AVPxBounds3@2@AEBVPxGeometry@2@AEBVPxTransform@2@M@Z 00000001800107f0 f   GuGeometryQuery.obj
 0001:0000f850       ?isFinite@PxQuat@physx@@QEBA_NXZ 0000000180010850 f i GuGeometryQuery.obj
 0001:0000f8c0       ?isValid@PxGeometryQuery@physx@@SA_NAEBVPxGeometry@2@@Z 00000001800108c0 f   GuGeometryQuery.obj
 0001:0000fab0       ?overlap@PxGeometryQuery@physx@@SA_NAEBVPxGeometry@2@AEBVPxTransform@2@01@Z 0000000180010ab0 f   GuGeometryQuery.obj
 0001:0000fb50       ?pointDistance@PxGeometryQuery@physx@@SAMAEBVPxVec3@2@AEBVPxGeometry@2@AEBVPxTransform@2@PEAV32@@Z 0000000180010b50 f   GuGeometryQuery.obj
 0001:000101e0       ?raycast@PxGeometryQuery@physx@@SAIAEBVPxVec3@2@0AEBVPxGeometry@2@AEBVPxTransform@2@MV?$PxFlags@W4Enum@PxHitFlag@physx@@G@2@IPEIAUPxRaycastHit@2@@Z 00000001800111e0 f   GuGeometryQuery.obj
 0001:00010280       ?sweep@PxGeometryQuery@physx@@SA_NAEBVPxVec3@2@MAEBVPxGeometry@2@AEBVPxTransform@2@12AEAUPxSweepHit@2@V?$PxFlags@W4Enum@PxHitFlag@physx@@G@2@M@Z 0000000180011280 f   GuGeometryQuery.obj
 0001:00010680       ??0GeometryUnion@Gu@physx@@QEAA@AEBVPxGeometry@2@@Z 0000000180011680 f i GuGeometryUnion.obj
 0001:000106a0       ??0GeometryUnion@Gu@physx@@QEAA@XZ 00000001800116a0 f i GuGeometryUnion.obj
 0001:000106b0       ??0MaterialIndicesStruct@physx@@QEAA@XZ 00000001800116b0 f i GuGeometryUnion.obj
 0001:000106d0       ??4GeometryUnion@Gu@physx@@QEAAAEAV012@$$QEAV012@@Z 00000001800116d0 f i GuGeometryUnion.obj
 0001:000106d0       ??4GeometryUnion@Gu@physx@@QEAAAEAV012@AEBV012@@Z 00000001800116d0 f i GuGeometryUnion.obj
 0001:00010700       ?allocate@MaterialIndicesStruct@physx@@QEAAXG@Z 0000000180011700 f i GuGeometryUnion.obj
 0001:00010780       ?deallocate@MaterialIndicesStruct@physx@@QEAAXXZ 0000000180011780 f i GuGeometryUnion.obj
 0001:000107d0       ?getCount@BuildStats@Gu@physx@@QEBAIXZ 00000001800117d0 f i GuAABBTreeBuild.obj
 0001:000107d0       ?getNumAxes@SeparatingAxes@Gu@physx@@QEBAIXZ 00000001800117d0 f i GuMTD.obj
 0001:000107d0       ?getType@GeometryUnion@Gu@physx@@QEBA?AW4Enum@PxGeometryType@3@XZ 00000001800117d0 f i GuGeometryUnion.obj
 0001:000107e0       ?set@GeometryUnion@Gu@physx@@QEAAXAEBVPxGeometry@3@@Z 00000001800117e0 f   GuGeometryUnion.obj
 0001:000109b0       ?computeBoundsAroundVertices@Gu@physx@@YAXAEAVPxBounds3@2@IPEIBVPxVec3@2@@Z 00000001800119b0 f   GuInternal.obj
 0001:00010a60       ?computeBoxPoints@Gu@physx@@YAXAEBVPxBounds3@2@PEIAVPxVec3@2@@Z 0000000180011a60 f   GuInternal.obj
 0001:00010b00       ?computeSweptBox@Gu@physx@@YAXAEAVBox@12@AEBVPxVec3@2@1AEBVPxMat33@2@1M@Z 0000000180011b00 f   GuInternal.obj
 0001:00011040       ?getPlane@Gu@physx@@YA?AVPxPlane@2@AEBVPxTransform@2@@Z 0000000180012040 f   GuInternal.obj
 0001:000110f0       ??$?_UI@@YAPEAX_KV?$ReflectionAllocator@I@shdfnd@physx@@PEBDH@Z 00000001800120f0 f i GuMeshFactory.obj
 0001:00011190       ??0GuMeshFactory@physx@@QEAA@XZ 0000000180012190 f   GuMeshFactory.obj
 0001:00011320       ??1GuMeshFactory@physx@@MEAA@XZ 0000000180012320 f   GuMeshFactory.obj
 0001:00011410       ??1MeshDataBase@Gu@physx@@UEAA@XZ 0000000180012410 f i GuMeshFactory.obj
 0001:00011500       ??1TriangleMeshData@Gu@physx@@UEAA@XZ 0000000180012500 f i GuMeshFactory.obj
 0001:000115d0       ??_EGuMeshFactory@physx@@MEAAPEAXI@Z 00000001800125d0 f i GuMeshFactory.obj
 0001:000116e0       ??_EBV4TriangleData@Gu@physx@@UEAAPEAXI@Z 00000001800126e0 f i GuMeshFactory.obj
 0001:000116e0       ??_GBV4TriangleData@Gu@physx@@UEAAPEAXI@Z 00000001800126e0 f i GuMeshFactory.obj
 0001:00011770       ??_EMeshDataBase@Gu@physx@@UEAAPEAXI@Z 0000000180012770 f i GuMeshFactory.obj
 0001:00011770       ??_GMeshDataBase@Gu@physx@@UEAAPEAXI@Z 0000000180012770 f i GuMeshFactory.obj
 0001:000117e0       ??_ERTreeTriangleData@Gu@physx@@UEAAPEAXI@Z 00000001800127e0 f i GuMeshFactory.obj
 0001:000117e0       ??_GRTreeTriangleData@Gu@physx@@UEAAPEAXI@Z 00000001800127e0 f i GuMeshFactory.obj
 0001:00011890       ??_ETriangleMeshData@Gu@physx@@UEAAPEAXI@Z 0000000180012890 f i GuMeshFactory.obj
 0001:00011890       ??_GTriangleMeshData@Gu@physx@@UEAAPEAXI@Z 0000000180012890 f i GuMeshFactory.obj
 0001:00011900       ?__global_array_delete@@YAXPEAX_K@Z 0000000180012900 f i GuMeshFactory.obj
 0001:00011910       ??_V@YAXPEAX_K@Z           0000000180012910 f i LIBCMT:delete_array_size.obj
 0001:00011910       ?__global_delete@@YAXPEAX_K@Z 0000000180012910 f i GuMeshFactory.obj
 0001:00011920       ?addBVHStructure@GuMeshFactory@physx@@QEAAXPEAVBVHStructure@Gu@2@_N@Z 0000000180012920 f   GuMeshFactory.obj
 0001:000119a0       ?addConvexMesh@GuMeshFactory@physx@@QEAAXPEAVConvexMesh@Gu@2@_N@Z 00000001800129a0 f   GuMeshFactory.obj
 0001:00011a20       ?addFactoryListener@GuMeshFactory@physx@@QEAAXAEAVGuMeshFactoryListener@2@@Z 0000000180012a20 f   GuMeshFactory.obj
 0001:00011a90       ?addHeightField@GuMeshFactory@physx@@QEAAXPEAVHeightField@Gu@2@_N@Z 0000000180012a90 f   GuMeshFactory.obj
 0001:00011b10       ?addTriangleMesh@GuMeshFactory@physx@@QEAAXPEAVTriangleMesh@Gu@2@_N@Z 0000000180012b10 f   GuMeshFactory.obj
 0001:00011b90       ?create@?$HashBase@PEAVBVHStructure@Gu@physx@@PEAV123@U?$Hash@PEAVBVHStructure@Gu@physx@@@shdfnd@3@UGetKey@?$HashSetBase@PEAVBVHStructure@Gu@physx@@U?$Hash@PEAVBVHStructure@Gu@physx@@@shdfnd@3@VNonTrackingAllocator@53@$00@internal@53@VNonTrackingAllocator@53@$00@internal@shdfnd@physx@@QEAAPEAPEAVBVHStructure@Gu@4@AEBQEAV564@AEA_N@Z 0000000180012b90 f i GuMeshFactory.obj
 0001:00011b90       ?create@?$HashBase@PEAVConvexMesh@Gu@physx@@PEAV123@U?$Hash@PEAVConvexMesh@Gu@physx@@@shdfnd@3@UGetKey@?$HashSetBase@PEAVConvexMesh@Gu@physx@@U?$Hash@PEAVConvexMesh@Gu@physx@@@shdfnd@3@VNonTrackingAllocator@53@$00@internal@53@VNonTrackingAllocator@53@$00@internal@shdfnd@physx@@QEAAPEAPEAVConvexMesh@Gu@4@AEBQEAV564@AEA_N@Z 0000000180012b90 f i GuMeshFactory.obj
 0001:00011b90       ?create@?$HashBase@PEAVHeightField@Gu@physx@@PEAV123@U?$Hash@PEAVHeightField@Gu@physx@@@shdfnd@3@UGetKey@?$HashSetBase@PEAVHeightField@Gu@physx@@U?$Hash@PEAVHeightField@Gu@physx@@@shdfnd@3@VNonTrackingAllocator@53@$00@internal@53@VNonTrackingAllocator@53@$00@internal@shdfnd@physx@@QEAAPEAPEAVHeightField@Gu@4@AEBQEAV564@AEA_N@Z 0000000180012b90 f i GuMeshFactory.obj
 0001:00011b90       ?create@?$HashBase@PEAVTriangleMesh@Gu@physx@@PEAV123@U?$Hash@PEAVTriangleMesh@Gu@physx@@@shdfnd@3@UGetKey@?$HashSetBase@PEAVTriangleMesh@Gu@physx@@U?$Hash@PEAVTriangleMesh@Gu@physx@@@shdfnd@3@VNonTrackingAllocator@53@$00@internal@53@VNonTrackingAllocator@53@$00@internal@shdfnd@physx@@QEAAPEAPEAVTriangleMesh@Gu@4@AEBQEAV564@AEA_N@Z 0000000180012b90 f i GuMeshFactory.obj
 0001:00011d20       ?createBVHStructure@GuMeshFactory@physx@@IEAAPEAVPxBVHStructure@2@AEAUBVHStructureData@Gu@2@@Z 0000000180012d20 f   GuMeshFactory.obj
 0001:00011e20       ?createBVHStructure@GuMeshFactory@physx@@QEAAPEAVPxBVHStructure@2@AEAVPxInputStream@2@@Z 0000000180012e20 f   GuMeshFactory.obj
 0001:00011f40       ?createBVHStructure@GuMeshFactory@physx@@QEAAPEAVPxBVHStructure@2@PEAX@Z 0000000180012f40 f   GuMeshFactory.obj
 0001:00011f50       ?createConvexMesh@GuMeshFactory@physx@@IEAAPEAVPxConvexMesh@2@AEAUConvexHullInitData@Gu@2@@Z 0000000180012f50 f   GuMeshFactory.obj
 0001:00012040       ?createConvexMesh@GuMeshFactory@physx@@QEAAPEAVPxConvexMesh@2@AEAVPxInputStream@2@@Z 0000000180013040 f   GuMeshFactory.obj
 0001:00012160       ?createConvexMesh@GuMeshFactory@physx@@QEAAPEAVPxConvexMesh@2@PEAX@Z 0000000180013160 f   GuMeshFactory.obj
 0001:00012170       ?createHeightField@GuMeshFactory@physx@@QEAAPEAVPxHeightField@2@AEAVPxInputStream@2@@Z 0000000180013170 f   GuMeshFactory.obj
 0001:00012290       ?createHeightField@GuMeshFactory@physx@@QEAAPEAVPxHeightField@2@PEAX@Z 0000000180013290 f   GuMeshFactory.obj
 0001:00012390       ?createTriangleMesh@GuMeshFactory@physx@@IEAAPEAVPxTriangleMesh@2@AEAVTriangleMeshData@Gu@2@@Z 0000000180013390 f   GuMeshFactory.obj
 0001:00012520       ?createTriangleMesh@GuMeshFactory@physx@@QEAAPEAVPxTriangleMesh@2@AEAVPxInputStream@2@@Z 0000000180013520 f   GuMeshFactory.obj
 0001:00012580       ?createTriangleMesh@GuMeshFactory@physx@@QEAAPEAVPxTriangleMesh@2@PEAX@Z 0000000180013580 f   GuMeshFactory.obj
 0001:00012590       ?erase@?$HashBase@PEAVBVHStructure@Gu@physx@@PEAV123@U?$Hash@PEAVBVHStructure@Gu@physx@@@shdfnd@3@UGetKey@?$HashSetBase@PEAVBVHStructure@Gu@physx@@U?$Hash@PEAVBVHStructure@Gu@physx@@@shdfnd@3@VNonTrackingAllocator@53@$00@internal@53@VNonTrackingAllocator@53@$00@internal@shdfnd@physx@@QEAA_NAEBQEAVBVHStructure@Gu@4@@Z 0000000180013590 f i GuMeshFactory.obj
 0001:00012590       ?erase@?$HashBase@PEAVConvexMesh@Gu@physx@@PEAV123@U?$Hash@PEAVConvexMesh@Gu@physx@@@shdfnd@3@UGetKey@?$HashSetBase@PEAVConvexMesh@Gu@physx@@U?$Hash@PEAVConvexMesh@Gu@physx@@@shdfnd@3@VNonTrackingAllocator@53@$00@internal@53@VNonTrackingAllocator@53@$00@internal@shdfnd@physx@@QEAA_NAEBQEAVConvexMesh@Gu@4@@Z 0000000180013590 f i GuMeshFactory.obj
 0001:00012590       ?erase@?$HashBase@PEAVHeightField@Gu@physx@@PEAV123@U?$Hash@PEAVHeightField@Gu@physx@@@shdfnd@3@UGetKey@?$HashSetBase@PEAVHeightField@Gu@physx@@U?$Hash@PEAVHeightField@Gu@physx@@@shdfnd@3@VNonTrackingAllocator@53@$00@internal@53@VNonTrackingAllocator@53@$00@internal@shdfnd@physx@@QEAA_NAEBQEAVHeightField@Gu@4@@Z 0000000180013590 f i GuMeshFactory.obj
 0001:00012590       ?erase@?$HashBase@PEAVTriangleMesh@Gu@physx@@PEAV123@U?$Hash@PEAVTriangleMesh@Gu@physx@@@shdfnd@3@UGetKey@?$HashSetBase@PEAVTriangleMesh@Gu@physx@@U?$Hash@PEAVTriangleMesh@Gu@physx@@@shdfnd@3@VNonTrackingAllocator@53@$00@internal@53@VNonTrackingAllocator@53@$00@internal@shdfnd@physx@@QEAA_NAEBQEAVTriangleMesh@Gu@4@@Z 0000000180013590 f i GuMeshFactory.obj
 0001:00012710       ?getBVHStructures@GuMeshFactory@physx@@QEBAIPEAPEAVPxBVHStructure@2@II@Z 0000000180013710 f   GuMeshFactory.obj
 0001:000127b0       ?getConvexMeshes@GuMeshFactory@physx@@QEBAIPEAPEAVPxConvexMesh@2@II@Z 00000001800137b0 f   GuMeshFactory.obj
 0001:00012840       ?getHeightFields@GuMeshFactory@physx@@QEBAIPEAPEAVPxHeightField@2@II@Z 0000000180013840 f   GuMeshFactory.obj
 0001:000128e0       ?getNbBVHStructures@GuMeshFactory@physx@@QEBAIXZ 00000001800138e0 f   GuMeshFactory.obj
 0001:00012920       ?getNbConvexMeshes@GuMeshFactory@physx@@QEBAIXZ 0000000180013920 f   GuMeshFactory.obj
 0001:00012960       ?getNbHeightFields@GuMeshFactory@physx@@QEBAIXZ 0000000180013960 f   GuMeshFactory.obj
 0001:000129a0       ?getNbTriangleMeshes@GuMeshFactory@physx@@QEBAIXZ 00000001800139a0 f   GuMeshFactory.obj
 0001:000129e0       ?getTriangleMeshes@GuMeshFactory@physx@@QEBAIPEAPEAVPxTriangleMesh@2@II@Z 00000001800139e0 f   GuMeshFactory.obj
 0001:00012a70       ?growAndPushBack@?$Array@PEAVGuMeshFactoryListener@physx@@V?$ReflectionAllocator@PEAVGuMeshFactoryListener@physx@@@shdfnd@2@@shdfnd@physx@@IEAAAEAPEAVGuMeshFactoryListener@3@AEBQEAV43@@Z 0000000180013a70 f i GuMeshFactory.obj
 0001:00013a20       ?notifyFactoryListener@GuMeshFactory@physx@@QEAAXPEBVPxBase@2@G@Z 0000000180014a20 f   GuMeshFactory.obj
 0001:00013a90       ?release@GuMeshFactory@physx@@QEAAXXZ 0000000180014a90 f   GuMeshFactory.obj
 0001:00013b40       ?removeBVHStructure@GuMeshFactory@physx@@QEAA_NAEAVPxBVHStructure@2@@Z 0000000180014b40 f   GuMeshFactory.obj
 0001:00013b90       ?removeConvexMesh@GuMeshFactory@physx@@QEAA_NAEAVPxConvexMesh@2@@Z 0000000180014b90 f   GuMeshFactory.obj
 0001:00013be0       ?removeFactoryListener@GuMeshFactory@physx@@QEAAXAEAVGuMeshFactoryListener@2@@Z 0000000180014be0 f   GuMeshFactory.obj
 0001:00013c70       ?removeHeightField@GuMeshFactory@physx@@QEAA_NAEAVPxHeightField@2@@Z 0000000180014c70 f   GuMeshFactory.obj
 0001:00013cc0       ?removeTriangleMesh@GuMeshFactory@physx@@QEAA_NAEAVPxTriangleMesh@2@@Z 0000000180014cc0 f   GuMeshFactory.obj
 0001:00013d10       ?reserveInternal@?$HashBase@PEAVBVHStructure@Gu@physx@@PEAV123@U?$Hash@PEAVBVHStructure@Gu@physx@@@shdfnd@3@UGetKey@?$HashSetBase@PEAVBVHStructure@Gu@physx@@U?$Hash@PEAVBVHStructure@Gu@physx@@@shdfnd@3@VNonTrackingAllocator@53@$00@internal@53@VNonTrackingAllocator@53@$00@internal@shdfnd@physx@@AEAAXI@Z 0000000180014d10 f i GuMeshFactory.obj
 0001:00013d10       ?reserveInternal@?$HashBase@PEAVConvexMesh@Gu@physx@@PEAV123@U?$Hash@PEAVConvexMesh@Gu@physx@@@shdfnd@3@UGetKey@?$HashSetBase@PEAVConvexMesh@Gu@physx@@U?$Hash@PEAVConvexMesh@Gu@physx@@@shdfnd@3@VNonTrackingAllocator@53@$00@internal@53@VNonTrackingAllocator@53@$00@internal@shdfnd@physx@@AEAAXI@Z 0000000180014d10 f i GuMeshFactory.obj
 0001:00013d10       ?reserveInternal@?$HashBase@PEAVHeightField@Gu@physx@@PEAV123@U?$Hash@PEAVHeightField@Gu@physx@@@shdfnd@3@UGetKey@?$HashSetBase@PEAVHeightField@Gu@physx@@U?$Hash@PEAVHeightField@Gu@physx@@@shdfnd@3@VNonTrackingAllocator@53@$00@internal@53@VNonTrackingAllocator@53@$00@internal@shdfnd@physx@@AEAAXI@Z 0000000180014d10 f i GuMeshFactory.obj
 0001:00013d10       ?reserveInternal@?$HashBase@PEAVTriangleMesh@Gu@physx@@PEAV123@U?$Hash@PEAVTriangleMesh@Gu@physx@@@shdfnd@3@UGetKey@?$HashSetBase@PEAVTriangleMesh@Gu@physx@@U?$Hash@PEAVTriangleMesh@Gu@physx@@@shdfnd@3@VNonTrackingAllocator@53@$00@internal@53@VNonTrackingAllocator@53@$00@internal@shdfnd@physx@@AEAAXI@Z 0000000180014d10 f i GuMeshFactory.obj
 0001:00013ee0       ??4BigConvexData@physx@@QEAAAEAV01@AEBV01@@Z 0000000180014ee0 f i GuMetaData.obj
 0001:00013f00       ?GetAdjacentVerts@BigConvexData@physx@@QEBAPEBEXZ 0000000180014f00 f i GuMetaData.obj
 0001:00013f10       ?GetNbNeighbors@BigConvexData@physx@@QEBAGI@Z 0000000180014f10 f i GuMetaData.obj
 0001:00013f10       ?GetValency@BigConvexData@physx@@QEBAGI@Z 0000000180014f10 f i GuMetaData.obj
 0001:00013f20       ?GetNbSamples@BigConvexData@physx@@QEBAIXZ 0000000180014f20 f i GuMetaData.obj
 0001:00013f30       ?GetNbVerts@BigConvexData@physx@@QEBAIXZ 0000000180014f30 f i GuMetaData.obj
 0001:00013f30       ?length@pcharNode@@UEBAHXZ 0000000180014f30 f i libvcruntime:undname.obj
 0001:00013f30       ?raw_length@pcharNode@@UEBAHXZ 0000000180014f30 f i libvcruntime:undname.obj
 0001:00013f40       ?GetNeighbors@BigConvexData@physx@@QEBAPEBEI@Z 0000000180014f40 f i GuMetaData.obj
 0001:00013f50       ?GetOffset@BigConvexData@physx@@QEBAGI@Z 0000000180014f50 f i GuMetaData.obj
 0001:00013f60       ?GetSubdiv@BigConvexData@physx@@QEBAIXZ 0000000180014f60 f i GuMetaData.obj
 0001:00013f70       ?getBinaryMetaData@BV4Tree@Gu@physx@@SAXAEAVPxOutputStream@3@@Z 0000000180014f70 f   GuMetaData.obj
 0001:00014300       ?getBinaryMetaData@BV4TriangleMesh@Gu@physx@@SAXAEAVPxOutputStream@3@@Z 0000000180015300 f   GuMetaData.obj
 0001:000145e0       ?getBinaryMetaData@BigConvexData@physx@@SAXAEAVPxOutputStream@2@@Z 00000001800155e0 f   GuMetaData.obj
 0001:000148a0       ?getBinaryMetaData@ConvexMesh@Gu@physx@@SAXAEAVPxOutputStream@3@@Z 00000001800158a0 f   GuMetaData.obj
 0001:00014f30       ?getBinaryMetaData@GeometryUnion@Gu@physx@@SAXAEAVPxOutputStream@3@@Z 0000000180015f30 f   GuMetaData.obj
 0001:00015580       ?getBinaryMetaData@HeightField@Gu@physx@@SAXAEAVPxOutputStream@3@@Z 0000000180016580 f   GuMetaData.obj
 0001:000159b0       ?getBinaryMetaData@MaterialIndicesStruct@physx@@SAXAEAVPxOutputStream@2@@Z 00000001800169b0 f   GuMetaData.obj
 0001:00015b50       ?getBinaryMetaData@RTree@Gu@physx@@SAXAEAVPxOutputStream@3@@Z 0000000180016b50 f   GuMetaData.obj
 0001:00015e80       ?getBinaryMetaData@RTreeTriangleMesh@Gu@physx@@SAXAEAVPxOutputStream@3@@Z 0000000180016e80 f   GuMetaData.obj
 0001:00016720       ?getBinaryMetaData@TriangleMesh@Gu@physx@@SAXAEAVPxOutputStream@3@@Z 0000000180017720 f   GuMetaData.obj
 0001:00017b90       ?doSupport@?$SupportLocalImpl@VBoxV@Gu@physx@@@Gu@physx@@UEBAXAEBT__m128@@AEAT4@1@Z 0000000180018b90 f i GuMTD.obj
 0001:00017be0       ?populateVerts@?$SupportLocalImpl@VBoxV@Gu@physx@@@Gu@physx@@UEBAXPEBEIPEBVPxVec3@3@PEAT__m128@@@Z 0000000180018be0 f i GuMTD.obj
 0001:00017be0       ?populateVerts@?$SupportLocalImpl@VConvexHullNoScaleV@Gu@physx@@@Gu@physx@@UEBAXPEBEIPEBVPxVec3@3@PEAT__m128@@@Z 0000000180018be0 f i GuMTD.obj
 0001:00017c20       ??_E?$SupportLocalImpl@VBoxV@Gu@physx@@@Gu@physx@@UEAAPEAXI@Z 0000000180018c20 f i GuMTD.obj
 0001:00017c20       ??_E?$SupportLocalImpl@VConvexHullNoScaleV@Gu@physx@@@Gu@physx@@UEAAPEAXI@Z 0000000180018c20 f i GuMTD.obj
 0001:00017c20       ??_E?$SupportLocalImpl@VConvexHullV@Gu@physx@@@Gu@physx@@UEAAPEAXI@Z 0000000180018c20 f i GuMTD.obj
 0001:00017c20       ??_E?$SupportLocalImpl@VTriangleV@Gu@physx@@@Gu@physx@@UEAAPEAXI@Z 0000000180018c20 f i GuPCMContactConvexCommon.obj
 0001:00017c20       ??_G?$SupportLocalImpl@VBoxV@Gu@physx@@@Gu@physx@@UEAAPEAXI@Z 0000000180018c20 f i GuMTD.obj
 0001:00017c20       ??_G?$SupportLocalImpl@VConvexHullNoScaleV@Gu@physx@@@Gu@physx@@UEAAPEAXI@Z 0000000180018c20 f i GuMTD.obj
 0001:00017c20       ??_G?$SupportLocalImpl@VConvexHullV@Gu@physx@@@Gu@physx@@UEAAPEAXI@Z 0000000180018c20 f i GuMTD.obj
 0001:00017c20       ??_G?$SupportLocalImpl@VTriangleV@Gu@physx@@@Gu@physx@@UEAAPEAXI@Z 0000000180018c20 f i GuPCMContactConvexCommon.obj
 0001:00017c50       ??_ESupportLocal@Gu@physx@@UEAAPEAXI@Z 0000000180018c50 f i GuMTD.obj
 0001:00017c50       ??_GSupportLocal@Gu@physx@@UEAAPEAXI@Z 0000000180018c50 f i GuMTD.obj
 0001:00019c00       ?doSupport@?$SupportLocalImpl@VConvexHullV@Gu@physx@@@Gu@physx@@UEBA?AT__m128@@AEBT4@@Z 000000018001ac00 f i GuMTD.obj
 0001:00019ce0       ?doSupport@?$SupportLocalImpl@VConvexHullV@Gu@physx@@@Gu@physx@@UEBAXAEBT__m128@@AEAT4@1@Z 000000018001ace0 f i GuMTD.obj
 0001:0001a040       ?populateVerts@?$SupportLocalImpl@VConvexHullV@Gu@physx@@@Gu@physx@@UEBAXPEBEIPEBVPxVec3@3@PEAT__m128@@@Z 000000018001b040 f i GuMTD.obj
 0001:0001a0a0       ?doSupport@?$SupportLocalImpl@VConvexHullNoScaleV@Gu@physx@@@Gu@physx@@UEBA?AT__m128@@AEBT4@@Z 000000018001b0a0 f i GuMTD.obj
 0001:0001a0f0       ?doSupport@?$SupportLocalImpl@VConvexHullNoScaleV@Gu@physx@@@Gu@physx@@UEBAXAEBT__m128@@AEAT4@1@Z 000000018001b0f0 f i GuMTD.obj
 0001:0001a270       ?doSupport@?$SupportLocalImpl@VBoxV@Gu@physx@@@Gu@physx@@UEBA?AT__m128@@AEBT4@@Z 000000018001b270 f i GuMTD.obj
 0001:0001a2a0       ??$gjk@U?$LocalConvex@VCapsuleV@Gu@physx@@@Gu@physx@@U?$LocalConvex@VConvexHullV@Gu@physx@@@23@@Gu@physx@@YA?AW4GjkStatus@01@AEBU?$LocalConvex@VCapsuleV@Gu@physx@@@01@AEBU?$LocalConvex@VConvexHullV@Gu@physx@@@01@AEBT__m128@@2AEAT5@333@Z 000000018001b2a0 f i GuMTD.obj
 0001:0001b010       ??0MultiplePersistentContactManifold@Gu@physx@@QEAA@XZ 000000018001c010 f i GuMTD.obj
 0001:0001b060       ??0PolygonalBox@Gu@physx@@QEAA@AEBV012@@Z 000000018001c060 f i GuMTD.obj
 0001:0001b2e0       ??0SeparatingAxes@Gu@physx@@QEAA@$$QEAV012@@Z 000000018001c2e0 f i GuMTD.obj
 0001:0001b2e0       ??0SeparatingAxes@Gu@physx@@QEAA@AEBV012@@Z 000000018001c2e0 f i GuMTD.obj
 0001:0001b3f0       ??0SeparatingAxes@Gu@physx@@QEAA@XZ 000000018001c3f0 f i GuMTD.obj
 0001:0001b400       ??4MultiplePersistentContactManifold@Gu@physx@@QEAAAEAV012@$$QEAV012@@Z 000000018001c400 f i GuMTD.obj
 0001:0001b710       ??4MultiplePersistentContactManifold@Gu@physx@@QEAAAEAV012@AEBV012@@Z 000000018001c710 f i GuMTD.obj
 0001:0001b730       ??4SeparatingAxes@Gu@physx@@QEAAAEAV012@$$QEAV012@@Z 000000018001c730 f i GuMTD.obj
 0001:0001b730       ??4SeparatingAxes@Gu@physx@@QEAAAEAV012@AEBV012@@Z 000000018001c730 f i GuMTD.obj
 0001:0001b840       ??_E?$LocalConvex@VBoxV@Gu@physx@@@Gu@physx@@UEAAPEAXI@Z 000000018001c840 f i GuSweepTests.obj
 0001:0001b840       ??_E?$LocalConvex@VCapsuleV@Gu@physx@@@Gu@physx@@UEAAPEAXI@Z 000000018001c840 f i GuMTD.obj
 0001:0001b840       ??_E?$LocalConvex@VConvexHullNoScaleV@Gu@physx@@@Gu@physx@@UEAAPEAXI@Z 000000018001c840 f i GuPCMContactBoxConvex.obj
 0001:0001b840       ??_E?$LocalConvex@VConvexHullV@Gu@physx@@@Gu@physx@@UEAAPEAXI@Z 000000018001c840 f i GuMTD.obj
 0001:0001b840       ??_E?$LocalConvex@VTriangleV@Gu@physx@@@Gu@physx@@UEAAPEAXI@Z 000000018001c840 f i GuSweepTests.obj
 0001:0001b840       ??_EGjkConvexBase@Gu@physx@@UEAAPEAXI@Z 000000018001c840 f i GuMTD.obj
 0001:0001b840       ??_G?$LocalConvex@VBoxV@Gu@physx@@@Gu@physx@@UEAAPEAXI@Z 000000018001c840 f i GuSweepTests.obj
 0001:0001b840       ??_G?$LocalConvex@VCapsuleV@Gu@physx@@@Gu@physx@@UEAAPEAXI@Z 000000018001c840 f i GuMTD.obj
 0001:0001b840       ??_G?$LocalConvex@VConvexHullNoScaleV@Gu@physx@@@Gu@physx@@UEAAPEAXI@Z 000000018001c840 f i GuPCMContactBoxConvex.obj
 0001:0001b840       ??_G?$LocalConvex@VConvexHullV@Gu@physx@@@Gu@physx@@UEAAPEAXI@Z 000000018001c840 f i GuMTD.obj
 0001:0001b840       ??_G?$LocalConvex@VTriangleV@Gu@physx@@@Gu@physx@@UEAAPEAXI@Z 000000018001c840 f i GuSweepTests.obj
 0001:0001b840       ??_GGjkConvexBase@Gu@physx@@UEAAPEAXI@Z 000000018001c840 f i GuMTD.obj
 0001:0001bfc0       ?clearManifold@MultiplePersistentContactManifold@Gu@physx@@QEAAXXZ 000000018001cfc0 f i GuMTD.obj
 0001:0001f910       ?getAxes@SeparatingAxes@Gu@physx@@QEBAPEBVPxVec3@3@XZ 0000000180020910 f i GuMTD.obj
 0001:0001f920       ?getCenter@?$LocalConvex@VBoxV@Gu@physx@@@Gu@physx@@UEBA?AT__m128@@XZ 0000000180020920 f i GuSweepTests.obj
 0001:0001f920       ?getCenter@?$LocalConvex@VCapsuleV@Gu@physx@@@Gu@physx@@UEBA?AT__m128@@XZ 0000000180020920 f i GuMTD.obj
 0001:0001f920       ?getCenter@?$LocalConvex@VConvexHullNoScaleV@Gu@physx@@@Gu@physx@@UEBA?AT__m128@@XZ 0000000180020920 f i GuPCMContactBoxConvex.obj
 0001:0001f920       ?getCenter@?$LocalConvex@VConvexHullV@Gu@physx@@@Gu@physx@@UEBA?AT__m128@@XZ 0000000180020920 f i GuMTD.obj
 0001:0001f920       ?getCenter@?$LocalConvex@VTriangleV@Gu@physx@@@Gu@physx@@UEBA?AT__m128@@XZ 0000000180020920 f i GuSweepTests.obj
 0001:0001f930       ?getEmptyManifold@MultiplePersistentContactManifold@Gu@physx@@QEAAPEAVSinglePersistentContactManifold@23@XZ 0000000180020930 f i GuMTD.obj
 0001:0001f950       ?getManifold@MultiplePersistentContactManifold@Gu@physx@@QEAAPEAVSinglePersistentContactManifold@23@I@Z 0000000180020950 f i GuMTD.obj
 0001:0001f970       ?getSweepMargin@?$LocalConvex@VCapsuleV@Gu@physx@@@Gu@physx@@UEBA?AT__m128@@XZ 0000000180020970 f i GuMTD.obj
 0001:0001f970       ?getSweepMargin@?$RelativeConvex@VCapsuleV@Gu@physx@@@Gu@physx@@UEBA?AT__m128@@XZ 0000000180020970 f i GuCCDSweepPrimitives.obj
 0001:0001f980       ?getSweepMargin@?$LocalConvex@VBoxV@Gu@physx@@@Gu@physx@@UEBA?AT__m128@@XZ 0000000180020980 f i GuSweepTests.obj
 0001:0001f980       ?getSweepMargin@?$LocalConvex@VConvexHullNoScaleV@Gu@physx@@@Gu@physx@@UEBA?AT__m128@@XZ 0000000180020980 f i GuPCMContactBoxConvex.obj
 0001:0001f980       ?getSweepMargin@?$LocalConvex@VConvexHullV@Gu@physx@@@Gu@physx@@UEBA?AT__m128@@XZ 0000000180020980 f i GuMTD.obj
 0001:0001f980       ?getSweepMargin@?$RelativeConvex@VBoxV@Gu@physx@@@Gu@physx@@UEBA?AT__m128@@XZ 0000000180020980 f i GuOverlapTests.obj
 0001:0001f980       ?getSweepMargin@?$RelativeConvex@VConvexHullNoScaleV@Gu@physx@@@Gu@physx@@UEBA?AT__m128@@XZ 0000000180020980 f i GuPCMContactConvexConvex.obj
 0001:0001f980       ?getSweepMargin@?$RelativeConvex@VConvexHullV@Gu@physx@@@Gu@physx@@UEBA?AT__m128@@XZ 0000000180020980 f i GuOverlapTests.obj
 0001:0001f9a0       ?hillClimbing@ConvexHullV@Gu@physx@@QEBAIAEBT__m128@@@Z 00000001800209a0 f i GuMTD.obj
 0001:0001fbd0       ?initialize@MultiplePersistentContactManifold@Gu@physx@@QEAAXXZ 0000000180020bd0 f i GuMTD.obj
 0001:0001fc30       ?invalidate@MultiplePersistentContactManifold@Gu@physx@@QEAAIAEBVPsTransformV@aos@shdfnd@3@AEBT__m128@@1@Z 0000000180020c30 f i GuMTD.obj
 0001:0001fcb0       ?invalidate@MultiplePersistentContactManifold@Gu@physx@@QEAAIAEBVPsTransformV@aos@shdfnd@3@AEBT__m128@@@Z 0000000180020cb0 f i GuMTD.obj
 0001:0001fd30       ?maxTransformPositionDelta@MultiplePersistentContactManifold@Gu@physx@@QEAA?AT__m128@@AEBT4@@Z 0000000180020d30 f i GuMTD.obj
 0001:0001fd70       ?maxTransformQuatDelta@MultiplePersistentContactManifold@Gu@physx@@QEAA?AT__m128@@AEBT4@@Z 0000000180020d70 f i GuMTD.obj
 0001:0001fdb0       ?pointConvexDistance@@YA_NAEAVPxVec3@physx@@0AEAMAEBV12@PEBVConvexMesh@Gu@2@AEBVPxMeshScale@2@AEBVPxTransform@2@@Z 0000000180020db0 f   GuMTD.obj
 0001:00020b60       ?reduceManifoldContactsInDifferentPatches@MultiplePersistentContactManifold@Gu@physx@@QEAAIPEAPEAUPCMContactPatch@23@IPEAVMeshPersistentContact@23@IAEBT__m128@@@Z 0000000180021b60 f i GuMTD.obj
 0001:00020cd0       ?refineContactPatchConnective@MultiplePersistentContactManifold@Gu@physx@@QEAAXPEAPEAUPCMContactPatch@23@IPEAVMeshPersistentContact@23@AEBT__m128@@@Z 0000000180021cd0 f i GuMTD.obj
 0001:00020dc0       ?refreshManifold@MultiplePersistentContactManifold@Gu@physx@@QEAAXAEBVPsMatTransformV@aos@shdfnd@3@AEBT__m128@@1@Z 0000000180021dc0 f i GuMTD.obj
 0001:00020ec0       ?reset@SeparatingAxes@Gu@physx@@QEAAXXZ 0000000180021ec0 f i GuMTD.obj
 0001:00020ed0       ?setRelativeTransform@MultiplePersistentContactManifold@Gu@physx@@QEAAXAEBVPsTransformV@aos@shdfnd@3@@Z 0000000180021ed0 f i GuMTD.obj
 0001:00020ee0       ?support@?$LocalConvex@VCapsuleV@Gu@physx@@@Gu@physx@@UEBA?AT__m128@@AEBT4@@Z 0000000180021ee0 f i GuMTD.obj
 0001:00020f40       ?support@?$LocalConvex@VCapsuleV@Gu@physx@@@Gu@physx@@UEBA?AT__m128@@AEBT4@AEAH@Z 0000000180021f40 f i GuMTD.obj
 0001:00020fb0       ?support@?$LocalConvex@VConvexHullV@Gu@physx@@@Gu@physx@@UEBA?AT__m128@@AEBT4@@Z 0000000180021fb0 f i GuMTD.obj
 0001:00021090       ?support@?$LocalConvex@VConvexHullV@Gu@physx@@@Gu@physx@@UEBA?AT__m128@@AEBT4@AEAH@Z 0000000180022090 f i GuMTD.obj
 0001:00021160       ?supportPoint@?$LocalConvex@VCapsuleV@Gu@physx@@@Gu@physx@@UEBA?AT__m128@@H@Z 0000000180022160 f i GuMTD.obj
 0001:00021190       ?supportPoint@?$LocalConvex@VConvexHullV@Gu@physx@@@Gu@physx@@UEBA?AT__m128@@H@Z 0000000180022190 f i GuMTD.obj
 0001:000211e0       ?supportVertexIndex@ConvexHullV@Gu@physx@@QEBAIAEBT__m128@@@Z 00000001800221e0 f i GuMTD.obj
 0001:00021460       ?toBuffer@MultiplePersistentContactManifold@Gu@physx@@QEAAXPEIAE@Z 0000000180022460 f i GuMTD.obj
 0001:00021540       ?supportPoint@?$RelativeConvex@VBoxV@Gu@physx@@@Gu@physx@@UEBA?AT__m128@@H@Z 0000000180022540 f i GuOverlapTests.obj
 0001:000215b0       ?support@?$RelativeConvex@VBoxV@Gu@physx@@@Gu@physx@@UEBA?AT__m128@@AEBT4@@Z 00000001800225b0 f i GuOverlapTests.obj
 0001:00021630       ?support@?$RelativeConvex@VBoxV@Gu@physx@@@Gu@physx@@UEBA?AT__m128@@AEBT4@AEAH@Z 0000000180022630 f i GuOverlapTests.obj
 0001:000216c0       ?getCenter@?$RelativeConvex@VBoxV@Gu@physx@@@Gu@physx@@UEBA?AT__m128@@XZ 00000001800226c0 f i GuOverlapTests.obj
 0001:000216c0       ?getCenter@?$RelativeConvex@VCapsuleV@Gu@physx@@@Gu@physx@@UEBA?AT__m128@@XZ 00000001800226c0 f i GuCCDSweepPrimitives.obj
 0001:000216c0       ?getCenter@?$RelativeConvex@VConvexHullNoScaleV@Gu@physx@@@Gu@physx@@UEBA?AT__m128@@XZ 00000001800226c0 f i GuPCMContactConvexConvex.obj
 0001:000216c0       ?getCenter@?$RelativeConvex@VConvexHullV@Gu@physx@@@Gu@physx@@UEBA?AT__m128@@XZ 00000001800226c0 f i GuOverlapTests.obj
 0001:000216c0       ?getCenter@?$RelativeConvex@VTriangleV@Gu@physx@@@Gu@physx@@UEBA?AT__m128@@XZ 00000001800226c0 f i GuCCDSweepPrimitives.obj
 0001:00021700       ??_E?$RelativeConvex@VBoxV@Gu@physx@@@Gu@physx@@UEAAPEAXI@Z 0000000180022700 f i GuOverlapTests.obj
 0001:00021700       ??_E?$RelativeConvex@VCapsuleV@Gu@physx@@@Gu@physx@@UEAAPEAXI@Z 0000000180022700 f i GuCCDSweepPrimitives.obj
 0001:00021700       ??_E?$RelativeConvex@VConvexHullNoScaleV@Gu@physx@@@Gu@physx@@UEAAPEAXI@Z 0000000180022700 f i GuPCMContactConvexConvex.obj
 0001:00021700       ??_E?$RelativeConvex@VConvexHullV@Gu@physx@@@Gu@physx@@UEAAPEAXI@Z 0000000180022700 f i GuOverlapTests.obj
 0001:00021700       ??_E?$RelativeConvex@VTriangleV@Gu@physx@@@Gu@physx@@UEAAPEAXI@Z 0000000180022700 f i GuCCDSweepPrimitives.obj
 0001:00021700       ??_G?$RelativeConvex@VBoxV@Gu@physx@@@Gu@physx@@UEAAPEAXI@Z 0000000180022700 f i GuOverlapTests.obj
 0001:00021700       ??_G?$RelativeConvex@VCapsuleV@Gu@physx@@@Gu@physx@@UEAAPEAXI@Z 0000000180022700 f i GuCCDSweepPrimitives.obj
 0001:00021700       ??_G?$RelativeConvex@VConvexHullNoScaleV@Gu@physx@@@Gu@physx@@UEAAPEAXI@Z 0000000180022700 f i GuPCMContactConvexConvex.obj
 0001:00021700       ??_G?$RelativeConvex@VConvexHullV@Gu@physx@@@Gu@physx@@UEAAPEAXI@Z 0000000180022700 f i GuOverlapTests.obj
 0001:00021700       ??_G?$RelativeConvex@VTriangleV@Gu@physx@@@Gu@physx@@UEAAPEAXI@Z 0000000180022700 f i GuCCDSweepPrimitives.obj
 0001:000238a0       ?supportPoint@?$RelativeConvex@VConvexHullV@Gu@physx@@@Gu@physx@@UEBA?AT__m128@@H@Z 00000001800248a0 f i GuOverlapTests.obj
 0001:00023920       ?support@?$RelativeConvex@VConvexHullV@Gu@physx@@@Gu@physx@@UEBA?AT__m128@@AEBT4@@Z 0000000180024920 f i GuOverlapTests.obj
 0001:00023a50       ?support@?$RelativeConvex@VConvexHullV@Gu@physx@@@Gu@physx@@UEBA?AT__m128@@AEBT4@AEAH@Z 0000000180024a50 f i GuOverlapTests.obj
 0001:00023bb0       ??$gjk@U?$RelativeConvex@VBoxV@Gu@physx@@@Gu@physx@@U?$LocalConvex@VConvexHullV@Gu@physx@@@23@@Gu@physx@@YA?AW4GjkStatus@01@AEBU?$RelativeConvex@VBoxV@Gu@physx@@@01@AEBU?$LocalConvex@VConvexHullV@Gu@physx@@@01@AEBT__m128@@2AEAT5@333@Z 0000000180024bb0 f i GuOverlapTests.obj
 0001:00024970       ??$gjk@U?$RelativeConvex@VConvexHullV@Gu@physx@@@Gu@physx@@U?$LocalConvex@VConvexHullV@Gu@physx@@@23@@Gu@physx@@YA?AW4GjkStatus@01@AEBU?$RelativeConvex@VConvexHullV@Gu@physx@@@01@AEBU?$LocalConvex@VConvexHullV@Gu@physx@@@01@AEBT__m128@@2AEAT5@333@Z 0000000180025970 f i GuOverlapTests.obj
 0001:00025800       ?ComputeCubemapNearestOffset@physx@@YAIAEBVPxVec3@1@I@Z 0000000180026800 f i GuOverlapTests.obj
 0001:00025900       ?getOverlapFuncTable@Gu@physx@@YAPEAY06Q6A_NAEBVPxGeometry@2@AEBVPxTransform@2@01PEAUTriggerCache@12@@ZXZ 0000000180026900 f   GuOverlapTests.obj
 0001:000273b0       ?registerHeightFields@Gu@physx@@YAXXZ 00000001800283b0 f   GuOverlapTests.obj
 0001:00027400       ?raycast_plane@@YAIAEBVPxGeometry@physx@@AEBVPxTransform@2@AEBVPxVec3@2@2MV?$PxFlags@W4Enum@PxHitFlag@physx@@G@2@IPEIAUPxRaycastHit@2@@Z 0000000180028400 f   GuRaycastTests.obj
 0001:00027570       ?raycast_convexMesh@@YAIAEBVPxGeometry@physx@@AEBVPxTransform@2@AEBVPxVec3@2@2MV?$PxFlags@W4Enum@PxHitFlag@physx@@G@2@IPEIAUPxRaycastHit@2@@Z 0000000180028570 f   GuRaycastTests.obj
 0001:000280a0       ?raycast_triangleMesh@@YAIAEBVPxGeometry@physx@@AEBVPxTransform@2@AEBVPxVec3@2@2MV?$PxFlags@W4Enum@PxHitFlag@physx@@G@2@IPEIAUPxRaycastHit@2@@Z 00000001800290a0 f   GuRaycastTests.obj
 0001:00028160       ?raycast_box@@YAIAEBVPxGeometry@physx@@AEBVPxTransform@2@AEBVPxVec3@2@2MV?$PxFlags@W4Enum@PxHitFlag@physx@@G@2@IPEIAUPxRaycastHit@2@@Z 0000000180029160 f   GuRaycastTests.obj
 0001:00028790       ?raycast_sphere@@YAIAEBVPxGeometry@physx@@AEBVPxTransform@2@AEBVPxVec3@2@2MV?$PxFlags@W4Enum@PxHitFlag@physx@@G@2@IPEIAUPxRaycastHit@2@@Z 0000000180029790 f   GuRaycastTests.obj
 0001:00028920       ?raycast_capsule@@YAIAEBVPxGeometry@physx@@AEBVPxTransform@2@AEBVPxVec3@2@2MV?$PxFlags@W4Enum@PxHitFlag@physx@@G@2@IPEIAUPxRaycastHit@2@@Z 0000000180029920 f   GuRaycastTests.obj
 0001:0002a0c0       ??Dphysx@@YA?AVMatrix34@Cm@0@AEBVPxMeshScale@0@AEBVPxTransform@0@@Z 000000018002b0c0 f i GuRaycastTests.obj
 0001:0002ad00       ?getRaycastFuncTable@Gu@physx@@YAAEAY06Q6AIAEBVPxGeometry@2@AEBVPxTransform@2@AEBVPxVec3@2@2MV?$PxFlags@W4Enum@PxHitFlag@physx@@G@2@IPEIAUPxRaycastHit@2@@ZXZ 000000018002bd00 f   GuRaycastTests.obj
 0001:0002ad10       ?raycast_heightField@@YAIAEBVPxGeometry@physx@@AEBVPxTransform@2@AEBVPxVec3@2@2MV?$PxFlags@W4Enum@PxHitFlag@physx@@G@2@IPEIAUPxRaycastHit@2@@Z 000000018002bd10 f   GuRaycastTests.obj
 0001:0002b450       ?registerHeightFields_Raycasts@@YAXXZ 000000018002c450 f   GuRaycastTests.obj
 0001:0002b460       ?ReadHeader@Gu@physx@@YA_NEEEEAEAIAEA_NAEAVPxInputStream@2@@Z 000000018002c460 f   GuSerialize.obj
 0001:0002b5c0       ?ReadIndices@Gu@physx@@YAXGIPEAGAEAVPxInputStream@2@_N@Z 000000018002c5c0 f   GuSerialize.obj
 0001:0002b710       ?StoreIndices@Gu@physx@@YAXGIPEBGAEAVPxOutputStream@2@_N@Z 000000018002c710 f   GuSerialize.obj
 0001:0002b800       ?StoreIndices@Gu@physx@@YAXIIPEBIAEAVPxOutputStream@2@_N@Z 000000018002c800 f   GuSerialize.obj
 0001:0002b990       ?WriteHeader@Gu@physx@@YA_NEEEEI_NAEAVPxOutputStream@2@@Z 000000018002c990 f   GuSerialize.obj
 0001:0002bac0       ?computeMaxIndex@physx@@YAGPEBGI@Z 000000018002cac0 f   GuSerialize.obj
 0001:0002baf0       ?computeMaxIndex@physx@@YAIPEBII@Z 000000018002caf0 f   GuSerialize.obj
 0001:0002bb20       ?readChunk@physx@@YAXAEAC000AEAVPxInputStream@1@@Z 000000018002cb20 f   GuSerialize.obj
 0001:0002bba0       ?readDword@physx@@YAI_NAEAVPxInputStream@1@@Z 000000018002cba0 f   GuSerialize.obj
 0001:0002bc00       ?readFloat@physx@@YAM_NAEAVPxInputStream@1@@Z 000000018002cc00 f   GuSerialize.obj
 0001:0002bc60       ?readFloatBuffer@physx@@YA_NPEAMI_NAEAVPxInputStream@1@@Z 000000018002cc60 f   GuSerialize.obj
 0001:0002bce0       ?readHeader@physx@@YA_NCCCCAEAIAEA_NAEAVPxInputStream@1@@Z 000000018002cce0 f   GuSerialize.obj
 0001:0002be30       ?readIndices@physx@@YAXIIPEAIAEAVPxInputStream@1@_N@Z 000000018002ce30 f   GuSerialize.obj
 0001:0002bf60       ?readWord@physx@@YAG_NAEAVPxInputStream@1@@Z 000000018002cf60 f   GuSerialize.obj
 0001:0002bfa0       ?readWordBuffer@physx@@YAXPEAGI_NAEAVPxInputStream@1@@Z 000000018002cfa0 f   GuSerialize.obj
 0001:0002c010       ?storeIndices@physx@@YAXIIPEBIAEAVPxOutputStream@1@_N@Z 000000018002d010 f   GuSerialize.obj
 0001:0002c130       ?writeDword@physx@@YAXI_NAEAVPxOutputStream@1@@Z 000000018002d130 f   GuSerialize.obj
 0001:0002c180       ?writeFloat@physx@@YAXM_NAEAVPxOutputStream@1@@Z 000000018002d180 f   GuSerialize.obj
 0001:0002c1d0       ?writeFloatBuffer@physx@@YAXPEBMI_NAEAVPxOutputStream@1@@Z 000000018002d1d0 f   GuSerialize.obj
 0001:0002c270       ?writeHeader@physx@@YA_NCCCCI_NAEAVPxOutputStream@1@@Z 000000018002d270 f   GuSerialize.obj
 0001:0002c3a0       ?writeWord@physx@@YAXG_NAEAVPxOutputStream@1@@Z 000000018002d3a0 f   GuSerialize.obj
 0001:0002c3e0       ?writeWordBuffer@physx@@YAXPEBGI_NAEAVPxOutputStream@1@@Z 000000018002d3e0 f   GuSerialize.obj
 0001:0002c460       ??Dphysx@@YA?AVMatrix34@Cm@0@AEBVPxTransform@0@AEBVPxMeshScale@0@@Z 000000018002d460 f i GuSweepMTD.obj
 0001:0002cab0       ??_E?$MeshHitCallback@UPxRaycastHit@physx@@@Gu@physx@@UEAAPEAXI@Z 000000018002dab0 f i GuSweepMTD.obj
 0001:0002cab0       ??_G?$MeshHitCallback@UPxRaycastHit@physx@@@Gu@physx@@UEAAPEAXI@Z 000000018002dab0 f i GuSweepMTD.obj
 0001:0002cae0       ??_EMeshMTDGenerationCallback@@UEAAPEAXI@Z 000000018002dae0 f i GuSweepMTD.obj
 0001:0002cae0       ??_GMeshMTDGenerationCallback@@UEAAPEAXI@Z 000000018002dae0 f i GuSweepMTD.obj
 0001:0002cb10       ??_EMidPhaseQueryLocalReport@@UEAAPEAXI@Z 000000018002db10 f i GuSweepMTD.obj
 0001:0002cb10       ??_GMidPhaseQueryLocalReport@@UEAAPEAXI@Z 000000018002db10 f i GuSweepMTD.obj
 0001:0002cb40       ?allocate@?$ReflectionAllocator@I@shdfnd@physx@@QEAAPEAX_KPEBDH@Z 000000018002db40 f i GuSweepMTD.obj
 0001:0002cbe0       ?computeBox_HeightFieldMTD@Gu@physx@@YA_NAEBVPxHeightFieldGeometry@2@AEBVPxTransform@2@AEBVBox@12@1M_NIAEAUPxSweepHit@2@@Z 000000018002dbe0 f   GuSweepMTD.obj
 0001:0002da40       ?computeBox_TriangleMeshMTD@Gu@physx@@YA_NAEBVPxTriangleMeshGeometry@2@AEBVPxTransform@2@AEBVBox@12@1M_NAEAUPxSweepHit@2@@Z 000000018002ea40 f   GuSweepMTD.obj
 0001:0002e690       ?computeCapsule_CapsuleMTD@Gu@physx@@YA_NAEBVCapsule@12@0AEAUPxSweepHit@2@@Z 000000018002f690 f   GuSweepMTD.obj
 0001:0002e8d0       ?computeCapsule_HeightFieldMTD@Gu@physx@@YA_NAEBVPxHeightFieldGeometry@2@AEBVPxTransform@2@AEAVCapsuleV@12@M_NIAEAUPxSweepHit@2@@Z 000000018002f8d0 f   GuSweepMTD.obj
 0001:0002f100       ?computeCapsule_TriangleMeshMTD@Gu@physx@@YA_NAEBVPxTriangleMeshGeometry@2@AEBVPxTransform@2@AEAVCapsuleV@12@M_NAEAUPxSweepHit@2@@Z 0000000180030100 f   GuSweepMTD.obj
 0001:0002f990       ?computeConvex_HeightFieldMTD@Gu@physx@@YA_NAEBVPxHeightFieldGeometry@2@AEBVPxTransform@2@AEBVPxConvexMeshGeometry@2@1M_NIAEAUPxSweepHit@2@@Z 0000000180030990 f   GuSweepMTD.obj
 0001:00030d20       ?computeConvex_TriangleMeshMTD@Gu@physx@@YA_NAEBVPxTriangleMeshGeometry@2@AEBVPxTransform@2@AEBVPxConvexMeshGeometry@2@1M_NAEAUPxSweepHit@2@@Z 0000000180031d20 f   GuSweepMTD.obj
 0001:00031f90       ?computePlane_BoxMTD@Gu@physx@@YA_NAEBVPxPlane@2@AEBVBox@12@AEAUPxSweepHit@2@@Z 0000000180032f90 f   GuSweepMTD.obj
 0001:00032230       ?computePlane_CapsuleMTD@Gu@physx@@YA_NAEBVPxPlane@2@AEBVCapsule@12@AEAUPxSweepHit@2@@Z 0000000180033230 f   GuSweepMTD.obj
 0001:00032340       ?computePlane_ConvexMTD@Gu@physx@@YA_NAEBVPxPlane@2@AEBVPxConvexMeshGeometry@2@AEBVPxTransform@2@AEAUPxSweepHit@2@@Z 0000000180033340 f   GuSweepMTD.obj
 0001:00032f00       ?computeSphere_CapsuleMTD@Gu@physx@@YA_NAEBVSphere@12@AEBVCapsule@12@AEAUPxSweepHit@2@@Z 0000000180033f00 f   GuSweepMTD.obj
 0001:000330b0       ?computeSphere_SphereMTD@Gu@physx@@YA_NAEBVSphere@12@0AEAUPxSweepHit@2@@Z 00000001800340b0 f   GuSweepMTD.obj
 0001:000331a0       ?getInverse@PxMat33@physx@@QEBA?BV12@XZ 00000001800341a0 f i GuSweepMTD.obj
 0001:000333f0       ?growAndPushBack@?$Array@IV?$ReflectionAllocator@I@shdfnd@physx@@@shdfnd@physx@@IEAAAEAIAEBI@Z 00000001800343f0 f i GuSweepMTD.obj
 0001:000334c0       ?init@FastVertex2ShapeScaling@Cm@physx@@QEAAXAEBVPxVec3@3@AEBVPxQuat@3@@Z 00000001800344c0 f i GuSweepMTD.obj
 0001:000338b0       ?onEvent@MidPhaseQueryLocalReport@@UEAA_NIPEAI@Z 00000001800348b0 f i GuSweepMTD.obj
 0001:00033920       ?processHit@MeshMTDGenerationCallback@@UEAA_NAEBUPxRaycastHit@physx@@AEBVPxVec3@3@11AEAMPEBI@Z 0000000180034920 f i GuSweepMTD.obj
 0001:00033970       ?recreate@?$Array@IV?$ReflectionAllocator@I@shdfnd@physx@@@shdfnd@physx@@IEAAXI@Z 0000000180034970 f i GuSweepMTD.obj
 0001:00033a30       ??$gjkPenetration@U?$LocalConvex@VCapsuleV@Gu@physx@@@Gu@physx@@U?$LocalConvex@VConvexHullV@Gu@physx@@@23@@Gu@physx@@YA?AW4GjkStatus@01@AEBU?$LocalConvex@VCapsuleV@Gu@physx@@@01@AEBU?$LocalConvex@VConvexHullV@Gu@physx@@@01@AEBT__m128@@2_NPEIAE4AEAEAEAUGjkOutput@01@@Z 0000000180034a30 f i GuSweepSharedTests.obj
 0001:00035040       ??$gjkPenetration@U?$RelativeConvex@VBoxV@Gu@physx@@@Gu@physx@@U?$LocalConvex@VConvexHullV@Gu@physx@@@23@@Gu@physx@@YA?AW4GjkStatus@01@AEBU?$RelativeConvex@VBoxV@Gu@physx@@@01@AEBU?$LocalConvex@VConvexHullV@Gu@physx@@@01@AEBT__m128@@2_NPEIAE4AEAEAEAUGjkOutput@01@@Z 0000000180036040 f i GuSweepSharedTests.obj
 0001:000366c0       ??$gjkPenetration@U?$RelativeConvex@VConvexHullV@Gu@physx@@@Gu@physx@@U?$LocalConvex@VConvexHullV@Gu@physx@@@23@@Gu@physx@@YA?AW4GjkStatus@01@AEBU?$RelativeConvex@VConvexHullV@Gu@physx@@@01@AEBU?$LocalConvex@VConvexHullV@Gu@physx@@@01@AEBT__m128@@2_NPEIAE4AEAEAEAUGjkOutput@01@@Z 00000001800376c0 f i GuSweepSharedTests.obj
 0001:00037d90       ??$gjkRaycast@U?$LocalConvex@VCapsuleV@Gu@physx@@@Gu@physx@@U?$LocalConvex@VConvexHullV@Gu@physx@@@23@@Gu@physx@@YA_NAEBU?$LocalConvex@VCapsuleV@Gu@physx@@@01@AEBU?$LocalConvex@VConvexHullV@Gu@physx@@@01@AEBT__m128@@222AEAT4@33M@Z 0000000180038d90 f i GuSweepSharedTests.obj
 0001:00038af0       ??$gjkRaycast@U?$RelativeConvex@VBoxV@Gu@physx@@@Gu@physx@@U?$LocalConvex@VConvexHullV@Gu@physx@@@23@@Gu@physx@@YA_NAEBU?$RelativeConvex@VBoxV@Gu@physx@@@01@AEBU?$LocalConvex@VConvexHullV@Gu@physx@@@01@AEBT__m128@@222AEAT4@33M@Z 0000000180039af0 f i GuSweepSharedTests.obj
 0001:000398f0       ??$gjkRaycast@U?$RelativeConvex@VConvexHullV@Gu@physx@@@Gu@physx@@U?$LocalConvex@VConvexHullV@Gu@physx@@@23@@Gu@physx@@YA_NAEBU?$RelativeConvex@VConvexHullV@Gu@physx@@@01@AEBU?$LocalConvex@VConvexHullV@Gu@physx@@@01@AEBT__m128@@222AEAT4@33M@Z 000000018003a8f0 f i GuSweepSharedTests.obj
 0001:0003a6e0       ??$gjkRaycastPenetration@U?$RelativeConvex@VConvexHullV@Gu@physx@@@Gu@physx@@U?$LocalConvex@VConvexHullV@Gu@physx@@@23@@Gu@physx@@YA_NAEBU?$RelativeConvex@VConvexHullV@Gu@physx@@@01@AEBU?$LocalConvex@VConvexHullV@Gu@physx@@@01@AEBT__m128@@222AEAT4@33M_N@Z 000000018003b6e0 f i GuSweepSharedTests.obj
 0001:0003b2b0       ?sweepBox_ConvexGeom@@YA_NAEBVPxGeometry@physx@@AEBVPxTransform@2@AEBVPxBoxGeometry@2@1AEBVBox@Gu@2@AEBVPxVec3@2@MAEAUPxSweepHit@2@V?$PxFlags@W4Enum@PxHitFlag@physx@@G@2@M@Z 000000018003c2b0 f   GuSweepSharedTests.obj
 0001:0003c0e0       ?sweepBox_PlaneGeom@@YA_NAEBVPxGeometry@physx@@AEBVPxTransform@2@AEBVPxBoxGeometry@2@1AEBVBox@Gu@2@AEBVPxVec3@2@MAEAUPxSweepHit@2@V?$PxFlags@W4Enum@PxHitFlag@physx@@G@2@M@Z 000000018003d0e0 f   GuSweepSharedTests.obj
 0001:0003c4c0       ?sweepCapsuleTriangles@Gu@physx@@YA_NIPEBVPxTriangle@2@_NAEBVPxCapsuleGeometry@2@AEBVPxTransform@2@AEBVPxVec3@2@MAEAUPxSweepHit@2@PEBIMV?$PxFlags@W4Enum@PxHitFlag@physx@@G@2@@Z 000000018003d4c0 f   GuSweepSharedTests.obj
 0001:0003c6b0       ?sweepCapsule_CapsuleGeom@@YA_NAEBVPxGeometry@physx@@AEBVPxTransform@2@AEBVPxCapsuleGeometry@2@1AEBVCapsule@Gu@2@AEBVPxVec3@2@MAEAUPxSweepHit@2@V?$PxFlags@W4Enum@PxHitFlag@physx@@G@2@M@Z 000000018003d6b0 f   GuSweepSharedTests.obj
 0001:0003c890       ?sweepCapsule_ConvexGeom@@YA_NAEBVPxGeometry@physx@@AEBVPxTransform@2@AEBVPxCapsuleGeometry@2@1AEBVCapsule@Gu@2@AEBVPxVec3@2@MAEAUPxSweepHit@2@V?$PxFlags@W4Enum@PxHitFlag@physx@@G@2@M@Z 000000018003d890 f   GuSweepSharedTests.obj
 0001:0003d5e0       ?sweepCapsule_PlaneGeom@@YA_NAEBVPxGeometry@physx@@AEBVPxTransform@2@AEBVPxCapsuleGeometry@2@1AEBVCapsule@Gu@2@AEBVPxVec3@2@MAEAUPxSweepHit@2@V?$PxFlags@W4Enum@PxHitFlag@physx@@G@2@M@Z 000000018003e5e0 f   GuSweepSharedTests.obj
 0001:0003d8c0       ?sweepCapsule_SphereGeom@@YA_NAEBVPxGeometry@physx@@AEBVPxTransform@2@AEBVPxCapsuleGeometry@2@1AEBVCapsule@Gu@2@AEBVPxVec3@2@MAEAUPxSweepHit@2@V?$PxFlags@W4Enum@PxHitFlag@physx@@G@2@M@Z 000000018003e8c0 f   GuSweepSharedTests.obj
 0001:0003da60       ?sweepConvex_BoxGeom@@YA_NAEBVPxGeometry@physx@@AEBVPxTransform@2@AEBVPxConvexMeshGeometry@2@1AEBVPxVec3@2@MAEAUPxSweepHit@2@V?$PxFlags@W4Enum@PxHitFlag@physx@@G@2@M@Z 000000018003ea60 f   GuSweepSharedTests.obj
 0001:0003dc70       ?sweepConvex_CapsuleGeom@@YA_NAEBVPxGeometry@physx@@AEBVPxTransform@2@AEBVPxConvexMeshGeometry@2@1AEBVPxVec3@2@MAEAUPxSweepHit@2@V?$PxFlags@W4Enum@PxHitFlag@physx@@G@2@M@Z 000000018003ec70 f   GuSweepSharedTests.obj
 0001:0003de90       ?sweepConvex_ConvexGeom@@YA_NAEBVPxGeometry@physx@@AEBVPxTransform@2@AEBVPxConvexMeshGeometry@2@1AEBVPxVec3@2@MAEAUPxSweepHit@2@V?$PxFlags@W4Enum@PxHitFlag@physx@@G@2@M@Z 000000018003ee90 f   GuSweepSharedTests.obj
 0001:0003ee90       ?sweepConvex_PlaneGeom@@YA_NAEBVPxGeometry@physx@@AEBVPxTransform@2@AEBVPxConvexMeshGeometry@2@1AEBVPxVec3@2@MAEAUPxSweepHit@2@V?$PxFlags@W4Enum@PxHitFlag@physx@@G@2@M@Z 000000018003fe90 f   GuSweepSharedTests.obj
 0001:0003f2d0       ?sweepConvex_SphereGeom@@YA_NAEBVPxGeometry@physx@@AEBVPxTransform@2@AEBVPxConvexMeshGeometry@2@1AEBVPxVec3@2@MAEAUPxSweepHit@2@V?$PxFlags@W4Enum@PxHitFlag@physx@@G@2@M@Z 00000001800402d0 f   GuSweepSharedTests.obj
 0001:0003ff00       ?sweepCapsule_BoxGeom@@YA_NAEBVPxGeometry@physx@@AEBVPxTransform@2@AEBVPxCapsuleGeometry@2@1AEBVCapsule@Gu@2@AEBVPxVec3@2@MAEAUPxSweepHit@2@V?$PxFlags@W4Enum@PxHitFlag@physx@@G@2@M@Z 0000000180040f00 f   GuSweepTests.obj
 0001:000407f0       ?sweepBox_SphereGeom@@YA_NAEBVPxGeometry@physx@@AEBVPxTransform@2@AEBVPxBoxGeometry@2@1AEBVBox@Gu@2@AEBVPxVec3@2@MAEAUPxSweepHit@2@V?$PxFlags@W4Enum@PxHitFlag@physx@@G@2@M@Z 00000001800417f0 f   GuSweepTests.obj
 0001:00040ec0       ?sweepBox_CapsuleGeom@@YA_NAEBVPxGeometry@physx@@AEBVPxTransform@2@AEBVPxBoxGeometry@2@1AEBVBox@Gu@2@AEBVPxVec3@2@MAEAUPxSweepHit@2@V?$PxFlags@W4Enum@PxHitFlag@physx@@G@2@M@Z 0000000180041ec0 f   GuSweepTests.obj
 0001:000417c0       ?sweepBox_BoxGeom@@YA_NAEBVPxGeometry@physx@@AEBVPxTransform@2@AEBVPxBoxGeometry@2@1AEBVBox@Gu@2@AEBVPxVec3@2@MAEAUPxSweepHit@2@V?$PxFlags@W4Enum@PxHitFlag@physx@@G@2@M@Z 00000001800427c0 f   GuSweepTests.obj
 0001:00042150       ??$gjkPenetration@U?$LocalConvex@VCapsuleV@Gu@physx@@@Gu@physx@@U?$LocalConvex@VBoxV@Gu@physx@@@23@@Gu@physx@@YA?AW4GjkStatus@01@AEBU?$LocalConvex@VCapsuleV@Gu@physx@@@01@AEBU?$LocalConvex@VBoxV@Gu@physx@@@01@AEBT__m128@@2_NPEIAE4AEAEAEAUGjkOutput@01@@Z 0000000180043150 f i GuSweepTests.obj
 0001:000436c0       ??$gjkPenetration@U?$RelativeConvex@VBoxV@Gu@physx@@@Gu@physx@@U?$LocalConvex@VBoxV@Gu@physx@@@23@@Gu@physx@@YA?AW4GjkStatus@01@AEBU?$RelativeConvex@VBoxV@Gu@physx@@@01@AEBU?$LocalConvex@VBoxV@Gu@physx@@@01@AEBT__m128@@2_NPEIAE4AEAEAEAUGjkOutput@01@@Z 00000001800446c0 f i GuSweepTests.obj
 0001:00044c80       ??$gjkRaycast@U?$LocalConvex@VCapsuleV@Gu@physx@@@Gu@physx@@U?$LocalConvex@VBoxV@Gu@physx@@@23@@Gu@physx@@YA_NAEBU?$LocalConvex@VCapsuleV@Gu@physx@@@01@AEBU?$LocalConvex@VBoxV@Gu@physx@@@01@AEBT__m128@@222AEAT4@33M@Z 0000000180045c80 f i GuSweepTests.obj
 0001:00045860       ??$gjkRaycast@U?$LocalConvex@VTriangleV@Gu@physx@@@Gu@physx@@U?$LocalConvex@VBoxV@Gu@physx@@@23@@Gu@physx@@YA_NAEBU?$LocalConvex@VTriangleV@Gu@physx@@@01@AEBU?$LocalConvex@VBoxV@Gu@physx@@@01@AEBT__m128@@222AEAT4@33M@Z 0000000180046860 f i GuSweepTests.obj
 0001:000464c0       ??$gjkRaycast@U?$RelativeConvex@VBoxV@Gu@physx@@@Gu@physx@@U?$LocalConvex@VBoxV@Gu@physx@@@23@@Gu@physx@@YA_NAEBU?$RelativeConvex@VBoxV@Gu@physx@@@01@AEBU?$LocalConvex@VBoxV@Gu@physx@@@01@AEBT__m128@@222AEAT4@33M@Z 00000001800474c0 f i GuSweepTests.obj
 0001:00047100       ?getSweepFuncTable@Gu@physx@@YAAEBUGeomSweepFuncs@12@XZ 0000000180048100 f   GuSweepTests.obj
 0001:00047110       ?getSweepMargin@?$LocalConvex@VTriangleV@Gu@physx@@@Gu@physx@@UEBA?AT__m128@@XZ 0000000180048110 f i GuSweepTests.obj
 0001:00047110       ?getSweepMargin@?$RelativeConvex@VTriangleV@Gu@physx@@@Gu@physx@@UEBA?AT__m128@@XZ 0000000180048110 f i GuCCDSweepPrimitives.obj
 0001:00047120       ?registerHeightFields_Sweeps@@YAXXZ 0000000180048120 f   GuSweepTests.obj
 0001:00047160       ?support@?$LocalConvex@VBoxV@Gu@physx@@@Gu@physx@@UEBA?AT__m128@@AEBT4@@Z 0000000180048160 f i GuSweepTests.obj
 0001:00047190       ?support@?$LocalConvex@VBoxV@Gu@physx@@@Gu@physx@@UEBA?AT__m128@@AEBT4@AEAH@Z 0000000180048190 f i GuSweepTests.obj
 0001:000471d0       ?support@?$LocalConvex@VTriangleV@Gu@physx@@@Gu@physx@@UEBA?AT__m128@@AEBT4@@Z 00000001800481d0 f i GuSweepTests.obj
 0001:00047260       ?support@?$LocalConvex@VTriangleV@Gu@physx@@@Gu@physx@@UEBA?AT__m128@@AEBT4@AEAH@Z 0000000180048260 f i GuSweepTests.obj
 0001:00047340       ?supportPoint@?$LocalConvex@VBoxV@Gu@physx@@@Gu@physx@@UEBA?AT__m128@@H@Z 0000000180048340 f i GuSweepTests.obj
 0001:00047380       ?supportPoint@?$LocalConvex@VTriangleV@Gu@physx@@@Gu@physx@@UEBA?AT__m128@@H@Z 0000000180048380 f i GuSweepTests.obj
 0001:000473a0       ?sweepBoxTriangles@Gu@physx@@YA_NIPEBVPxTriangle@2@_NAEBVPxBoxGeometry@2@AEBVPxTransform@2@AEBVPxVec3@2@MAEAUPxSweepHit@2@PEBIMV?$PxFlags@W4Enum@PxHitFlag@physx@@G@2@@Z 00000001800483a0 f   GuSweepTests.obj
 0001:00047e30       ??$?_UV?$ReflectionAllocator@VAABBTreeBuildNode@Gu@physx@@@shdfnd@physx@@@UserAllocated@shdfnd@physx@@SAPEAX_KV?$ReflectionAllocator@VAABBTreeBuildNode@Gu@physx@@@12@PEBDH@Z 0000000180048e30 f i GuAABBTreeBuild.obj
 0001:00047ed0       ??$copy@V?$ReflectionAllocator@USlab@NodeAllocator@Gu@physx@@@shdfnd@physx@@@?$Array@USlab@NodeAllocator@Gu@physx@@V?$ReflectionAllocator@USlab@NodeAllocator@Gu@physx@@@shdfnd@4@@shdfnd@physx@@IEAAXAEBV012@@Z 0000000180048ed0 f i GuAABBTreeBuild.obj
 0001:00047f50       ??0AABBTreeBuildNode@Gu@physx@@QEAA@AEBV012@@Z 0000000180048f50 f i GuAABBTreeBuild.obj
 0001:00047f50       ??4AABBTreeBuildNode@Gu@physx@@QEAAAEAV012@AEBV012@@Z 0000000180048f50 f i GuAABBTreeBuild.obj
 0001:00047f90       ??0AABBTreeBuildParams@Gu@physx@@QEAA@IIPEBVPxBounds3@2@@Z 0000000180048f90 f i GuAABBTreeBuild.obj
 0001:00047fb0       ??0BuildStats@Gu@physx@@QEAA@XZ 0000000180048fb0 f i GuAABBTreeBuild.obj
 0001:00047fc0       ??0NodeAllocator@Gu@physx@@QEAA@AEBV012@@Z 0000000180048fc0 f i GuAABBTreeBuild.obj
 0001:00048000       ??0NodeAllocator@Gu@physx@@QEAA@XZ 0000000180049000 f   GuAABBTreeBuild.obj
 0001:00048020       ??1AABBTreeBuildParams@Gu@physx@@QEAA@XZ 0000000180049020 f i GuAABBTreeBuild.obj
 0001:00048020       ?reset@AABBTreeBuildParams@Gu@physx@@QEAAXXZ 0000000180049020 f i GuAABBTreeBuild.obj
 0001:00048080       ??1NodeAllocator@Gu@physx@@QEAA@XZ 0000000180049080 f   GuAABBTreeBuild.obj
 0001:000480d0       ??4AABBTreeBuildParams@Gu@physx@@QEAAAEAV012@AEBV012@@Z 00000001800490d0 f i GuAABBTreeBuild.obj
 0001:000480f0       ??4BuildStats@Gu@physx@@QEAAAEAU012@$$QEAU012@@Z 00000001800490f0 f i GuAABBTreeBuild.obj
 0001:00048100       ??4BuildStats@Gu@physx@@QEAAAEAU012@AEBU012@@Z 0000000180049100 f i GuAABBTreeBuild.obj
 0001:00048110       ??4NodeAllocator@Gu@physx@@QEAAAEAV012@AEBV012@@Z 0000000180049110 f i GuAABBTreeBuild.obj
 0001:000481c0       ??_FAABBTreeBuildParams@Gu@physx@@QEAAXXZ 00000001800491c0 f i GuAABBTreeBuild.obj
 0001:000481e0       ?_buildHierarchy@AABBTreeBuildNode@Gu@physx@@QEAAXAEAVAABBTreeBuildParams@23@AEAUBuildStats@23@AEAVNodeAllocator@23@QEAI@Z 00000001800491e0 f   GuAABBTreeBuild.obj
 0001:00048270       ?allocate@?$Array@USlab@NodeAllocator@Gu@physx@@V?$ReflectionAllocator@USlab@NodeAllocator@Gu@physx@@@shdfnd@4@@shdfnd@physx@@IEAAPEAUSlab@NodeAllocator@Gu@3@I@Z 0000000180049270 f i GuAABBTreeBuild.obj
 0001:00048310       ?buildAABBTree@Gu@physx@@YA_NAEAVAABBTreeBuildParams@12@AEAVNodeAllocator@12@AEAUBuildStats@12@AEAPEAI@Z 0000000180049310 f   GuAABBTreeBuild.obj
 0001:00048370       ?getBiNode@NodeAllocator@Gu@physx@@QEAAPEAVAABBTreeBuildNode@23@XZ 0000000180049370 f   GuAABBTreeBuild.obj
 0001:000484a0       ?getNbPrimitives@AABBTreeBuildNode@Gu@physx@@QEBAIXZ 00000001800494a0 f i GuAABBTreeBuild.obj
 0001:000484a0       ?getNbRuntimePrimitives@AABBTreeBuildNode@Gu@physx@@QEBAIXZ 00000001800494a0 f i GuAABBTreeBuild.obj
 0001:000484a0       ?getNbTriangles@TriangleMesh@Gu@physx@@UEBAIXZ 00000001800494a0 f i GuTriangleMesh.obj
 0001:000484b0       ?getNeg@AABBTreeBuildNode@Gu@physx@@QEBAPEBV123@XZ 00000001800494b0 f i GuAABBTreeBuild.obj
 0001:000484d0       ?getPrimitives@AABBTreeBuildNode@Gu@physx@@QEAAPEAIPEAI@Z 00000001800494d0 f i GuAABBTreeBuild.obj
 0001:000484d0       ?getPrimitives@AABBTreeBuildNode@Gu@physx@@QEBAPEBIPEBI@Z 00000001800494d0 f i GuAABBTreeBuild.obj
 0001:000484e0       ?growAndPushBack@?$Array@USlab@NodeAllocator@Gu@physx@@V?$ReflectionAllocator@USlab@NodeAllocator@Gu@physx@@@shdfnd@4@@shdfnd@physx@@IEAAAEAUSlab@NodeAllocator@Gu@3@AEBU4563@@Z 00000001800494e0 f i GuAABBTreeBuild.obj
 0001:000485a0       ?increaseCount@BuildStats@Gu@physx@@QEAAXI@Z 00000001800495a0 f i GuAABBTreeBuild.obj
 0001:000485b0       ?init@NodeAllocator@Gu@physx@@QEAAXII@Z 00000001800495b0 f   GuAABBTreeBuild.obj
 0001:000486c0       ?initAABBTreeBuild@Gu@physx@@YA_NAEAVAABBTreeBuildParams@12@AEAVNodeAllocator@12@AEAUBuildStats@12@AEAPEAI@Z 00000001800496c0 f   GuAABBTreeBuild.obj
 0001:000488d0       ?isLeaf@AABBTreeBuildNode@Gu@physx@@QEBA_NXZ 00000001800498d0 f i GuAABBTreeBuild.obj
 0001:000488e0       ?recreate@?$Array@USlab@NodeAllocator@Gu@physx@@V?$ReflectionAllocator@USlab@NodeAllocator@Gu@physx@@@shdfnd@4@@shdfnd@physx@@IEAAXI@Z 00000001800498e0 f i GuAABBTreeBuild.obj
 0001:00048990       ?release@NodeAllocator@Gu@physx@@QEAAXXZ 0000000180049990 f   GuAABBTreeBuild.obj
 0001:00048a40       ?reset@BuildStats@Gu@physx@@QEAAXXZ 0000000180049a40 f i GuAABBTreeBuild.obj
 0001:00048a50       ?resize@?$Array@USlab@NodeAllocator@Gu@physx@@V?$ReflectionAllocator@USlab@NodeAllocator@Gu@physx@@@shdfnd@4@@shdfnd@physx@@QEAAXIAEBUSlab@NodeAllocator@Gu@3@@Z 0000000180049a50 f i GuAABBTreeBuild.obj
 0001:00048ad0       ?setCount@BuildStats@Gu@physx@@QEAAXI@Z 0000000180049ad0 f i GuAABBTreeBuild.obj
 0001:00048ae0       ?setNbRunTimePrimitives@AABBTreeBuildNode@Gu@physx@@QEAAXI@Z 0000000180049ae0 f i GuAABBTreeBuild.obj
 0001:00048c50       ?subdivide@AABBTreeBuildNode@Gu@physx@@QEAAXAEBVAABBTreeBuildParams@23@AEAUBuildStats@23@AEAVNodeAllocator@23@QEAI@Z 0000000180049c50 f   GuAABBTreeBuild.obj
 0001:00048e30       ??0BVHStructure@Gu@physx@@QEAA@PEAVGuMeshFactory@2@@Z 0000000180049e30 f   GuBVHStructure.obj
 0001:00048e90       ??0BVHStructure@Gu@physx@@QEAA@PEAVGuMeshFactory@2@AEAUBVHStructureData@12@@Z 0000000180049e90 f   GuBVHStructure.obj
 0001:00048f00       ??R?$AABBTreeOverlap@UAABBAABBTest@Gu@physx@@UBVHTree@23@UBVHNode@23@IUBVHCallback@23@@Gu@physx@@QEAA_NPEBIPEBVPxBounds3@2@AEBUBVHTree@12@AEBUAABBAABBTest@12@AEAUBVHCallback@12@@Z 0000000180049f00 f i GuBVHStructure.obj
 0001:00049190       ??R?$AABBTreeRaycast@$00UBVHTree@Gu@physx@@UBVHNode@23@IUBVHCallback@23@@Gu@physx@@QEAA_NPEBIPEBVPxBounds3@2@AEBUBVHTree@12@AEBVPxVec3@2@3AEAM3AEAUBVHCallback@12@@Z 000000018004a190 f i GuBVHStructure.obj
 0001:00049850       ??R?$AABBTreeRaycast@$0A@UBVHTree@Gu@physx@@UBVHNode@23@IUBVHCallback@23@@Gu@physx@@QEAA_NPEBIPEBVPxBounds3@2@AEBUBVHTree@12@AEBVPxVec3@2@3AEAM3AEAUBVHCallback@12@@Z 000000018004a850 f i GuBVHStructure.obj
 0001:00049e98       ??_EBVHStructure@Gu@physx@@WBA@EAAPEAXI@Z 000000018004ae98 f i GuBVHStructure.obj
 0001:00049eb0       ??_EBVHStructure@Gu@physx@@UEAAPEAXI@Z 000000018004aeb0 f i GuBVHStructure.obj
 0001:00049eb0       ??_GBVHStructure@Gu@physx@@UEAAPEAXI@Z 000000018004aeb0 f i GuBVHStructure.obj
 0001:00049f10       ??_ERefCountable@Cm@physx@@UEAAPEAXI@Z 000000018004af10 f i GuBVHStructure.obj
 0001:00049f10       ??_GRefCountable@Cm@physx@@UEAAPEAXI@Z 000000018004af10 f i GuBVHStructure.obj
 0001:00049f40       ?allocate@?$Array@PEBUBVHNode@Gu@physx@@V?$InlineAllocator@$0IAA@V?$ReflectionAllocator@PEBUBVHNode@Gu@physx@@@shdfnd@physx@@@shdfnd@3@@shdfnd@physx@@IEAAPEAPEBUBVHNode@Gu@3@I@Z 000000018004af40 f i GuBVHStructure.obj
 0001:0004a000       ?createVolumes@BVHStructure@Gu@physx@@AEBAXXZ 000000018004b000 f   GuBVHStructure.obj
 0001:0004a090       ?getBounds@BVHStructure@Gu@physx@@UEBAPEBVPxBounds3@3@XZ 000000018004b090 f i GuBVHStructure.obj
 0001:0004a090       ?getTriangles@TriangleMesh@Gu@physx@@UEBAPEBXXZ 000000018004b090 f i GuTriangleMesh.obj
 0001:0004a0a0       ?getConcreteTypeName@PxBVHStructure@physx@@UEBAPEBDXZ 000000018004b0a0 f i GuBVHStructure.obj
 0001:0004a0b0       ?getNbBounds@BVHStructure@Gu@physx@@UEBAIXZ 000000018004b0b0 f i GuBVHStructure.obj
 0001:0004a0c0       ?isKindOf@PxBVHStructure@physx@@MEBA_NPEBD@Z 000000018004b0c0 f i GuBVHStructure.obj
 0001:0004a110       ?load@BVHStructure@Gu@physx@@QEAA_NAEAVPxInputStream@3@@Z 000000018004b110 f   GuBVHStructure.obj
 0001:0004a2d0       ?onRefCountZero@BVHStructure@Gu@physx@@UEAAXXZ 000000018004b2d0 f   GuBVHStructure.obj
 0001:0004a400       ?onRefCountZero@RefCountable@Cm@physx@@UEAAXXZ 000000018004b400 f i GuBVHStructure.obj
 0001:0004a420       ?overlap@BVHStructure@Gu@physx@@UEBAIAEBVPxBounds3@3@IPEIAI@Z 000000018004b420 f   GuBVHStructure.obj
 0001:0004a560       ?raycast@BVHStructure@Gu@physx@@UEBAIAEBVPxVec3@3@0MIPEIAI@Z 000000018004b560 f   GuBVHStructure.obj
 0001:0004a630       ?recreate@?$Array@PEBUBVHNode@Gu@physx@@V?$InlineAllocator@$0IAA@V?$ReflectionAllocator@PEBUBVHNode@Gu@physx@@@shdfnd@physx@@@shdfnd@3@@shdfnd@physx@@IEAAXI@Z 000000018004b630 f i GuBVHStructure.obj
 0001:0004a6e0       ?release@BVHStructure@Gu@physx@@UEAAXXZ 000000018004b6e0 f   GuBVHStructure.obj
 0001:0004a6e0       ?release@ConvexMesh@Gu@physx@@UEAAXXZ 000000018004b6e0 f   GuConvexMesh.obj
 0001:0004a6e0       ?release@HeightField@Gu@physx@@UEAAXXZ 000000018004b6e0 f   GuHeightField.obj
 0001:0004a6e0       ?release@TriangleMesh@Gu@physx@@UEAAXXZ 000000018004b6e0 f   GuTriangleMesh.obj
 0001:0004a710       ?resizeUninitialized@?$Array@PEBUBVHNode@Gu@physx@@V?$InlineAllocator@$0IAA@V?$ReflectionAllocator@PEBUBVHNode@Gu@physx@@@shdfnd@physx@@@shdfnd@3@@shdfnd@physx@@QEAAXI@Z 000000018004b710 f i GuBVHStructure.obj
 0001:0004a760       ?sweep@BVHStructure@Gu@physx@@UEBAIAEBVPxBounds3@3@AEBVPxVec3@3@MIPEIAI@Z 000000018004b760 f   GuBVHStructure.obj
 0001:0004a950       ?SweepAnyShapeHeightfield@Gu@physx@@YAMAEBUCCDShape@12@0AEBVPxTransform@2@111MAEAVPxVec3@2@2MAEAIM@Z 000000018004b950 f   GuCCDSweepConvexMesh.obj
 0001:0004ba90       ?SweepAnyShapeMesh@Gu@physx@@YAMAEBUCCDShape@12@0AEBVPxTransform@2@111MAEAVPxVec3@2@2MAEAIM@Z 000000018004ca90 f   GuCCDSweepConvexMesh.obj
 0001:0004d180       ?SweepEstimateAnyShapeHeightfield@Gu@physx@@YAMAEBUCCDShape@12@0AEBVPxTransform@2@111MM@Z 000000018004e180 f   GuCCDSweepConvexMesh.obj
 0001:0004d9e0       ?SweepEstimateAnyShapeMesh@Gu@physx@@YAMAEBUCCDShape@12@0AEBVPxTransform@2@111MM@Z 000000018004e9e0 f   GuCCDSweepConvexMesh.obj
 0001:0004e820       ?growAndPushBack@?$Array@IV?$InlineAllocator@$0BAA@V?$ReflectionAllocator@I@shdfnd@physx@@@shdfnd@physx@@@shdfnd@physx@@IEAAAEAIAEBI@Z 000000018004f820 f i GuCCDSweepConvexMesh.obj
 0001:0004ef50       ?recreate@?$Array@IV?$InlineAllocator@$0BAA@V?$ReflectionAllocator@I@shdfnd@physx@@@shdfnd@physx@@@shdfnd@physx@@IEAAXI@Z 000000018004ff50 f i GuCCDSweepConvexMesh.obj
 0001:0004f030       ?resize@?$Array@IV?$InlineAllocator@$0BAA@V?$ReflectionAllocator@I@shdfnd@physx@@@shdfnd@physx@@@shdfnd@physx@@QEAAXIAEBI@Z 0000000180050030 f i GuCCDSweepConvexMesh.obj
 0001:0004f100       ?resize@?$Array@IV?$ReflectionAllocator@I@shdfnd@physx@@@shdfnd@physx@@QEAAXIAEBI@Z 0000000180050100 f i GuCCDSweepConvexMesh.obj
 0001:0004f1c0       ?transformBoxOrthonormal@physx@@YA?AVBox@Gu@1@AEBV231@AEBVPxTransform@1@@Z 00000001800501c0 f i GuCCDSweepConvexMesh.obj
 0001:0004f650       ?UnimplementedSweep@Gu@physx@@YAMAEBUCCDShape@12@0AEBVPxTransform@2@111MAEAVPxVec3@2@2MAEAIM@Z 0000000180050650 f   GuCCDSweepPrimitives.obj
 0001:0004f660       ??$SweepGeomGeom@VCapsuleV@Gu@physx@@V123@@Gu@physx@@YAMAEBUCCDShape@01@0AEBVPxTransform@1@111MAEAVPxVec3@1@2MAEAIM@Z 0000000180050660 f i GuCCDSweepPrimitives.obj
 0001:0004f790       ??$SweepGeomGeom@VCapsuleV@Gu@physx@@VBoxV@23@@Gu@physx@@YAMAEBUCCDShape@01@0AEBVPxTransform@1@111MAEAVPxVec3@1@2MAEAIM@Z 0000000180050790 f i GuCCDSweepPrimitives.obj
 0001:0004f8f0       ??$SweepGeomGeom@VCapsuleV@Gu@physx@@VConvexHullV@23@@Gu@physx@@YAMAEBUCCDShape@01@0AEBVPxTransform@1@111MAEAVPxVec3@1@2MAEAIM@Z 00000001800508f0 f i GuCCDSweepPrimitives.obj
 0001:0004fe50       ??$SweepGeomGeom@VBoxV@Gu@physx@@V123@@Gu@physx@@YAMAEBUCCDShape@01@0AEBVPxTransform@1@111MAEAVPxVec3@1@2MAEAIM@Z 0000000180050e50 f i GuCCDSweepPrimitives.obj
 0001:0004ffe0       ??$SweepGeomGeom@VBoxV@Gu@physx@@VConvexHullV@23@@Gu@physx@@YAMAEBUCCDShape@01@0AEBVPxTransform@1@111MAEAVPxVec3@1@2MAEAIM@Z 0000000180050fe0 f i GuCCDSweepPrimitives.obj
 0001:00050560       ??$SweepGeomGeom@VConvexHullV@Gu@physx@@V123@@Gu@physx@@YAMAEBUCCDShape@01@0AEBVPxTransform@1@111MAEAVPxVec3@1@2MAEAIM@Z 0000000180051560 f i GuCCDSweepPrimitives.obj
 0001:00050e80       ?UnimplementedTriangleSweep@Gu@physx@@YAMAEBVGeometryUnion@12@0AEBVPxTransform@2@111MAEAVPxVec3@2@2AEBVFastVertex2ShapeScaling@Cm@2@AEAVTriangleV@12@M@Z 0000000180051e80 f   GuCCDSweepPrimitives.obj
 0001:00050e90       ??$SweepGeomTriangles@VCapsuleV@Gu@physx@@@Gu@physx@@YAMAEBVGeometryUnion@01@0AEBVPxTransform@1@111MAEAVPxVec3@1@2AEBVFastVertex2ShapeScaling@Cm@1@AEAVTriangleV@01@M@Z 0000000180051e90 f i GuCCDSweepPrimitives.obj
 0001:00050f60       ??$SweepGeomTriangles@VBoxV@Gu@physx@@@Gu@physx@@YAMAEBVGeometryUnion@01@0AEBVPxTransform@1@111MAEAVPxVec3@1@2AEBVFastVertex2ShapeScaling@Cm@1@AEAVTriangleV@01@M@Z 0000000180051f60 f i GuCCDSweepPrimitives.obj
 0001:00051060       ??$SweepGeomTriangles@VConvexHullV@Gu@physx@@@Gu@physx@@YAMAEBVGeometryUnion@01@0AEBVPxTransform@1@111MAEAVPxVec3@1@2AEBVFastVertex2ShapeScaling@Cm@1@AEAVTriangleV@01@M@Z 0000000180052060 f i GuCCDSweepPrimitives.obj
 0001:00051570       ?supportPoint@?$RelativeConvex@VCapsuleV@Gu@physx@@@Gu@physx@@UEBA?AT__m128@@H@Z 0000000180052570 f i GuCCDSweepPrimitives.obj
 0001:000515d0       ?support@?$RelativeConvex@VCapsuleV@Gu@physx@@@Gu@physx@@UEBA?AT__m128@@AEBT4@@Z 00000001800525d0 f i GuCCDSweepPrimitives.obj
 0001:00051680       ?support@?$RelativeConvex@VCapsuleV@Gu@physx@@@Gu@physx@@UEBA?AT__m128@@AEBT4@AEAH@Z 0000000180052680 f i GuCCDSweepPrimitives.obj
 0001:00051740       ?supportPoint@?$RelativeConvex@VTriangleV@Gu@physx@@@Gu@physx@@UEBA?AT__m128@@H@Z 0000000180052740 f i GuCCDSweepPrimitives.obj
 0001:00051790       ?support@?$RelativeConvex@VTriangleV@Gu@physx@@@Gu@physx@@UEBA?AT__m128@@AEBT4@@Z 0000000180052790 f i GuCCDSweepPrimitives.obj
 0001:00051890       ?support@?$RelativeConvex@VTriangleV@Gu@physx@@@Gu@physx@@UEBA?AT__m128@@AEBT4@AEAH@Z 0000000180052890 f i GuCCDSweepPrimitives.obj
 0001:000557b0       ??$gjkPenetration@U?$RelativeConvex@VCapsuleV@Gu@physx@@@Gu@physx@@U?$LocalConvex@VBoxV@Gu@physx@@@23@@Gu@physx@@YA?AW4GjkStatus@01@AEBU?$RelativeConvex@VCapsuleV@Gu@physx@@@01@AEBU?$LocalConvex@VBoxV@Gu@physx@@@01@AEBT__m128@@2_NPEIAE4AEAEAEAUGjkOutput@01@@Z 00000001800567b0 f i GuCCDSweepPrimitives.obj
 0001:00056da0       ??$gjkPenetration@U?$RelativeConvex@VCapsuleV@Gu@physx@@@Gu@physx@@U?$LocalConvex@VCapsuleV@Gu@physx@@@23@@Gu@physx@@YA?AW4GjkStatus@01@AEBU?$RelativeConvex@VCapsuleV@Gu@physx@@@01@AEBU?$LocalConvex@VCapsuleV@Gu@physx@@@01@AEBT__m128@@2_NPEIAE4AEAEAEAUGjkOutput@01@@Z 0000000180057da0 f i GuCCDSweepPrimitives.obj
 0001:000583c0       ??$gjkPenetration@U?$RelativeConvex@VCapsuleV@Gu@physx@@@Gu@physx@@U?$LocalConvex@VConvexHullV@Gu@physx@@@23@@Gu@physx@@YA?AW4GjkStatus@01@AEBU?$RelativeConvex@VCapsuleV@Gu@physx@@@01@AEBU?$LocalConvex@VConvexHullV@Gu@physx@@@01@AEBT__m128@@2_NPEIAE4AEAEAEAUGjkOutput@01@@Z 00000001800593c0 f i GuCCDSweepPrimitives.obj
 0001:00059a50       ??$gjkPenetration@U?$RelativeConvex@VTriangleV@Gu@physx@@@Gu@physx@@U?$LocalConvex@VBoxV@Gu@physx@@@23@@Gu@physx@@YA?AW4GjkStatus@01@AEBU?$RelativeConvex@VTriangleV@Gu@physx@@@01@AEBU?$LocalConvex@VBoxV@Gu@physx@@@01@AEBT__m128@@2_NPEIAE4AEAEAEAUGjkOutput@01@@Z 000000018005aa50 f i GuCCDSweepPrimitives.obj
 0001:0005b080       ??$gjkPenetration@U?$RelativeConvex@VTriangleV@Gu@physx@@@Gu@physx@@U?$LocalConvex@VCapsuleV@Gu@physx@@@23@@Gu@physx@@YA?AW4GjkStatus@01@AEBU?$RelativeConvex@VTriangleV@Gu@physx@@@01@AEBU?$LocalConvex@VCapsuleV@Gu@physx@@@01@AEBT__m128@@2_NPEIAE4AEAEAEAUGjkOutput@01@@Z 000000018005c080 f i GuCCDSweepPrimitives.obj
 0001:0005c680       ??$gjkPenetration@U?$RelativeConvex@VTriangleV@Gu@physx@@@Gu@physx@@U?$LocalConvex@VConvexHullV@Gu@physx@@@23@@Gu@physx@@YA?AW4GjkStatus@01@AEBU?$RelativeConvex@VTriangleV@Gu@physx@@@01@AEBU?$LocalConvex@VConvexHullV@Gu@physx@@@01@AEBT__m128@@2_NPEIAE4AEAEAEAUGjkOutput@01@@Z 000000018005d680 f i GuCCDSweepPrimitives.obj
 0001:0005dd10       ??$gjkRaycast@U?$RelativeConvex@VCapsuleV@Gu@physx@@@Gu@physx@@U?$LocalConvex@VBoxV@Gu@physx@@@23@@Gu@physx@@YA_NAEBU?$RelativeConvex@VCapsuleV@Gu@physx@@@01@AEBU?$LocalConvex@VBoxV@Gu@physx@@@01@AEBT__m128@@222AEAT4@33M@Z 000000018005ed10 f i GuCCDSweepPrimitives.obj
 0001:0005e9a0       ??$gjkRaycast@U?$RelativeConvex@VCapsuleV@Gu@physx@@@Gu@physx@@U?$LocalConvex@VCapsuleV@Gu@physx@@@23@@Gu@physx@@YA_NAEBU?$RelativeConvex@VCapsuleV@Gu@physx@@@01@AEBU?$LocalConvex@VCapsuleV@Gu@physx@@@01@AEBT__m128@@222AEAT4@33M@Z 000000018005f9a0 f i GuCCDSweepPrimitives.obj
 0001:0005f6b0       ??$gjkRaycast@U?$RelativeConvex@VCapsuleV@Gu@physx@@@Gu@physx@@U?$LocalConvex@VConvexHullV@Gu@physx@@@23@@Gu@physx@@YA_NAEBU?$RelativeConvex@VCapsuleV@Gu@physx@@@01@AEBU?$LocalConvex@VConvexHullV@Gu@physx@@@01@AEBT__m128@@222AEAT4@33M@Z 00000001800606b0 f i GuCCDSweepPrimitives.obj
 0001:000604e0       ??$gjkRaycast@U?$RelativeConvex@VTriangleV@Gu@physx@@@Gu@physx@@U?$LocalConvex@VBoxV@Gu@physx@@@23@@Gu@physx@@YA_NAEBU?$RelativeConvex@VTriangleV@Gu@physx@@@01@AEBU?$LocalConvex@VBoxV@Gu@physx@@@01@AEBT__m128@@222AEAT4@33M@Z 00000001800614e0 f i GuCCDSweepPrimitives.obj
 0001:00061230       ??$gjkRaycast@U?$RelativeConvex@VTriangleV@Gu@physx@@@Gu@physx@@U?$LocalConvex@VCapsuleV@Gu@physx@@@23@@Gu@physx@@YA_NAEBU?$RelativeConvex@VTriangleV@Gu@physx@@@01@AEBU?$LocalConvex@VCapsuleV@Gu@physx@@@01@AEBT__m128@@222AEAT4@33M@Z 0000000180062230 f i GuCCDSweepPrimitives.obj
 0001:00061fc0       ??$gjkRaycast@U?$RelativeConvex@VTriangleV@Gu@physx@@@Gu@physx@@U?$LocalConvex@VConvexHullV@Gu@physx@@@23@@Gu@physx@@YA_NAEBU?$RelativeConvex@VTriangleV@Gu@physx@@@01@AEBU?$LocalConvex@VConvexHullV@Gu@physx@@@01@AEBT__m128@@222AEAT4@33M@Z 0000000180062fc0 f i GuCCDSweepPrimitives.obj
 0001:00062e90       ?SweepShapeShape@Gu@physx@@YAMAEBUCCDShape@12@0AEBVPxTransform@2@111MAEAVPxVec3@2@2MAEAIM@Z 0000000180063e90 f   GuCCDSweepPrimitives.obj
 0001:00062eb0       ?SweepShapeTriangle@Gu@physx@@YAMAEBVGeometryUnion@12@0AEBVPxTransform@2@111MAEAVPxVec3@2@2AEBVFastVertex2ShapeScaling@Cm@2@AEAVTriangleV@12@M@Z 0000000180063eb0 f   GuCCDSweepPrimitives.obj
 0001:00062ed0       ?barycentricCoordinates@Gu@physx@@YAXAEBT__m128@@000AEAT3@1@Z 0000000180063ed0 f   GuBarycentricCoordinates.obj
 0001:00063020       ?barycentricCoordinates@Gu@physx@@YAXAEBT__m128@@00AEAT3@@Z 0000000180064020 f   GuBarycentricCoordinates.obj
 0001:00063090       ?addAxis@SeparatingAxes@Gu@physx@@QEAA_NAEBVPxVec3@3@@Z 0000000180064090 f   GuSeparatingAxes.obj
 0001:00063150       ?contactBoxBox@Gu@physx@@YA_NAEBVGeometryUnion@12@0AEBVPxTransform@2@1AEBUNarrowPhaseParams@12@AEAUCache@12@AEAVContactBuffer@12@PEAVRenderOutput@Cm@2@@Z 0000000180064150 f   GuContactBoxBox.obj
 0001:00067050       ?contactCapsuleBox@Gu@physx@@YA_NAEBVGeometryUnion@12@0AEBVPxTransform@2@1AEBUNarrowPhaseParams@12@AEAUCache@12@AEAVContactBuffer@12@PEAVRenderOutput@Cm@2@@Z 0000000180068050 f   GuContactCapsuleBox.obj
 0001:00067860       ?contactCapsuleCapsule@Gu@physx@@YA_NAEBVGeometryUnion@12@0AEBVPxTransform@2@1AEBUNarrowPhaseParams@12@AEAUCache@12@AEAVContactBuffer@12@PEAVRenderOutput@Cm@2@@Z 0000000180068860 f   GuContactCapsuleCapsule.obj
 0001:0006a280       ?contactCapsuleConvex@Gu@physx@@YA_NAEBVGeometryUnion@12@0AEBVPxTransform@2@1AEBUNarrowPhaseParams@12@AEAUCache@12@AEAVContactBuffer@12@PEAVRenderOutput@Cm@2@@Z 000000018006b280 f   GuContactCapsuleConvex.obj
 0001:0006c790       ?contactCapsuleHeightfield@Gu@physx@@YA_NAEBVGeometryUnion@12@0AEBVPxTransform@2@1AEBUNarrowPhaseParams@12@AEAUCache@12@AEAVContactBuffer@12@PEAVRenderOutput@Cm@2@@Z 000000018006d790 f   GuContactCapsuleMesh.obj
 0001:0006cdc0       ?contactCapsuleMesh@Gu@physx@@YA_NAEBVGeometryUnion@12@0AEBVPxTransform@2@1AEBUNarrowPhaseParams@12@AEAUCache@12@AEAVContactBuffer@12@PEAVRenderOutput@Cm@2@@Z 000000018006ddc0 f   GuContactCapsuleMesh.obj
 0001:0006dee0       ?transformFast@PxBounds3@physx@@SA?AV12@AEBVPxTransform@2@AEBV12@@Z 000000018006eee0 f i GuContactCapsuleMesh.obj
 0001:0006e2c0       ?transformQueryBounds@FastVertex2ShapeScaling@Cm@physx@@QEBAXAEAVPxVec3@3@0AEAVPxMat33@3@@Z 000000018006f2c0 f i GuContactCapsuleMesh.obj
 0001:00072880       ?contactBoxConvex@Gu@physx@@YA_NAEBVGeometryUnion@12@0AEBVPxTransform@2@1AEBUNarrowPhaseParams@12@AEAUCache@12@AEAVContactBuffer@12@PEAVRenderOutput@Cm@2@@Z 0000000180073880 f   GuContactConvexConvex.obj
 0001:00072a10       ?contactConvexConvex@Gu@physx@@YA_NAEBVGeometryUnion@12@0AEBVPxTransform@2@1AEBUNarrowPhaseParams@12@AEAUCache@12@AEAVContactBuffer@12@PEAVRenderOutput@Cm@2@@Z 0000000180073a10 f   GuContactConvexConvex.obj
 0001:00072e60       ?transformPlaneToShapeSpace@FastVertex2ShapeScaling@Cm@physx@@QEBAXAEBVPxVec3@3@MAEAV43@AEAM@Z 0000000180073e60 f i GuContactConvexConvex.obj
 0001:00072f50       ??0?$CacheMap@UCachedEdge@Gu@physx@@$0IA@@Gu@physx@@QEAA@XZ 0000000180073f50 f i GuContactConvexMesh.obj
 0001:00073010       ??0?$CacheMap@UCachedVertex@Gu@physx@@$0IA@@Gu@physx@@QEAA@XZ 0000000180074010 f i GuContactConvexMesh.obj
 0001:000735e0       ??_EConvexMeshContactGenerationCallback@@UEAAPEAXI@Z 00000001800745e0 f i GuContactConvexMesh.obj
 0001:000735e0       ??_GConvexMeshContactGenerationCallback@@UEAAPEAXI@Z 00000001800745e0 f i GuContactConvexMesh.obj
 0001:00073640       ?addData@?$CacheMap@UCachedEdge@Gu@physx@@$0IA@@Gu@physx@@QEAA_NAEBUCachedEdge@23@@Z 0000000180074640 f i GuContactConvexMesh.obj
 0001:00073720       ?addData@?$CacheMap@UCachedVertex@Gu@physx@@$0IA@@Gu@physx@@QEAA_NAEBUCachedVertex@23@@Z 0000000180074720 f i GuContactConvexMesh.obj
 0001:00073af0       ?contactBoxHeightfield@Gu@physx@@YA_NAEBVGeometryUnion@12@0AEBVPxTransform@2@1AEBUNarrowPhaseParams@12@AEAUCache@12@AEAVContactBuffer@12@PEAVRenderOutput@Cm@2@@Z 0000000180074af0 f   GuContactConvexMesh.obj
 0001:00073c50       ?contactBoxMesh@Gu@physx@@YA_NAEBVGeometryUnion@12@0AEBVPxTransform@2@1AEBUNarrowPhaseParams@12@AEAUCache@12@AEAVContactBuffer@12@PEAVRenderOutput@Cm@2@@Z 0000000180074c50 f   GuContactConvexMesh.obj
 0001:00073e00       ?contactConvexHeightfield@Gu@physx@@YA_NAEBVGeometryUnion@12@0AEBVPxTransform@2@1AEBUNarrowPhaseParams@12@AEAUCache@12@AEAVContactBuffer@12@PEAVRenderOutput@Cm@2@@Z 0000000180074e00 f   GuContactConvexMesh.obj
 0001:00073f30       ?contactConvexMesh@Gu@physx@@YA_NAEBVGeometryUnion@12@0AEBVPxTransform@2@1AEBUNarrowPhaseParams@12@AEAUCache@12@AEAVContactBuffer@12@PEAVRenderOutput@Cm@2@@Z 0000000180074f30 f   GuContactConvexMesh.obj
 0001:00077610       ?processHit@ConvexMeshContactGenerationCallback@@UEAA_NAEBUPxRaycastHit@physx@@AEBVPxVec3@3@11AEAMPEBI@Z 0000000180078610 f i GuContactConvexMesh.obj
 0001:00077f40       ?recreate@?$Array@IV?$InlineAllocator@$0BBAA@V?$ReflectionAllocator@I@shdfnd@physx@@@shdfnd@physx@@@shdfnd@physx@@IEAAXI@Z 0000000180078f40 f i GuContactConvexMesh.obj
 0001:00078fd0       ?contactPlaneBox@Gu@physx@@YA_NAEBVGeometryUnion@12@0AEBVPxTransform@2@1AEBUNarrowPhaseParams@12@AEAUCache@12@AEAVContactBuffer@12@PEAVRenderOutput@Cm@2@@Z 0000000180079fd0 f   GuContactPlaneBox.obj
 0001:00079c00       ?contactPlaneCapsule@Gu@physx@@YA_NAEBVGeometryUnion@12@0AEBVPxTransform@2@1AEBUNarrowPhaseParams@12@AEAUCache@12@AEAVContactBuffer@12@PEAVRenderOutput@Cm@2@@Z 000000018007ac00 f   GuContactPlaneCapsule.obj
 0001:0007a220       ?contactPlaneConvex@Gu@physx@@YA_NAEBVGeometryUnion@12@0AEBVPxTransform@2@1AEBUNarrowPhaseParams@12@AEAUCache@12@AEAVContactBuffer@12@PEAVRenderOutput@Cm@2@@Z 000000018007b220 f   GuContactPlaneConvex.obj
 0001:0007bf70       ?contactPolygonPolygonExt@Gu@physx@@YA_NIPEBVPxVec3@2@PEBEAEBVMatrix34@Cm@2@AEBVPxPlane@2@AEBVPxMat33@2@I01234AEBV32@22IIAEAVContactBuffer@12@_N5M@Z 000000018007cf70 f   GuContactPolygonPolygon.obj
 0001:0007d6d0       ?findRotationMatrixFromZ@Gu@physx@@YA?AVPxMat33@2@AEBVPxVec3@2@@Z 000000018007e6d0 f   GuContactPolygonPolygon.obj
 0001:0007e0f0       ?contactSphereBox@Gu@physx@@YA_NAEBVGeometryUnion@12@0AEBVPxTransform@2@1AEBUNarrowPhaseParams@12@AEAUCache@12@AEAVContactBuffer@12@PEAVRenderOutput@Cm@2@@Z 000000018007f0f0 f   GuContactSphereBox.obj
 0001:0007e6b0       ?contactSphereCapsule@Gu@physx@@YA_NAEBVGeometryUnion@12@0AEBVPxTransform@2@1AEBUNarrowPhaseParams@12@AEAUCache@12@AEAVContactBuffer@12@PEAVRenderOutput@Cm@2@@Z 000000018007f6b0 f   GuContactSphereCapsule.obj
 0001:0007f480       ?contactSphereHeightfield@Gu@physx@@YA_NAEBVGeometryUnion@12@0AEBVPxTransform@2@1AEBUNarrowPhaseParams@12@AEAUCache@12@AEAVContactBuffer@12@PEAVRenderOutput@Cm@2@@Z 0000000180080480 f   GuContactSphereMesh.obj
 0001:0007fe70       ?contactSphereMesh@Gu@physx@@YA_NAEBVGeometryUnion@12@0AEBVPxTransform@2@1AEBUNarrowPhaseParams@12@AEAUCache@12@AEAVContactBuffer@12@PEAVRenderOutput@Cm@2@@Z 0000000180080e70 f   GuContactSphereMesh.obj
 0001:00082170       ?contactSpherePlane@Gu@physx@@YA_NAEBVGeometryUnion@12@0AEBVPxTransform@2@1AEBUNarrowPhaseParams@12@AEAUCache@12@AEAVContactBuffer@12@PEAVRenderOutput@Cm@2@@Z 0000000180083170 f   GuContactSpherePlane.obj
 0001:00082370       ?contactSphereSphere@Gu@physx@@YA_NAEBVGeometryUnion@12@0AEBVPxTransform@2@1AEBUNarrowPhaseParams@12@AEAUCache@12@AEAVContactBuffer@12@PEAVRenderOutput@Cm@2@@Z 0000000180083370 f   GuContactSphereSphere.obj
 0001:000824e0       ?selectNormal@Gu@physx@@YA_NEMM@Z 00000001800834e0 f   GuFeatureCode.obj
 0001:00082560       ??0BigConvexData@physx@@QEAA@XZ 0000000180083560 f   GuBigConvexData.obj
 0001:00082580       ??1BigConvexData@physx@@QEAA@XZ 0000000180083580 f   GuBigConvexData.obj
 0001:00082600       ?ComputeNearestOffset@BigConvexData@physx@@QEBAIAEBVPxVec3@2@@Z 0000000180083600 f   GuBigConvexData.obj
 0001:00082700       ?ComputeOffset@BigConvexData@physx@@QEBAIAEBVPxVec3@2@@Z 0000000180083700 f   GuBigConvexData.obj
 0001:00082800       ?CreateOffsets@BigConvexData@physx@@IEAAXXZ 0000000180083800 f   GuBigConvexData.obj
 0001:00082850       ?Load@BigConvexData@physx@@QEAA_NAEAVPxInputStream@2@@Z 0000000180083850 f   GuBigConvexData.obj
 0001:00082960       ?VLoad@BigConvexData@physx@@IEAA_NAEAVPxInputStream@2@@Z 0000000180083960 f   GuBigConvexData.obj
 0001:00082b00       ?exportExtraData@BigConvexData@physx@@QEAAXAEAVPxSerializationContext@2@@Z 0000000180083b00 f   GuBigConvexData.obj
 0001:00082b80       ?importExtraData@BigConvexData@physx@@QEAAXAEAVPxDeserializationContext@2@@Z 0000000180083b80 f   GuBigConvexData.obj
 0001:00082bf0       ?findUniqueConvexEdges@Gu@physx@@YAIIPEIAUConvexEdge@12@IPEIBUHullPolygonData@12@PEIBE@Z 0000000180083bf0 f   GuConvexHelper.obj
 0001:00082d30       ?getConvexData@Gu@physx@@YA_NAEBVGeometryUnion@12@AEAVFastVertex2ShapeScaling@Cm@2@AEAVPxBounds3@2@AEAUPolygonalData@12@@Z 0000000180083d30 f   GuConvexHelper.obj
 0001:00082fb0       ?getScaledConvex@Gu@physx@@YAXAEAPEAVPxVec3@2@AEAPEAEPEAV32@PEAE_NPEBV32@PEBEIAEBVFastVertex2ShapeScaling@Cm@2@@Z 0000000180083fb0 f   GuConvexHelper.obj
 0001:000830e0       ??0ConvexMesh@Gu@physx@@QEAA@AEAVGuMeshFactory@2@AEAUConvexHullInitData@12@@Z 00000001800840e0 f   GuConvexMesh.obj
 0001:00083210       ??0ConvexMesh@Gu@physx@@QEAA@XZ 0000000180084210 f   GuConvexMesh.obj
 0001:000832b0       ??1ConvexMesh@Gu@physx@@UEAA@XZ 00000001800842b0 f   GuConvexMesh.obj
 0001:00083350       ??_EConvexMesh@Gu@physx@@UEAAPEAXI@Z 0000000180084350 f i GuConvexMesh.obj
 0001:00083460       ??_EConvexMesh@Gu@physx@@WBA@EAAPEAXI@Z 0000000180084460 f i GuConvexMesh.obj
 0001:00083470       ??_EPxConvexMesh@physx@@MEAAPEAXI@Z 0000000180084470 f i GuConvexMesh.obj
 0001:00083470       ??_EPxHeightField@physx@@MEAAPEAXI@Z 0000000180084470 f i GuHeightField.obj
 0001:00083500       ?acquireReference@ConvexMesh@Gu@physx@@UEAAXXZ 0000000180084500 f   GuConvexMesh.obj
 0001:00083500       ?acquireReference@HeightField@Gu@physx@@UEAAXXZ 0000000180084500 f   GuHeightField.obj
 0001:00083500       ?acquireReference@TriangleMesh@Gu@physx@@UEAAXXZ 0000000180084500 f   GuTriangleMesh.obj
 0001:000839d0       ?createObject@ConvexMesh@Gu@physx@@SAPEAV123@AEAPEAEAEAVPxDeserializationContext@3@@Z 00000001800849d0 f   GuConvexMesh.obj
 0001:00083a20       ?exportExtraData@ConvexMesh@Gu@physx@@UEAAXAEAVPxSerializationContext@3@@Z 0000000180084a20 f   GuConvexMesh.obj
 0001:00083af0       ?getLocalBounds@ConvexMesh@Gu@physx@@UEBA?AVPxBounds3@3@XZ 0000000180084af0 f   GuConvexMesh.obj
 0001:00083b80       ?getMassInformation@ConvexMesh@Gu@physx@@UEBAXAEAMAEAVPxMat33@3@AEAVPxVec3@3@@Z 0000000180084b80 f   GuConvexMesh.obj
 0001:00083bf0       ?getPolygonData@ConvexMesh@Gu@physx@@UEBA_NIAEAUPxHullPolygon@3@@Z 0000000180084bf0 f   GuConvexMesh.obj
 0001:00083c40       ?getReferenceCount@ConvexMesh@Gu@physx@@UEBAIXZ 0000000180084c40 f   GuConvexMesh.obj
 0001:00083c40       ?getReferenceCount@HeightField@Gu@physx@@UEBAIXZ 0000000180084c40 f   GuHeightField.obj
 0001:00083c40       ?getReferenceCount@TriangleMesh@Gu@physx@@UEBAIXZ 0000000180084c40 f   GuTriangleMesh.obj
 0001:00083c40       ?raw_length@pairNode@@UEBAHXZ 0000000180084c40 f   libvcruntime:undname.obj
 0001:00083c50       ?importExtraData@ConvexMesh@Gu@physx@@QEAAXAEAVPxDeserializationContext@3@@Z 0000000180084c50 f   GuConvexMesh.obj
 0001:00083d10       ?isGpuCompatible@ConvexMesh@Gu@physx@@UEBA_NXZ 0000000180084d10 f   GuConvexMesh.obj
 0001:00083d30       ?load@ConvexMesh@Gu@physx@@QEAA_NAEAVPxInputStream@3@@Z 0000000180084d30 f   GuConvexMesh.obj
 0001:00083fe0       ?onRefCountZero@ConvexMesh@Gu@physx@@UEAAXXZ 0000000180084fe0 f   GuConvexMesh.obj
 0001:000840d0       ??Dphysx@@YA?AVMatrix34@Cm@0@AEBVPxMeshScale@0@AEBV120@@Z 00000001800850d0 f i GuConvexUtilsInternal.obj
 0001:000846a0       ?computeHullOBB@Gu@physx@@YAXAEAVBox@12@AEBVPxBounds3@2@MAEBVMatrix34@Cm@2@2AEBVFastVertex2ShapeScaling@62@_N@Z 00000001800856a0 f   GuConvexUtilsInternal.obj
 0001:00084b50       ?computeOBBAroundConvex@Gu@physx@@YAXAEAVBox@12@AEBVPxConvexMeshGeometry@2@PEBVPxConvexMesh@2@AEBVPxTransform@2@@Z 0000000180085b50 f   GuConvexUtilsInternal.obj
 0001:00085460       ?computeVertexSpaceOBB@Gu@physx@@YAXAEAVBox@12@AEBV312@AEBVPxTransform@2@AEBVPxMeshScale@2@@Z 0000000180086460 f   GuConvexUtilsInternal.obj
 0001:00085810       ?transform@physx@@YA?AVBox@Gu@1@AEBVMatrix34@Cm@1@AEBV231@@Z 0000000180086810 f i GuConvexUtilsInternal.obj
 0001:00085a60       ?localSearch@physx@@YAXAEAIAEBVPxVec3@1@PEBV21@PEBUBigConvexRawData@Gu@1@@Z 0000000180086a60 f   GuHillClimbing.obj
 0001:00085b90       ??0PCMPolygonalBox@Gu@physx@@QEAA@AEBVPxVec3@2@@Z 0000000180086b90 f   GuPCMShapeConvex.obj
 0001:00085b90       ??0PolygonalBox@Gu@physx@@QEAA@AEBVPxVec3@2@@Z 0000000180086b90 f   GuShapeConvex.obj
 0001:00087050       ?getPolygonalData@PolygonalBox@Gu@physx@@QEBAXPEIAUPolygonalData@23@@Z 0000000180088050 f   GuShapeConvex.obj
 0001:000870b0       ?getPolygonalData_Convex@Gu@physx@@YAXPEIAUPolygonalData@12@PEIBUConvexHullData@12@AEBVFastVertex2ShapeScaling@Cm@2@@Z 00000001800880b0 f   GuShapeConvex.obj
 0001:00087210       ?distancePointBoxSquared@Gu@physx@@YAMAEBVPxVec3@2@00AEBVPxMat33@2@PEAV32@@Z 0000000180088210 f   GuDistancePointBox.obj
 0001:00087360       ?closestPtPointTriangle@Gu@physx@@YA?AVPxVec3@2@AEBV32@000AEAM1@Z 0000000180088360 f   GuDistancePointTriangle.obj
 0001:00087880       ?distancePointTriangleSquared@Gu@physx@@YA?AT__m128@@AEBT3@000AEAT3@11@Z 0000000180088880 f   GuDistancePointTriangle.obj
 0001:000885d0       ?distanceSegmentBoxSquared@Gu@physx@@YAMAEBVPxVec3@2@000AEBVPxMat33@2@PEAMPEAV32@@Z 00000001800895d0 f   GuDistanceSegmentBox.obj
 0001:00088e50       ?distanceSegmentSegmentSquared4@Gu@physx@@YA?AT__m128@@AEBT3@000000000AEAT3@1@Z 0000000180089e50 f   GuDistanceSegmentSegment.obj
 0001:00089160       ?distanceSegmentSegmentSquared@Gu@physx@@YA?AT__m128@@AEBT3@000AEAT3@1@Z 000000018008a160 f   GuDistanceSegmentSegment.obj
 0001:00089320       ?distanceSegmentSegmentSquared@Gu@physx@@YAMAEBVPxVec3@2@000PEAM1@Z 000000018008a320 f   GuDistanceSegmentSegment.obj
 0001:000895b0       ?distanceSegmentSegmentSquared@Gu@physx@@YAMAEBVPxVec3@2@0M00MPEAM1@Z 000000018008a5b0 f   GuDistanceSegmentSegment.obj
 0001:00089cf0       ?distanceSegmentTriangleSquared@Gu@physx@@YA?AT__m128@@AEBT3@0000AEAT3@1@Z 000000018008acf0 f   GuDistanceSegmentTriangle.obj
 0001:0008a430       ?distanceSegmentTriangleSquared@Gu@physx@@YAMAEBVPxVec3@2@0000PEAM11@Z 000000018008b430 f   GuDistanceSegmentTriangle.obj
 0001:0008baa0       ?PenetrationDepth@EPA@Gu@physx@@QEAA?AW4GjkStatus@23@AEBUGjkConvex@23@0PEIBT__m128@@1E_NT6@AEAUGjkOutput@23@@Z 000000018008caa0 f   GuEPA.obj
 0001:0008c5e0       ?addFacet@EPA@Gu@physx@@QEAAPEAVFacet@23@IIIAEBT__m128@@@Z 000000018008d5e0 f   GuEPA.obj
 0001:0008ca20       ?epaPenetration@Gu@physx@@YA?AW4GjkStatus@12@AEBUGjkConvex@12@0PEIBE1E_NT__m128@@AEAUGjkOutput@12@@Z 000000018008da20 f   GuEPA.obj
 0001:0008cb90       ?silhouette@Facet@Gu@physx@@QEAAXAEBT__m128@@PEIBT4@1AEAVEdgeBuffer@23@AEAV?$InlineDeferredIDPool@$0EA@@Cm@3@@Z 000000018008db90 f   GuEPA.obj
 0001:0008cd60       ?closestPtPointTetrahedron@Gu@physx@@YA?AT__m128@@PEIAT3@00AEAI@Z 000000018008dd60 f   GuGJKSimplex.obj
 0001:0008d4e0       ?closestPtPointTetrahedron@Gu@physx@@YA?AT__m128@@PEIAT3@00PEIAH1AEAI@Z 000000018008e4e0 f   GuGJKSimplex.obj
 0001:0008ef90       ??$gjk@UGjkConvex@Gu@physx@@U123@@Gu@physx@@YA?AW4GjkStatus@01@AEBUGjkConvex@01@0AEBT__m128@@1AEAT4@222@Z 000000018008ff90 f i GuGJKTest.obj
 0001:0008fbb0       ??$gjkPenetration@UGjkConvex@Gu@physx@@U123@@Gu@physx@@YA?AW4GjkStatus@01@AEBUGjkConvex@01@0AEBT__m128@@1_NPEIAE3AEAEAEAUGjkOutput@01@@Z 0000000180090bb0 f i GuGJKTest.obj
 0001:000910a0       ?testEpaPenetration@Gu@physx@@YA?AW4GjkStatus@12@AEAUGjkConvex@12@0PEBE1EAEAUGjkOutput@12@@Z 00000001800920a0 f   GuGJKTest.obj
 0001:000910f0       ?testGjk@Gu@physx@@YA?AW4GjkStatus@12@AEAUGjkConvex@12@0AEBT__m128@@1AEAT5@222@Z 00000001800920f0 f   GuGJKTest.obj
 0001:00091100       ?testGjkPenetration@Gu@physx@@YA?AW4GjkStatus@12@AEAUGjkConvex@12@0AEBT__m128@@1PEAE2AEAEAEAUGjkOutput@12@@Z 0000000180092100 f   GuGJKTest.obj
 0001:00091150       ??0HeightField@Gu@physx@@QEAA@AEAVGuMeshFactory@2@AEAUHeightFieldData@12@@Z 0000000180092150 f   GuHeightField.obj
 0001:00091220       ??0HeightField@Gu@physx@@QEAA@PEAVGuMeshFactory@2@@Z 0000000180092220 f   GuHeightField.obj
 0001:00091290       ??1HeightField@Gu@physx@@UEAA@XZ 0000000180092290 f   GuHeightField.obj
 0001:00091300       ??_EHeightField@Gu@physx@@UEAAPEAXI@Z 0000000180092300 f i GuHeightField.obj
 0001:000914b8       ??_EHeightField@Gu@physx@@WBA@EAAPEAXI@Z 00000001800924b8 f i GuHeightField.obj
 0001:000914d0       ?computeCellCoordinates@HeightField@Gu@physx@@QEBAIMMAEAM0@Z 00000001800924d0 f   GuHeightField.obj
 0001:000915d0       ?createObject@HeightField@Gu@physx@@SAPEAV123@AEAPEAEAEAVPxDeserializationContext@3@@Z 00000001800925d0 f   GuHeightField.obj
 0001:00091630       ?exportExtraData@HeightField@Gu@physx@@UEAAXAEAVPxSerializationContext@3@@Z 0000000180092630 f   GuHeightField.obj
 0001:00091680       ?getEdgeTriangleIndices@physx@@YAIAEBVHeightField@Gu@1@AEBUEdgeData@1@PEIAI@Z 0000000180092680 f   GuHeightField.obj
 0001:000917b0       ?getVertexEdgeIndices@physx@@YAIAEBVHeightField@Gu@1@IIIQEAUEdgeData@1@@Z 00000001800927b0 f   GuHeightField.obj
 0001:00091990       ?importExtraData@HeightField@Gu@physx@@QEAAXAEAVPxDeserializationContext@3@@Z 0000000180092990 f   GuHeightField.obj
 0001:000919b0       ?isCollisionVertexPreca@HeightField@Gu@physx@@QEBA_NIIIG@Z 00000001800929b0 f   GuHeightField.obj
 0001:00091a50       ?isConvexVertex@HeightField@Gu@physx@@QEBA_NIII@Z 0000000180092a50 f i GuHeightField.obj
 0001:00091b20       ?isSolidVertex@HeightField@Gu@physx@@QEBA_NIIIGAEA_N@Z 0000000180092b20 f   GuHeightField.obj
 0001:00091ca0       ?load@HeightField@Gu@physx@@QEAA_NAEAVPxInputStream@3@@Z 0000000180092ca0 f   GuHeightField.obj
 0001:00092020       ?loadFromDesc@HeightField@Gu@physx@@QEAA_NAEBVPxHeightFieldDesc@3@@Z 0000000180093020 f   GuHeightField.obj
 0001:00092260       ?modifySamples@HeightField@Gu@physx@@UEAA_NHHAEBVPxHeightFieldDesc@3@_N@Z 0000000180093260 f   GuHeightField.obj
 0001:000925d0       ?onRefCountZero@HeightField@Gu@physx@@UEAAXXZ 00000001800935d0 f   GuHeightField.obj
 0001:00092660       ?parseTrianglesForCollisionVertices@HeightField@Gu@physx@@QEAAXG@Z 0000000180093660 f   GuHeightField.obj
 0001:00092b60       ?releaseMemory@HeightField@Gu@physx@@QEAAXXZ 0000000180093b60 f   GuHeightField.obj
 0001:00092bb0       ?resizeAndClear@?$BitMapBase@VNonTrackingAllocator@shdfnd@physx@@@Cm@physx@@QEAAXI@Z 0000000180093bb0 f i GuHeightField.obj
 0001:00092c60       ?saveCells@HeightField@Gu@physx@@UEBAIPEAXI@Z 0000000180093c60 f   GuHeightField.obj
 0001:00092ca0       ?computeLocalBounds@HeightFieldUtil@Gu@physx@@QEBAXAEAVPxBounds3@3@@Z 0000000180093ca0 f   GuHeightFieldUtil.obj
 0001:00092d70       ?findClosestPointOnEdge@HeightFieldUtil@Gu@physx@@QEBAMIIIIAEBVPxVec3@3@AEAV43@@Z 0000000180093d70 f   GuHeightFieldUtil.obj
 0001:00093070       ?findClosestPointsOnCell@HeightFieldUtil@Gu@physx@@QEBAIIIVPxVec3@3@PEIAV43@PEIAI_N33@Z 0000000180094070 f   GuHeightFieldUtil.obj
 0001:00093800       ?findProjectionOnTriangle@HeightFieldUtil@Gu@physx@@QEBA_NIIIAEBVPxVec3@3@AEAV43@@Z 0000000180094800 f   GuHeightFieldUtil.obj
 0001:00093ab0       ?getEdge@HeightFieldUtil@Gu@physx@@QEBAXIIIIAEAVPxVec3@3@0@Z 0000000180094ab0 f   GuHeightFieldUtil.obj
 0001:00093cf0       ?getEdgeFaceIndex@HeightFieldUtil@Gu@physx@@QEBAII@Z 0000000180094cf0 f   GuHeightFieldUtil.obj
 0001:00093ed0       ?getEdgeFaceIndex@HeightFieldUtil@Gu@physx@@QEBAIIIII@Z 0000000180094ed0 f   GuHeightFieldUtil.obj
 0001:00094070       ?getEdgeFaceIndex@HeightFieldUtil@Gu@physx@@QEBAIIIPEIBI@Z 0000000180095070 f   GuHeightFieldUtil.obj
 0001:00094120       ?getFaceIndexAtShapePoint@HeightFieldUtil@Gu@physx@@QEBAIMM@Z 0000000180095120 f   GuHeightFieldUtil.obj
 0001:00094230       ?getTriangle@HeightFieldUtil@Gu@physx@@QEBAIAEBVPxTransform@3@AEAVPxTriangle@3@PEAI2I_N3@Z 0000000180095230 f   GuHeightFieldUtil.obj
 0001:00094d30       ?getTriangleAdjacencyIndices@HeightField@Gu@physx@@QEBAXIIIIAEAI00@Z 0000000180095d30 f i GuHeightFieldUtil.obj
 0001:00094ee0       ?getTriangleVertexIndices@HeightField@Gu@physx@@QEBAXIAEAI00@Z 0000000180095ee0 f i GuHeightFieldUtil.obj
 0001:00094fa0       ?getVertexFaceIndex@HeightFieldUtil@Gu@physx@@QEBAIIII@Z 0000000180095fa0 f   GuHeightFieldUtil.obj
 0001:000951d0       ?getVertexNormal@HeightFieldUtil@Gu@physx@@QEBA?AVPxVec3@3@III@Z 00000001800961d0 f   GuHeightFieldUtil.obj
 0001:00095530       ?overlapAABBTriangles@HeightFieldUtil@Gu@physx@@QEBA_NAEBVPxTransform@3@AEBVPxBounds3@3@IPEAV?$EntityReport@I@23@@Z 0000000180096530 f   GuHeightFieldUtil.obj
 0001:00095b70       ??$traceSegment@UTriggerTraceSegmentCallback@Gu@physx@@$0A@$0A@@HeightFieldTraceUtil@Gu@physx@@QEBAXAEBVPxVec3@2@0MPEAUTriggerTraceSegmentCallback@12@AEBVPxBounds3@2@_NPEBV32@@Z 0000000180096b70 f i GuOverlapTestsHF.obj
 0001:00096bb0       ?GeomOverlapCallback_BoxHeightfield@@YA_NAEBVPxGeometry@physx@@AEBVPxTransform@2@01PEAUTriggerCache@Gu@2@@Z 0000000180097bb0 f   GuOverlapTestsHF.obj
 0001:00096ed0       ?GeomOverlapCallback_CapsuleHeightfield@@YA_NAEBVPxGeometry@physx@@AEBVPxTransform@2@01PEAUTriggerCache@Gu@2@@Z 0000000180097ed0 f   GuOverlapTestsHF.obj
 0001:00097110       ?GeomOverlapCallback_ConvexHeightfield@@YA_NAEBVPxGeometry@physx@@AEBVPxTransform@2@01PEAUTriggerCache@Gu@2@@Z 0000000180098110 f   GuOverlapTestsHF.obj
 0001:00097180       ?GeomOverlapCallback_SphereHeightfield@@YA_NAEBVPxGeometry@physx@@AEBVPxTransform@2@01PEAUTriggerCache@Gu@2@@Z 0000000180098180 f   GuOverlapTestsHF.obj
 0001:00097350       ?checkOverlapAABB_heightFieldGeom@Gu@physx@@YA_NAEBVPxGeometry@2@AEBVPxTransform@2@AEBVPxBounds3@2@@Z 0000000180098350 f   GuOverlapTestsHF.obj
 0001:0009a5e0       ??$gjkRaycast@U?$LocalConvex@VTriangleV@Gu@physx@@@Gu@physx@@U?$LocalConvex@VConvexHullV@Gu@physx@@@23@@Gu@physx@@YA_NAEBU?$LocalConvex@VTriangleV@Gu@physx@@@01@AEBU?$LocalConvex@VConvexHullV@Gu@physx@@@01@AEBT__m128@@222AEAT4@33M@Z 000000018009b5e0 f i GuSweepsHF.obj
 0001:0009b3e0       ??$traceSegment@VBoxTraceSegmentReport@@$0A@$00@HeightFieldTraceUtil@Gu@physx@@QEBAXAEBVPxVec3@2@0MPEAVBoxTraceSegmentReport@@AEBVPxBounds3@2@_NPEBV32@@Z 000000018009c3e0 f i GuSweepsHF.obj
 0001:0009b3e0       ??$traceSegment@VCapsuleTraceSegmentReport@@$0A@$00@HeightFieldTraceUtil@Gu@physx@@QEBAXAEBVPxVec3@2@0MPEAVCapsuleTraceSegmentReport@@AEBVPxBounds3@2@_NPEBV32@@Z 000000018009c3e0 f i GuSweepsHF.obj
 0001:0009b3e0       ??$traceSegment@VConvexTraceSegmentReport@@$0A@$00@HeightFieldTraceUtil@Gu@physx@@QEBAXAEBVPxVec3@2@0MPEAVConvexTraceSegmentReport@@AEBVPxBounds3@2@_NPEBV32@@Z 000000018009c3e0 f i GuSweepsHF.obj
 0001:0009bc00       ??0ConvexTraceSegmentReport@@QEAA@AEBVHeightFieldUtil@Gu@physx@@AEBUConvexHullData@23@AEBVPxMeshScale@3@AEBVPxTransform@3@3AEBVPxVec3@3@MV?$PxFlags@W4Enum@PxHitFlag@physx@@G@3@M@Z 000000018009cc00 f i GuSweepsHF.obj
 0001:0009c5a0       ??_EBoxTraceSegmentReport@@UEAAPEAXI@Z 000000018009d5a0 f i GuSweepsHF.obj
 0001:0009c5a0       ??_GBoxTraceSegmentReport@@UEAAPEAXI@Z 000000018009d5a0 f i GuSweepsHF.obj
 0001:0009c5d0       ??_ECapsuleTraceSegmentReport@@UEAAPEAXI@Z 000000018009d5d0 f i GuSweepsHF.obj
 0001:0009c5d0       ??_GCapsuleTraceSegmentReport@@UEAAPEAXI@Z 000000018009d5d0 f i GuSweepsHF.obj
 0001:0009c600       ??_EConvexTraceSegmentReport@@UEAAPEAXI@Z 000000018009d600 f i GuSweepsHF.obj
 0001:0009c600       ??_GConvexTraceSegmentReport@@UEAAPEAXI@Z 000000018009d600 f i GuSweepsHF.obj
 0001:0009c630       ??_EHeightFieldTraceSegmentReport@@UEAAPEAXI@Z 000000018009d630 f i GuSweepsHF.obj
 0001:0009c630       ??_GHeightFieldTraceSegmentReport@@UEAAPEAXI@Z 000000018009d630 f i GuSweepsHF.obj
 0001:0009c660       ?finalizeHit@ConvexTraceSegmentReport@@QEAA_NAEAUPxSweepHit@physx@@AEBVPxHeightFieldGeometry@3@AEBVPxTransform@3@AEBVPxConvexMeshGeometry@3@2AEBVPxVec3@3@M@Z 000000018009d660 f i GuSweepsHF.obj
 0001:0009c8b0       ?onEvent@BoxTraceSegmentReport@@UEAA_NIPEAI@Z 000000018009d8b0 f i GuSweepsHF.obj
 0001:0009cd20       ?onEvent@CapsuleTraceSegmentReport@@UEAA_NIPEAI@Z 000000018009dd20 f i GuSweepsHF.obj
 0001:0009cf70       ?onEvent@ConvexTraceSegmentReport@@UEAA_NIPEAI@Z 000000018009df70 f i GuSweepsHF.obj
 0001:0009d530       ?prepare@?$OverlapTraceSegment@VBoxTraceSegmentReport@@@HeightFieldTraceUtil@Gu@physx@@QEAAXAEBVPxVec3@4@00AEAM1@Z 000000018009e530 f i GuSweepsHF.obj
 0001:0009d530       ?prepare@?$OverlapTraceSegment@VCapsuleTraceSegmentReport@@@HeightFieldTraceUtil@Gu@physx@@QEAAXAEBVPxVec3@4@00AEAM1@Z 000000018009e530 f i GuSweepsHF.obj
 0001:0009d530       ?prepare@?$OverlapTraceSegment@VConvexTraceSegmentReport@@@HeightFieldTraceUtil@Gu@physx@@QEAAXAEBVPxVec3@4@00AEAM1@Z 000000018009e530 f i GuSweepsHF.obj
 0001:0009d7f0       ?sweepBox_HeightFieldGeom@@YA_NAEBVPxGeometry@physx@@AEBVPxTransform@2@AEBVPxBoxGeometry@2@1AEBVBox@Gu@2@AEBVPxVec3@2@MAEAUPxSweepHit@2@V?$PxFlags@W4Enum@PxHitFlag@physx@@G@2@M@Z 000000018009e7f0 f   GuSweepsHF.obj
 0001:0009e650       ?sweepCapsule_HeightFieldGeom@@YA_NAEBVPxGeometry@physx@@AEBVPxTransform@2@AEBVPxCapsuleGeometry@2@1AEBVCapsule@Gu@2@AEBVPxVec3@2@MAEAUPxSweepHit@2@V?$PxFlags@W4Enum@PxHitFlag@physx@@G@2@M@Z 000000018009f650 f   GuSweepsHF.obj
 0001:0009efb0       ?sweepConvex_HeightFieldGeom@@YA_NAEBVPxGeometry@physx@@AEBVPxTransform@2@AEBVPxConvexMeshGeometry@2@1AEBVPxVec3@2@MAEAUPxSweepHit@2@V?$PxFlags@W4Enum@PxHitFlag@physx@@G@2@M@Z 000000018009ffb0 f   GuSweepsHF.obj
 0001:0009f990       ?testVertexIndex@?$OverlapTraceSegment@VBoxTraceSegmentReport@@@HeightFieldTraceUtil@Gu@physx@@QEAA_NI@Z 00000001800a0990 f i GuSweepsHF.obj
 0001:0009f990       ?testVertexIndex@?$OverlapTraceSegment@VCapsuleTraceSegmentReport@@@HeightFieldTraceUtil@Gu@physx@@QEAA_NI@Z 00000001800a0990 f i GuSweepsHF.obj
 0001:0009f990       ?testVertexIndex@?$OverlapTraceSegment@VConvexTraceSegmentReport@@@HeightFieldTraceUtil@Gu@physx@@QEAA_NI@Z 00000001800a0990 f i GuSweepsHF.obj
 0001:0009faf0       ?visitCells@?$OverlapTraceSegment@VBoxTraceSegmentReport@@@HeightFieldTraceUtil@Gu@physx@@QEAA_NAEBUOverlapRectangle@1234@@Z 00000001800a0af0 f i GuSweepsHF.obj
 0001:0009faf0       ?visitCells@?$OverlapTraceSegment@VCapsuleTraceSegmentReport@@@HeightFieldTraceUtil@Gu@physx@@QEAA_NAEBUOverlapRectangle@1234@@Z 00000001800a0af0 f i GuSweepsHF.obj
 0001:0009faf0       ?visitCells@?$OverlapTraceSegment@VConvexTraceSegmentReport@@@HeightFieldTraceUtil@Gu@physx@@QEAA_NAEBUOverlapRectangle@1234@@Z 00000001800a0af0 f i GuSweepsHF.obj
 0001:0009fce0       ?intersectOBBOBB@Gu@physx@@YA_NAEBVPxVec3@2@0AEBVPxMat33@2@001_N@Z 00000001800a0ce0 f   GuIntersectionBoxBox.obj
 0001:000a0330       ?intersectCapsuleTriangle@Gu@physx@@YA_NAEBVPxVec3@2@000AEBVCapsule@12@AEBUCapsuleTriangleOverlapData@12@@Z 00000001800a1330 f   GuIntersectionCapsuleTriangle.obj
 0001:000a0f20       ?intersectEdgeEdge@Gu@physx@@YA_NAEBVPxVec3@2@0000AEAMAEAV32@@Z 00000001800a1f20 f   GuIntersectionEdgeEdge.obj
 0001:000a1240       ?intersectRayAABB2@Gu@physx@@YA_NAEBT__m128@@0000AEAT3@1@Z 00000001800a2240 f   GuIntersectionRayBox.obj
 0001:000a1300       ?intersectRayAABB2@Gu@physx@@YA_NAEBVPxVec3@2@000MAEAM1@Z 00000001800a2300 f   GuIntersectionRayBox.obj
 0001:000a14b0       ?intersectRayAABB@Gu@physx@@YAHAEBVPxVec3@2@000AEAM1@Z 00000001800a24b0 f   GuIntersectionRayBox.obj
 0001:000a15c0       ?rayAABBIntersect2@Gu@physx@@YAIAEBVPxVec3@2@000AEAV32@AEAM@Z 00000001800a25c0 f   GuIntersectionRayBox.obj
 0001:000a17c0       ?intersectRayCapsuleInternal@Gu@physx@@YAIAEBVPxVec3@2@000MQEAM@Z 00000001800a27c0 f   GuIntersectionRayCapsule.obj
 0001:000a2040       ?intersectRaySphere@Gu@physx@@YA_NAEBVPxVec3@2@0M0MAEAMPEAV32@@Z 00000001800a3040 f   GuIntersectionRaySphere.obj
 0001:000a2130       ?intersectRaySphereBasic@Gu@physx@@YA_NAEBVPxVec3@2@0M0MAEAMPEAV32@@Z 00000001800a3130 f   GuIntersectionRaySphere.obj
 0001:000a2290       ?intersectSphereBox@Gu@physx@@YA_NAEBVSphere@12@AEBVBox@12@@Z 00000001800a3290 f   GuIntersectionSphereBox.obj
 0001:000a24c0       ?intersectTriangleBox@Gu@physx@@YAHAEBVBoxPadded@12@AEBVPxVec3@2@11@Z 00000001800a34c0 f   GuIntersectionTriangleBox.obj
 0001:000a2a90       ?intersectTriangleBoxBV4@@YAHAEBVPxVec3@physx@@00AEBVPxMat33@2@00@Z 00000001800a3a90 f   GuIntersectionTriangleBox.obj
 0001:000a2ed0       ?intersectTriangleBox_ReferenceCode@Gu@physx@@YAHAEBVPxVec3@2@0000@Z 00000001800a3ed0 f   GuIntersectionTriangleBox.obj
 0001:000a36a0       ?intersectTriangleBox_Unsafe@Gu@physx@@YAHAEBVPxVec3@2@0000@Z 00000001800a46a0 f   GuIntersectionTriangleBox.obj
 0001:000a3a70       ??0BV4Tree@Gu@physx@@QEAA@PEAVSourceMesh@12@AEBVPxBounds3@2@@Z 00000001800a4a70 f   GuBV4.obj
 0001:000a3b30       ??0BV4Tree@Gu@physx@@QEAA@W4PxEMPTY@2@@Z 00000001800a4b30 f   GuBV4.obj
 0001:000a3b40       ??0BV4Tree@Gu@physx@@QEAA@XZ 00000001800a4b40 f   GuBV4.obj
 0001:000a3b70       ??0SourceMesh@Gu@physx@@QEAA@XZ 00000001800a4b70 f   GuBV4.obj
 0001:000a3b90       ??0SourceMeshBase@Gu@physx@@QEAA@XZ 00000001800a4b90 f   GuBV4.obj
 0001:000a3ba0       ??1BV4Tree@Gu@physx@@QEAA@XZ 00000001800a4ba0 f   GuBV4.obj
 0001:000a3c00       ??1SourceMesh@Gu@physx@@QEAA@XZ 00000001800a4c00 f   GuBV4.obj
 0001:000a3c00       ??1SourceMeshBase@Gu@physx@@QEAA@XZ 00000001800a4c00 f   GuBV4.obj
 0001:000a3c50       ??4BV4Tree@Gu@physx@@QEAAXAEAV012@@Z 00000001800a4c50 f   GuBV4.obj
 0001:000a3ce0       ??4SourceMesh@Gu@physx@@QEAAXAEAV012@@Z 00000001800a4ce0 f   GuBV4.obj
 0001:000a3d30       ?exportExtraData@BV4Tree@Gu@physx@@QEAAXAEAVPxSerializationContext@3@@Z 00000001800a4d30 f   GuBV4.obj
 0001:000a3d80       ?importExtraData@BV4Tree@Gu@physx@@QEAAXAEAVPxDeserializationContext@3@@Z 00000001800a4d80 f   GuBV4.obj
 0001:000a3db0       ?init@BV32Tree@Gu@physx@@QEAA_NPEAVSourceMesh@23@AEBVPxBounds3@3@@Z 00000001800a4db0 f   GuBV32.obj
 0001:000a3db0       ?init@BV4Tree@Gu@physx@@QEAA_NPEAVSourceMesh@23@AEBVPxBounds3@3@@Z 00000001800a4db0 f   GuBV4.obj
 0001:000a3e50       ?load@BV4Tree@Gu@physx@@QEAA_NAEAVPxInputStream@3@_N@Z 00000001800a4e50 f   GuBV4.obj
 0001:000a4070       ?remapTopology@SourceMesh@Gu@physx@@QEAAXPEBI@Z 00000001800a5070 f   GuBV4.obj
 0001:000a4340       ??0AABBTree@Gu@physx@@QEAA@XZ 00000001800a5340 f   GuBV4Build.obj
 0001:000a4350       ??0BVData@@QEAA@XZ         00000001800a5350 f   GuBV4Build.obj
 0001:000a4380       ??1AABBTree@Gu@physx@@QEAA@XZ 00000001800a5380 f   GuBV4Build.obj
 0001:000a4390       ?BuildBV4Ex@Gu@physx@@YA_NAEAVBV4Tree@12@AEAVSourceMesh@12@MI@Z 00000001800a5390 f   GuBV4Build.obj
 0001:000a5870       ?allocateNode@BV4BuildParams@@QEAAPEAUBV4Node@@XZ 00000001800a6870 f   GuBV4Build.obj
 0001:000a5990       ?buildFromMesh@AABBTree@Gu@physx@@QEAA_NAEAVSourceMesh@23@I@Z 00000001800a6990 f   GuBV4Build.obj
 0001:000a6560       ?release@AABBTree@Gu@physx@@QEAAXXZ 00000001800a7560 f   GuBV4Build.obj
 0001:000a6600       ?releaseNodes@BV4BuildParams@@QEAAXXZ 00000001800a7600 f   GuBV4Build.obj
 0001:000a68d0       ?walk@AABBTree@Gu@physx@@QEBAIP6A_NPEBVAABBTreeNode@23@IPEAX@Z1@Z 00000001800a78d0 f   GuBV4Build.obj
 0001:000a8ac0       ?GenericSweep_AABB_CB@@YAXAEBVBox@Gu@physx@@AEBVPxVec3@3@MAEBVBV4Tree@23@P6A_NPEAX111IAEAM@Z3I@Z 00000001800a9ac0 f   GuBV4_AABBSweep.obj
 0001:000a8bf0       ?Sweep_AABB_BV4@@YAHAEBVBox@Gu@physx@@AEBVPxVec3@3@MAEBVBV4Tree@23@PEIAVSweepHit@23@I@Z 00000001800a9bf0 f   GuBV4_AABBSweep.obj
 0001:000acf20       ?BV4_OverlapBoxAll@@YAIAEBVBox@Gu@physx@@AEBVBV4Tree@23@PEIBVPxMat44@3@PEAIIAEA_N@Z 00000001800adf20 f   GuBV4_BoxOverlap.obj
 0001:000ad750       ?BV4_OverlapBoxAny@@YAHAEBVBox@Gu@physx@@AEBVBV4Tree@23@PEIBVPxMat44@3@@Z 00000001800ae750 f   GuBV4_BoxOverlap.obj
 0001:000adf30       ?BV4_OverlapBoxCB@@YAXAEBVBox@Gu@physx@@AEBVBV4Tree@23@P6A_NPEAXAEBVPxVec3@3@33IPEBI@Z2@Z 00000001800aef30 f   GuBV4_BoxOverlap.obj
 0001:000ae3f0       ?BV4_OverlapCapsuleAll@@YAIAEBVCapsule@Gu@physx@@AEBVBV4Tree@23@PEIBVPxMat44@3@PEAIIAEA_N@Z 00000001800af3f0 f   GuBV4_BoxOverlap.obj
 0001:000aeb00       ?BV4_OverlapCapsuleAny@@YAHAEBVCapsule@Gu@physx@@AEBVBV4Tree@23@PEIBVPxMat44@3@@Z 00000001800afb00 f   GuBV4_BoxOverlap.obj
 0001:000b0c50       ?BV4_CapsuleSweepSingle@@YAHAEBVCapsule@Gu@physx@@AEBVPxVec3@3@MAEBVBV4Tree@23@PEIAVSweepHit@23@I@Z 00000001800b1c50 f   GuBV4_CapsuleSweep.obj
 0001:000b4100       ?BV4_CapsuleSweepSingleAA@@YAHAEBVCapsule@Gu@physx@@AEBVPxVec3@3@MAEBVBV4Tree@23@PEIAVSweepHit@23@I@Z 00000001800b5100 f   GuBV4_CapsuleSweepAA.obj
 0001:000b8aa0       ?BV4_BoxSweepSingle@@YAHAEBVBox@Gu@physx@@AEBVPxVec3@3@MAEBVBV4Tree@23@PEIBVPxMat44@3@PEIAVSweepHit@23@I@Z 00000001800b9aa0 f   GuBV4_OBBSweep.obj
 0001:000b91d0       ?BV4_GenericSweepCB@@YAXAEBVBox@Gu@physx@@AEBVPxVec3@3@MAEBVBV4Tree@23@P6A_NPEAX111IAEAM@Z3_N@Z 00000001800ba1d0 f   GuBV4_OBBSweep.obj
 0001:000b93c0       ?Sweep_OBB_BV4@@YAHAEBVBox@Gu@physx@@AEBVPxVec3@3@MAEBVBV4Tree@23@PEIAVSweepHit@23@I@Z 00000001800ba3c0 f   GuBV4_OBBSweep.obj
 0001:000bb3c0       ?BV4_RaycastCB@@YAXAEBVPxVec3@physx@@0AEBVBV4Tree@Gu@2@PEIBVPxMat44@2@MMIP6A?AW4HitCode@42@PEAX000IMMM@Z3@Z 00000001800bc3c0 f   GuBV4_Raycast.obj
 0001:000bb7e0       ?BV4_RaycastSingle@@YAHAEBVPxVec3@physx@@0AEBVBV4Tree@Gu@2@PEIBVPxMat44@2@PEIAUPxRaycastHit@2@MMIV?$PxFlags@W4Enum@PxHitFlag@physx@@G@2@@Z 00000001800bc7e0 f   GuBV4_Raycast.obj
 0001:000bd540       ?BV4_OverlapSphereAll@@YAIAEBVSphere@Gu@physx@@AEBVBV4Tree@23@PEIBVPxMat44@3@PEAIIAEA_N@Z 00000001800be540 f   GuBV4_SphereOverlap.obj
 0001:000bd860       ?BV4_OverlapSphereAny@@YAHAEBVSphere@Gu@physx@@AEBVBV4Tree@23@PEIBVPxMat44@3@@Z 00000001800be860 f   GuBV4_SphereOverlap.obj
 0001:000bf670       ?BV4_GenericSweepCB_Old@@YAXAEBVPxVec3@physx@@00MAEBVBV4Tree@Gu@2@PEIBVPxMat44@2@P6A_NPEAX000IAEAM@Z3@Z 00000001800c0670 f   GuBV4_SphereSweep.obj
 0001:000bfa70       ?BV4_SphereSweepSingle@@YAHAEBVSphere@Gu@physx@@AEBVPxVec3@3@MAEBVBV4Tree@23@PEIBVPxMat44@3@PEIAVSweepHit@23@I@Z 00000001800c0a70 f   GuBV4_SphereSweep.obj
 0001:000c0d20       ?computeSweepData@physx@@YAMAEBVPxTriangleMeshGeometry@1@AEAVPxVec3@1@11M@Z 00000001800c1d20 f i GuMidphaseBV4.obj
 0001:000c21c0       ?intersectBoxVsMesh_BV4@Gu@physx@@YA_NAEBVBox@12@AEBVTriangleMesh@12@AEBVPxTransform@2@AEBVPxMeshScale@2@PEAULimitedResults@12@@Z 00000001800c31c0 f   GuMidphaseBV4.obj
 0001:000c2cb0       ?intersectCapsuleVsMesh_BV4@Gu@physx@@YA_NAEBVCapsule@12@AEBVTriangleMesh@12@AEBVPxTransform@2@AEBVPxMeshScale@2@PEAULimitedResults@12@@Z 00000001800c3cb0 f   GuMidphaseBV4.obj
 0001:000c34f0       ?intersectOBB_BV4@Gu@physx@@YAXPEBVTriangleMesh@12@AEBVBox@12@AEAU?$MeshHitCallback@UPxRaycastHit@physx@@@12@_N3@Z 00000001800c44f0 f   GuMidphaseBV4.obj
 0001:000c3510       ?intersectSphereVsMesh_BV4@Gu@physx@@YA_NAEBVSphere@12@AEBVTriangleMesh@12@AEBVPxTransform@2@AEBVPxMeshScale@2@PEAULimitedResults@12@@Z 00000001800c4510 f   GuMidphaseBV4.obj
 0001:000c3c50       ?raycast_triangleMesh_BV4@Gu@physx@@YAIPEBVTriangleMesh@12@AEBVPxTriangleMeshGeometry@2@AEBVPxTransform@2@AEBVPxVec3@2@3MV?$PxFlags@W4Enum@PxHitFlag@physx@@G@2@IPEIAUPxRaycastHit@2@@Z 00000001800c4c50 f   GuMidphaseBV4.obj
 0001:000c4a30       ?sweepBox_MeshGeom_BV4@Gu@physx@@YA_NPEBVTriangleMesh@12@AEBVPxTriangleMeshGeometry@2@AEBVPxTransform@2@AEBVBox@12@AEBVPxVec3@2@MAEAUPxSweepHit@2@V?$PxFlags@W4Enum@PxHitFlag@physx@@G@2@M@Z 00000001800c5a30 f   GuMidphaseBV4.obj
 0001:000c6120       ?sweepCapsule_MeshGeom_BV4@Gu@physx@@YA_NPEBVTriangleMesh@12@AEBVPxTriangleMeshGeometry@2@AEBVPxTransform@2@AEBVCapsule@12@AEBVPxVec3@2@MAEAUPxSweepHit@2@V?$PxFlags@W4Enum@PxHitFlag@physx@@G@2@M@Z 00000001800c7120 f   GuMidphaseBV4.obj
 0001:000c6c30       ?sweepConvex_MeshGeom_BV4@Gu@physx@@YAXPEBVTriangleMesh@12@AEBVBox@12@AEBVPxVec3@2@MAEAUSweepConvexMeshHitCallback@12@_N@Z 00000001800c7c30 f   GuMidphaseBV4.obj
 0001:000c6c70       ?transform@PxMeshScale@physx@@QEBA?AVPxVec3@2@AEBV32@@Z 00000001800c7c70 f i GuMidphaseBV4.obj
 0001:000c6eb0       ?findOverlapHeightField@PxMeshQuery@physx@@SAIAEBVPxGeometry@2@AEBVPxTransform@2@AEBVPxHeightFieldGeometry@2@1PEAIIIAEA_N@Z 00000001800c7eb0 f   GuMeshQuery.obj
 0001:000c75d0       ?findOverlapTriangleMesh@PxMeshQuery@physx@@SAIAEBVPxGeometry@2@AEBVPxTransform@2@AEBVPxTriangleMeshGeometry@2@1PEAIIIAEA_N@Z 00000001800c85d0 f   GuMeshQuery.obj
 0001:000c78c0       ?getTriangle@PxMeshQuery@physx@@SAXAEBVPxHeightFieldGeometry@2@AEBVPxTransform@2@IAEAVPxTriangle@2@PEAI3@Z 00000001800c88c0 f   GuMeshQuery.obj
 0001:000c7940       ?getTriangle@PxMeshQuery@physx@@SAXAEBVPxTriangleMeshGeometry@2@AEBVPxTransform@2@IAEAVPxTriangle@2@PEAI3@Z 00000001800c8940 f   GuMeshQuery.obj
 0001:000c7e30       ?sweep@PxMeshQuery@physx@@SA_NAEBVPxVec3@2@MAEBVPxGeometry@2@AEBVPxTransform@2@IPEBVPxTriangle@2@AEAUPxSweepHit@2@V?$PxFlags@W4Enum@PxHitFlag@physx@@G@2@PEBIM_N@Z 00000001800c8e30 f   GuMeshQuery.obj
 0001:000c80e0       ??$collide@$00$00@MeshRayCollider@@SAXAEBVPxVec3@physx@@0M_NPEBVRTreeTriangleMesh@Gu@2@AEAU?$MeshHitCallback@UPxRaycastHit@physx@@@42@PEBV12@@Z 00000001800c90e0 f i GuMidphaseRTree.obj
 0001:000c8460       ??$collide@$00$0A@@MeshRayCollider@@SAXAEBVPxVec3@physx@@0M_NPEBVRTreeTriangleMesh@Gu@2@AEAU?$MeshHitCallback@UPxRaycastHit@physx@@@42@PEBV12@@Z 00000001800c9460 f i GuMidphaseRTree.obj
 0001:000c86a0       ??$collide@$0A@$00@MeshRayCollider@@SAXAEBVPxVec3@physx@@0M_NPEBVRTreeTriangleMesh@Gu@2@AEAU?$MeshHitCallback@UPxRaycastHit@physx@@@42@PEBV12@@Z 00000001800c96a0 f i GuMidphaseRTree.obj
 0001:000caa70       ??0?$RayRTreeCallback@$00$0A@@@QEAA@MAEAU?$MeshHitCallback@UPxRaycastHit@physx@@@Gu@physx@@HPEBXPEBVPxVec3@3@AEBV43@3M_N2@Z 00000001800cba70 f i GuMidphaseRTree.obj
 0001:000caba0       ??1?$RayRTreeCallback@$00$00@@UEAA@XZ 00000001800cbba0 f i GuMidphaseRTree.obj
 0001:000cac30       ??1?$RayRTreeCallback@$00$0A@@@UEAA@XZ 00000001800cbc30 f i GuMidphaseRTree.obj
 0001:000cac30       ??1?$RayRTreeCallback@$0A@$0A@@@UEAA@XZ 00000001800cbc30 f i GuMidphaseRTree.obj
 0001:000cacc0       ??1?$RayRTreeCallback@$0A@$00@@UEAA@XZ 00000001800cbcc0 f i GuMidphaseRTree.obj
 0001:000cad48       ??_E?$RayRTreeCallback@$00$00@@W7EAAPEAXI@Z 00000001800cbd48 f i GuMidphaseRTree.obj
 0001:000cad54       ??_E?$RayRTreeCallback@$00$0A@@@W7EAAPEAXI@Z 00000001800cbd54 f i GuMidphaseRTree.obj
 0001:000cad54       ??_E?$RayRTreeCallback@$0A@$0A@@@W7EAAPEAXI@Z 00000001800cbd54 f i GuMidphaseRTree.obj
 0001:000cad60       ??_E?$RayRTreeCallback@$0A@$00@@W7EAAPEAXI@Z 00000001800cbd60 f i GuMidphaseRTree.obj
 0001:000cadd0       ??_E?$RayRTreeCallback@$00$00@@UEAAPEAXI@Z 00000001800cbdd0 f i GuMidphaseRTree.obj
 0001:000cadd0       ??_G?$RayRTreeCallback@$00$00@@UEAAPEAXI@Z 00000001800cbdd0 f i GuMidphaseRTree.obj
 0001:000cae10       ??_E?$RayRTreeCallback@$00$0A@@@UEAAPEAXI@Z 00000001800cbe10 f i GuMidphaseRTree.obj
 0001:000cae10       ??_E?$RayRTreeCallback@$0A@$0A@@@UEAAPEAXI@Z 00000001800cbe10 f i GuMidphaseRTree.obj
 0001:000cae10       ??_G?$RayRTreeCallback@$00$0A@@@UEAAPEAXI@Z 00000001800cbe10 f i GuMidphaseRTree.obj
 0001:000cae10       ??_G?$RayRTreeCallback@$0A@$0A@@@UEAAPEAXI@Z 00000001800cbe10 f i GuMidphaseRTree.obj
 0001:000cae50       ??_E?$RayRTreeCallback@$0A@$00@@UEAAPEAXI@Z 00000001800cbe50 f i GuMidphaseRTree.obj
 0001:000cae50       ??_G?$RayRTreeCallback@$0A@$00@@UEAAPEAXI@Z 00000001800cbe50 f i GuMidphaseRTree.obj
 0001:000cae90       ??_ECallback@RTree@Gu@physx@@UEAAPEAXI@Z 00000001800cbe90 f i GuMidphaseRTree.obj
 0001:000cae90       ??_GCallback@RTree@Gu@physx@@UEAAPEAXI@Z 00000001800cbe90 f i GuMidphaseRTree.obj
 0001:000caec0       ??_ECallbackRaycast@RTree@Gu@physx@@UEAAPEAXI@Z 00000001800cbec0 f i GuMidphaseRTree.obj
 0001:000caec0       ??_ECallbackRefit@RTree@Gu@physx@@UEAAPEAXI@Z 00000001800cbec0 f i GuTriangleMeshRTree.obj
 0001:000caec0       ??_GCallbackRaycast@RTree@Gu@physx@@UEAAPEAXI@Z 00000001800cbec0 f i GuMidphaseRTree.obj
 0001:000caec0       ??_GCallbackRefit@RTree@Gu@physx@@UEAAPEAXI@Z 00000001800cbec0 f i GuTriangleMeshRTree.obj
 0001:000caef0       ??_ERayMeshColliderCallback@@UEAAPEAXI@Z 00000001800cbef0 f i GuMidphaseRTree.obj
 0001:000caef0       ??_GRayMeshColliderCallback@@UEAAPEAXI@Z 00000001800cbef0 f i GuMidphaseRTree.obj
 0001:000caf20       ?collideOBB@MeshRayCollider@@SAXAEBVBox@Gu@physx@@_NPEBVRTreeTriangleMesh@34@AEAU?$MeshHitCallback@UPxRaycastHit@physx@@@34@1@Z 00000001800cbf20 f   GuMidphaseRTree.obj
 0001:000cb3f0       ?intersectBoxVsMesh_RTREE@Gu@physx@@YA_NAEBVBox@12@AEBVTriangleMesh@12@AEBVPxTransform@2@AEBVPxMeshScale@2@PEAULimitedResults@12@@Z 00000001800cc3f0 f   GuMidphaseRTree.obj
 0001:000cb460       ?intersectCapsuleVsMesh_RTREE@Gu@physx@@YA_NAEBVCapsule@12@AEBVTriangleMesh@12@AEBVPxTransform@2@AEBVPxMeshScale@2@PEAULimitedResults@12@@Z 00000001800cc460 f   GuMidphaseRTree.obj
 0001:000cb4e0       ?intersectOBB_RTREE@Gu@physx@@YAXPEBVTriangleMesh@12@AEBVBox@12@AEAU?$MeshHitCallback@UPxRaycastHit@physx@@@12@_N3@Z 00000001800cc4e0 f   GuMidphaseRTree.obj
 0001:000cb510       ?intersectSphereVsMesh_RTREE@Gu@physx@@YA_NAEBVSphere@12@AEBVTriangleMesh@12@AEBVPxTransform@2@AEBVPxMeshScale@2@PEAULimitedResults@12@@Z 00000001800cc510 f   GuMidphaseRTree.obj
 0001:000cc330       ?processHit@RayMeshColliderCallback@@UEAA_NAEBUPxRaycastHit@physx@@AEBVPxVec3@3@11AEAMPEBI@Z 00000001800cd330 f i GuMidphaseRTree.obj
 0001:000ccab0       ?processResults@?$RayRTreeCallback@$00$00@@UEAA_NIPEAI@Z 00000001800cdab0 f i GuMidphaseRTree.obj
 0001:000cce60       ?processResults@?$RayRTreeCallback@$00$00@@UEAA_NIPEAIAEAM@Z 00000001800cde60 f i GuMidphaseRTree.obj
 0001:000cd200       ?processResults@?$RayRTreeCallback@$00$0A@@@UEAA_NIPEAI@Z 00000001800ce200 f i GuMidphaseRTree.obj
 0001:000cd200       ?processResults@?$RayRTreeCallback@$0A@$0A@@@UEAA_NIPEAI@Z 00000001800ce200 f i GuMidphaseRTree.obj
 0001:000cd490       ?processResults@?$RayRTreeCallback@$00$0A@@@UEAA_NIPEAIAEAM@Z 00000001800ce490 f i GuMidphaseRTree.obj
 0001:000cd490       ?processResults@?$RayRTreeCallback@$0A@$0A@@@UEAA_NIPEAIAEAM@Z 00000001800ce490 f i GuMidphaseRTree.obj
 0001:000cd750       ?processResults@?$RayRTreeCallback@$0A@$00@@UEAA_NIPEAI@Z 00000001800ce750 f i GuMidphaseRTree.obj
 0001:000cddc0       ?processResults@?$RayRTreeCallback@$0A@$00@@UEAA_NIPEAIAEAM@Z 00000001800cedc0 f i GuMidphaseRTree.obj
 0001:000ce440       ?raycast_triangleMesh_RTREE@Gu@physx@@YAIPEBVTriangleMesh@12@AEBVPxTriangleMeshGeometry@2@AEBVPxTransform@2@AEBVPxVec3@2@3MV?$PxFlags@W4Enum@PxHitFlag@physx@@G@2@IPEIAUPxRaycastHit@2@@Z 00000001800cf440 f   GuMidphaseRTree.obj
 0001:000cebd0       ?sweepBox_MeshGeom_RTREE@Gu@physx@@YA_NPEBVTriangleMesh@12@AEBVPxTriangleMeshGeometry@2@AEBVPxTransform@2@AEBVBox@12@AEBVPxVec3@2@MAEAUPxSweepHit@2@V?$PxFlags@W4Enum@PxHitFlag@physx@@G@2@M@Z 00000001800cfbd0 f   GuMidphaseRTree.obj
 0001:000d00a0       ?sweepCapsule_MeshGeom_RTREE@Gu@physx@@YA_NPEBVTriangleMesh@12@AEBVPxTriangleMeshGeometry@2@AEBVPxTransform@2@AEBVCapsule@12@AEBVPxVec3@2@MAEAUPxSweepHit@2@V?$PxFlags@W4Enum@PxHitFlag@physx@@G@2@M@Z 00000001800d10a0 f   GuMidphaseRTree.obj
 0001:000d08a0       ?sweepConvex_MeshGeom_RTREE@Gu@physx@@YAXPEBVTriangleMesh@12@AEBVBox@12@AEBVPxVec3@2@MAEAUSweepConvexMeshHitCallback@12@_N@Z 00000001800d18a0 f   GuMidphaseRTree.obj
 0001:000d08f0       ??$gjk@U?$RelativeConvex@VTriangleV@Gu@physx@@@Gu@physx@@U?$LocalConvex@VConvexHullV@Gu@physx@@@23@@Gu@physx@@YA?AW4GjkStatus@01@AEBU?$RelativeConvex@VTriangleV@Gu@physx@@@01@AEBU?$LocalConvex@VConvexHullV@Gu@physx@@@01@AEBT__m128@@2AEAT5@333@Z 00000001800d18f0 f i GuOverlapTestsMesh.obj
 0001:000d1780       ??0ConvexVsMeshOverlapCallback@@QEAA@AEBVConvexMesh@Gu@physx@@AEBVPxMeshScale@3@AEBVFastVertex2ShapeScaling@Cm@3@AEBVPxTransform@3@3_NAEBVBox@23@@Z 00000001800d2780 f i GuOverlapTestsMesh.obj
 0001:000d2020       ??_EConvexVsMeshOverlapCallback@@UEAAPEAXI@Z 00000001800d3020 f i GuOverlapTestsMesh.obj
 0001:000d2020       ??_GConvexVsMeshOverlapCallback@@UEAAPEAXI@Z 00000001800d3020 f i GuOverlapTestsMesh.obj
 0001:000d2050       ?GeomOverlapCallback_BoxMesh@@YA_NAEBVPxGeometry@physx@@AEBVPxTransform@2@01PEAUTriggerCache@Gu@2@@Z 00000001800d3050 f   GuOverlapTestsMesh.obj
 0001:000d2160       ?GeomOverlapCallback_CapsuleMesh@@YA_NAEBVPxGeometry@physx@@AEBVPxTransform@2@01PEAUTriggerCache@Gu@2@@Z 00000001800d3160 f   GuOverlapTestsMesh.obj
 0001:000d2270       ?GeomOverlapCallback_ConvexMesh@@YA_NAEBVPxGeometry@physx@@AEBVPxTransform@2@01PEAUTriggerCache@Gu@2@@Z 00000001800d3270 f   GuOverlapTestsMesh.obj
 0001:000d2860       ?GeomOverlapCallback_SphereMesh@@YA_NAEBVPxGeometry@physx@@AEBVPxTransform@2@01PEAUTriggerCache@Gu@2@@Z 00000001800d3860 f   GuOverlapTestsMesh.obj
 0001:000d28d0       ?checkOverlapAABB_triangleGeom@Gu@physx@@YA_NAEBVPxGeometry@2@AEBVPxTransform@2@AEBVPxBounds3@2@@Z 00000001800d38d0 f   GuOverlapTestsMesh.obj
 0001:000d29d0       ?processHit@ConvexVsMeshOverlapCallback@@UEAA_NAEBUPxRaycastHit@physx@@AEBVPxVec3@3@11AEAMPEBI@Z 00000001800d39d0 f i GuOverlapTestsMesh.obj
 0001:000d2d50       ??0RTree@Gu@physx@@QEAA@W4PxEMPTY@2@@Z 00000001800d3d50 f   GuRTree.obj
 0001:000d2d60       ?exportExtraData@RTree@Gu@physx@@QEAAXAEAVPxSerializationContext@3@@Z 00000001800d3d60 f   GuRTree.obj
 0001:000d2da0       ?importExtraData@RTree@Gu@physx@@QEAAXAEAVPxDeserializationContext@3@@Z 00000001800d3da0 f   GuRTree.obj
 0001:000d2dd0       ?load@RTree@Gu@physx@@QEAA_NAEAVPxInputStream@3@I_N@Z 00000001800d3dd0 f   GuRTree.obj
 0001:000d30d0       ?refitAllStaticTree@RTree@Gu@physx@@QEAAXAEAUCallbackRefit@123@PEAVPxBounds3@3@@Z 00000001800d40d0 f   GuRTree.obj
 0001:000d3630       ?validate@RTree@Gu@physx@@QEAAXPEAUCallbackRefit@123@@Z 00000001800d4630 f   GuRTree.obj
 0001:000d3870       ?validateRecursive@RTree@Gu@physx@@IEAAXIURTreeNodeQ@23@PEAURTreePage@23@PEAUCallbackRefit@123@@Z 00000001800d4870 f   GuRTree.obj
 0001:000d3a30       ??$traverseRay@$00@RTree@Gu@physx@@QEBAXAEBVPxVec3@2@0IPEAIPEAUCallbackRaycast@012@PEBV32@M@Z 00000001800d4a30 f i GuRTreeQueries.obj
 0001:000d3dd0       ??$traverseRay@$0A@@RTree@Gu@physx@@QEBAXAEBVPxVec3@2@0IPEAIPEAUCallbackRaycast@012@PEBV32@M@Z 00000001800d4dd0 f i GuRTreeQueries.obj
 0001:000d4120       ?traverseAABB@RTree@Gu@physx@@QEBAXAEBVPxVec3@3@0IPEAIPEAUCallback@123@@Z 00000001800d5120 f   GuRTreeQueries.obj
 0001:000d42e0       ?traverseOBB@RTree@Gu@physx@@QEBAXAEBVBox@23@IPEAIPEAUCallback@123@@Z 00000001800d52e0 f   GuRTreeQueries.obj
 0001:000d4bc0       ??0SweepBoxMeshHitCallback@Gu@physx@@QEAA@W4Enum@CallbackMode@12@AEBVMatrix34Padded@12@M_NAEBVBox@12@AEBVPxVec3@2@44AEBV?$PxFlags@W4Enum@PxHitFlag@physx@@G@2@M2M@Z 00000001800d5bc0 f   GuSweepsMesh.obj
 0001:000d4cd0       ??0SweepCapsuleMeshHitCallback@Gu@physx@@QEAA@AEAUPxSweepHit@2@AEBVMatrix34@Cm@2@M_NAEBVCapsule@12@AEBVPxVec3@2@AEBV?$PxFlags@W4Enum@PxHitFlag@physx@@G@2@2M@Z 00000001800d5cd0 f   GuSweepsMesh.obj
 0001:000d4da0       ??0SweepConvexMeshHitCallback@Gu@physx@@QEAA@AEBUConvexHullData@12@AEBVPxMeshScale@2@AEBVFastVertex2ShapeScaling@Cm@2@AEBVPxTransform@2@3AEBVPxVec3@2@MV?$PxFlags@W4Enum@PxHitFlag@physx@@G@2@_NM6M@Z 00000001800d5da0 f   GuSweepsMesh.obj
 0001:000d5720       ??_ESweepBoxMeshHitCallback@Gu@physx@@UEAAPEAXI@Z 00000001800d6720 f i GuSweepsMesh.obj
 0001:000d5720       ??_GSweepBoxMeshHitCallback@Gu@physx@@UEAAPEAXI@Z 00000001800d6720 f i GuSweepsMesh.obj
 0001:000d5750       ??_ESweepCapsuleMeshHitCallback@Gu@physx@@UEAAPEAXI@Z 00000001800d6750 f i GuSweepsMesh.obj
 0001:000d5750       ??_GSweepCapsuleMeshHitCallback@Gu@physx@@UEAAPEAXI@Z 00000001800d6750 f i GuSweepsMesh.obj
 0001:000d5780       ??_ESweepConvexMeshHitCallback@Gu@physx@@UEAAPEAXI@Z 00000001800d6780 f i GuSweepsMesh.obj
 0001:000d5780       ??_GSweepConvexMeshHitCallback@Gu@physx@@UEAAPEAXI@Z 00000001800d6780 f i GuSweepsMesh.obj
 0001:000d57b0       ??_ESweepShapeMeshHitCallback@Gu@physx@@UEAAPEAXI@Z 00000001800d67b0 f i GuSweepsMesh.obj
 0001:000d57b0       ??_GSweepShapeMeshHitCallback@Gu@physx@@UEAAPEAXI@Z 00000001800d67b0 f i GuSweepsMesh.obj
 0001:000d57e0       ?finalizeHit@SweepBoxMeshHitCallback@Gu@physx@@QEBA_NAEAUPxSweepHit@3@AEBVPxTriangleMeshGeometry@3@AEBVPxTransform@3@2AEBVPxVec3@3@_N4@Z 00000001800d67e0 f   GuSweepsMesh.obj
 0001:000d5eb0       ?finalizeHit@SweepCapsuleMeshHitCallback@Gu@physx@@QEBA_NAEAUPxSweepHit@3@AEBVCapsule@23@AEBVPxTriangleMeshGeometry@3@AEBVPxTransform@3@_N@Z 00000001800d6eb0 f   GuSweepsMesh.obj
 0001:000d6040       ?finalizeHit@SweepConvexMeshHitCallback@Gu@physx@@QEAA_NAEAUPxSweepHit@3@AEBVPxTriangleMeshGeometry@3@AEBVPxTransform@3@AEBVPxConvexMeshGeometry@3@2AEBVPxVec3@3@M_N555@Z 00000001800d7040 f   GuSweepsMesh.obj
 0001:000d6520       ?processHit@SweepBoxMeshHitCallback@Gu@physx@@UEAA_NAEBUPxRaycastHit@3@AEBVPxVec3@3@11AEAMPEBI@Z 00000001800d7520 f   GuSweepsMesh.obj
 0001:000d6d10       ?processHit@SweepCapsuleMeshHitCallback@Gu@physx@@UEAA_NAEBUPxRaycastHit@3@AEBVPxVec3@3@11AEAMPEBI@Z 00000001800d7d10 f   GuSweepsMesh.obj
 0001:000d7240       ?processHit@SweepConvexMeshHitCallback@Gu@physx@@UEAA_NAEBUPxRaycastHit@3@AEBVPxVec3@3@11AEAMPEBI@Z 00000001800d8240 f   GuSweepsMesh.obj
 0001:000d79a0       ?sweepBox_MeshGeom@@YA_NAEBVPxGeometry@physx@@AEBVPxTransform@2@AEBVPxBoxGeometry@2@1AEBVBox@Gu@2@AEBVPxVec3@2@MAEAUPxSweepHit@2@V?$PxFlags@W4Enum@PxHitFlag@physx@@G@2@M@Z 00000001800d89a0 f   GuSweepsMesh.obj
 0001:000d7a30       ?sweepCapsule_MeshGeom@@YA_NAEBVPxGeometry@physx@@AEBVPxTransform@2@AEBVPxCapsuleGeometry@2@1AEBVCapsule@Gu@2@AEBVPxVec3@2@MAEAUPxSweepHit@2@V?$PxFlags@W4Enum@PxHitFlag@physx@@G@2@M@Z 00000001800d8a30 f   GuSweepsMesh.obj
 0001:000d7ac0       ?sweepConvex_MeshGeom@@YA_NAEBVPxGeometry@physx@@AEBVPxTransform@2@AEBVPxConvexMeshGeometry@2@1AEBVPxVec3@2@MAEAUPxSweepHit@2@V?$PxFlags@W4Enum@PxHitFlag@physx@@G@2@M@Z 00000001800d8ac0 f   GuSweepsMesh.obj
 0001:000d8700       ??0TriangleMesh@Gu@physx@@QEAA@AEAVGuMeshFactory@2@AEAVTriangleMeshData@12@@Z 00000001800d9700 f   GuTriangleMesh.obj
 0001:000d8890       ??1TriangleMesh@Gu@physx@@UEAA@XZ 00000001800d9890 f   GuTriangleMesh.obj
 0001:000d8a44       ??_ETriangleMesh@Gu@physx@@WBA@EAAPEAXI@Z 00000001800d9a44 f i GuTriangleMesh.obj
 0001:000d8a50       ??_ETriangleMesh@Gu@physx@@UEAAPEAXI@Z 00000001800d9a50 f i GuTriangleMesh.obj
 0001:000d8a50       ??_GTriangleMesh@Gu@physx@@UEAAPEAXI@Z 00000001800d9a50 f i GuTriangleMesh.obj
 0001:000d8ac0       ?exportExtraData@TriangleMesh@Gu@physx@@UEAAXAEAVPxSerializationContext@3@@Z 00000001800d9ac0 f   GuTriangleMesh.obj
 0001:000d8c00       ?getLocalBounds@TriangleMesh@Gu@physx@@UEBA?AVPxBounds3@3@XZ 00000001800d9c00 f i GuTriangleMesh.obj
 0001:000d8c90       ?getNbVertices@TriangleMesh@Gu@physx@@UEBAIXZ 00000001800d9c90 f i GuTriangleMesh.obj
 0001:000d8ca0       ?getTriangleMaterialIndex@TriangleMesh@Gu@physx@@UEBAGI@Z 00000001800d9ca0 f i GuTriangleMesh.obj
 0001:000d8cc0       ?getTriangleMeshFlags@TriangleMesh@Gu@physx@@UEBA?AV?$PxFlags@W4Enum@PxTriangleMeshFlag@physx@@E@3@XZ 00000001800d9cc0 f i GuTriangleMesh.obj
 0001:000d8cd0       ?getTrianglesRemap@TriangleMesh@Gu@physx@@UEBAPEBIXZ 00000001800d9cd0 f i GuTriangleMesh.obj
 0001:000d8ce0       ?getVertices@TriangleMesh@Gu@physx@@UEBAPEBVPxVec3@3@XZ 00000001800d9ce0 f i GuTriangleMesh.obj
 0001:000d8cf0       ?getVerticesForModification@TriangleMesh@Gu@physx@@UEAAPEAVPxVec3@3@XZ 00000001800d9cf0 f   GuTriangleMesh.obj
 0001:000d8d30       ?importExtraData@TriangleMesh@Gu@physx@@QEAAXAEAVPxDeserializationContext@3@@Z 00000001800d9d30 f   GuTriangleMesh.obj
 0001:000d8e40       ?isKindOf@PxTriangleMesh@physx@@MEBA_NPEBD@Z 00000001800d9e40 f i GuTriangleMesh.obj
 0001:000d8e90       ?onRefCountZero@TriangleMesh@Gu@physx@@UEAAXXZ 00000001800d9e90 f   GuTriangleMesh.obj
 0001:000d8f30       ?refitBVH@TriangleMesh@Gu@physx@@UEAA?AVPxBounds3@3@XZ 00000001800d9f30 f   GuTriangleMesh.obj
 0001:000d9000       ??0BV4TriangleMesh@Gu@physx@@QEAA@AEAVGuMeshFactory@2@AEAVTriangleMeshData@12@@Z 00000001800da000 f   GuTriangleMeshBV4.obj
 0001:000d9094       ??_EBV4TriangleMesh@Gu@physx@@WBA@EAAPEAXI@Z 00000001800da094 f i GuTriangleMeshBV4.obj
 0001:000d90a0       ??_EBV4TriangleMesh@Gu@physx@@UEAAPEAXI@Z 00000001800da0a0 f i GuTriangleMeshBV4.obj
 0001:000d90a0       ??_GBV4TriangleMesh@Gu@physx@@UEAAPEAXI@Z 00000001800da0a0 f i GuTriangleMeshBV4.obj
 0001:000d9130       ?createObject@BV4TriangleMesh@Gu@physx@@SAPEAVTriangleMesh@23@AEAPEAEAEAVPxDeserializationContext@3@@Z 00000001800da130 f   GuTriangleMeshBV4.obj
 0001:000d9200       ?exportExtraData@BV4TriangleMesh@Gu@physx@@UEAAXAEAVPxSerializationContext@3@@Z 00000001800da200 f   GuTriangleMeshBV4.obj
 0001:000d9240       ?getConcreteTypeName@BV4TriangleMesh@Gu@physx@@UEBAPEBDXZ 00000001800da240 f i GuTriangleMeshBV4.obj
 0001:000d9250       ?getMidphaseID@BV4TriangleMesh@Gu@physx@@UEBA?AW4Enum@PxMeshMidPhase@3@XZ 00000001800da250 f i GuTriangleMeshBV4.obj
 0001:000d9250       ?length@charNode@@UEBAHXZ  00000001800da250 f i libvcruntime:undname.obj
 0001:000d9250       ?raw_length@charNode@@UEBAHXZ 00000001800da250 f i libvcruntime:undname.obj
 0001:000d9250       DllMain                    00000001800da250 f i LIBCMT:dll_dllmain_stub.obj
 0001:000d9250       _get_startup_argv_mode     00000001800da250 f i LIBCMT:argv_mode.obj
 0001:000d9260       ??0RTreeTriangleMesh@Gu@physx@@QEAA@AEAVGuMeshFactory@2@AEAVTriangleMeshData@12@@Z 00000001800da260 f   GuTriangleMeshRTree.obj
 0001:000d93d8       ??_ERTreeTriangleMesh@Gu@physx@@WBA@EAAPEAXI@Z 00000001800da3d8 f i GuTriangleMeshRTree.obj
 0001:000d93f0       ??_E?$RefitCallback@G@physx@@UEAAPEAXI@Z 00000001800da3f0 f i GuTriangleMeshRTree.obj
 0001:000d93f0       ??_E?$RefitCallback@I@physx@@UEAAPEAXI@Z 00000001800da3f0 f i GuTriangleMeshRTree.obj
 0001:000d93f0       ??_G?$RefitCallback@G@physx@@UEAAPEAXI@Z 00000001800da3f0 f i GuTriangleMeshRTree.obj
 0001:000d93f0       ??_G?$RefitCallback@I@physx@@UEAAPEAXI@Z 00000001800da3f0 f i GuTriangleMeshRTree.obj
 0001:000d9420       ??_ERTreeTriangleMesh@Gu@physx@@UEAAPEAXI@Z 00000001800da420 f i GuTriangleMeshRTree.obj
 0001:000d9420       ??_GRTreeTriangleMesh@Gu@physx@@UEAAPEAXI@Z 00000001800da420 f i GuTriangleMeshRTree.obj
 0001:000d94e0       ?createObject@RTreeTriangleMesh@Gu@physx@@SAPEAVTriangleMesh@23@AEAPEAEAEAVPxDeserializationContext@3@@Z 00000001800da4e0 f   GuTriangleMeshRTree.obj
 0001:000d9560       ?exportExtraData@RTreeTriangleMesh@Gu@physx@@UEAAXAEAVPxSerializationContext@3@@Z 00000001800da560 f   GuTriangleMeshRTree.obj
 0001:000d95a0       ?getConcreteTypeName@RTreeTriangleMesh@Gu@physx@@UEBAPEBDXZ 00000001800da5a0 f i GuTriangleMeshRTree.obj
 0001:000d95b0       ?getMidphaseID@RTreeTriangleMesh@Gu@physx@@UEBA?AW4Enum@PxMeshMidPhase@3@XZ 00000001800da5b0 f i GuTriangleMeshRTree.obj
 0001:000d95c0       ?getVerticesForModification@RTreeTriangleMesh@Gu@physx@@UEAAPEAVPxVec3@3@XZ 00000001800da5c0 f   GuTriangleMeshRTree.obj
 0001:000d95d0       ?recomputeBounds@?$RefitCallback@G@physx@@UEAAXIAEAT__m128@@0@Z 00000001800da5d0 f i GuTriangleMeshRTree.obj
 0001:000d9900       ?recomputeBounds@?$RefitCallback@I@physx@@UEAAXIAEAT__m128@@0@Z 00000001800da900 f i GuTriangleMeshRTree.obj
 0001:000d9c20       ?refitBVH@RTreeTriangleMesh@Gu@physx@@UEAA?AVPxBounds3@3@XZ 00000001800dac20 f   GuTriangleMeshRTree.obj
 0001:000d9e40       ??0BV32Tree@Gu@physx@@QEAA@PEAVSourceMesh@12@AEBVPxBounds3@2@@Z 00000001800dae40 f   GuBV32.obj
 0001:000d9f00       ??0BV32Tree@Gu@physx@@QEAA@XZ 00000001800daf00 f   GuBV32.obj
 0001:000d9f30       ??1BV32Tree@Gu@physx@@QEAA@XZ 00000001800daf30 f   GuBV32.obj
 0001:000d9f40       ?calculateLeafNode@BV32Tree@Gu@physx@@QEAAXAEAUBV32Data@23@@Z 00000001800daf40 f   GuBV32.obj
 0001:000da180       ?createSOAformatNode@BV32Tree@Gu@physx@@QEAAXAEAUBV32DataPacked@23@AEBUBV32Data@23@IAEAI2@Z 00000001800db180 f   GuBV32.obj
 0001:000da5d0       ?load@BV32Tree@Gu@physx@@QEAA_NAEAVPxInputStream@3@_N@Z 00000001800db5d0 f   GuBV32.obj
 0001:000da7f0       ?release@BV32Tree@Gu@physx@@QEAAXXZ 00000001800db7f0 f   GuBV32.obj
 0001:000da880       ??0BV32Node@@QEAA@XZ       00000001800db880 f i GuBV32Build.obj
 0001:000daba0       ?BuildBV32Ex@Gu@physx@@YA_NAEAVBV32Tree@12@AEAVSourceMesh@12@MI@Z 00000001800dbba0 f   GuBV32Build.obj
 0001:000de300       ?pcmContactBoxBox@Gu@physx@@YA_NAEBVGeometryUnion@12@0AEBVPxTransform@2@1AEBUNarrowPhaseParams@12@AEAUCache@12@AEAVContactBuffer@12@PEAVRenderOutput@Cm@2@@Z 00000001800df300 f   GuPCMContactBoxBox.obj
 0001:000df100       ??$gjkPenetration@U?$RelativeConvex@VBoxV@Gu@physx@@@Gu@physx@@U?$LocalConvex@VConvexHullNoScaleV@Gu@physx@@@23@@Gu@physx@@YA?AW4GjkStatus@01@AEBU?$RelativeConvex@VBoxV@Gu@physx@@@01@AEBU?$LocalConvex@VConvexHullNoScaleV@Gu@physx@@@01@AEBT__m128@@2_NPEIAE4AEAEAEAUGjkOutput@01@@Z 00000001800e0100 f i GuPCMContactBoxConvex.obj
 0001:000e0d50       ?pcmContactBoxConvex@Gu@physx@@YA_NAEBVGeometryUnion@12@0AEBVPxTransform@2@1AEBUNarrowPhaseParams@12@AEAUCache@12@AEAVContactBuffer@12@PEAVRenderOutput@Cm@2@@Z 00000001800e1d50 f   GuPCMContactBoxConvex.obj
 0001:000e1b70       ?support@?$LocalConvex@VConvexHullNoScaleV@Gu@physx@@@Gu@physx@@UEBA?AT__m128@@AEBT4@@Z 00000001800e2b70 f i GuPCMContactBoxConvex.obj
 0001:000e1bc0       ?support@?$LocalConvex@VConvexHullNoScaleV@Gu@physx@@@Gu@physx@@UEBA?AT__m128@@AEBT4@AEAH@Z 00000001800e2bc0 f i GuPCMContactBoxConvex.obj
 0001:000e1c20       ?supportPoint@?$LocalConvex@VConvexHullNoScaleV@Gu@physx@@@Gu@physx@@UEBA?AT__m128@@H@Z 00000001800e2c20 f i GuPCMContactBoxConvex.obj
 0001:000e1c50       ?pcmContactCapsuleBox@Gu@physx@@YA_NAEBVGeometryUnion@12@0AEBVPxTransform@2@1AEBUNarrowPhaseParams@12@AEAUCache@12@AEAVContactBuffer@12@PEAVRenderOutput@Cm@2@@Z 00000001800e2c50 f   GuPCMContactCapsuleBox.obj
 0001:000e2ad0       ?pcmContactCapsuleCapsule@Gu@physx@@YA_NAEBVGeometryUnion@12@0AEBVPxTransform@2@1AEBUNarrowPhaseParams@12@AEAUCache@12@AEAVContactBuffer@12@PEAVRenderOutput@Cm@2@@Z 00000001800e3ad0 f   GuPCMContactCapsuleCapsule.obj
 0001:000e3350       ??$gjkPenetration@U?$LocalConvex@VCapsuleV@Gu@physx@@@Gu@physx@@U?$LocalConvex@VConvexHullNoScaleV@Gu@physx@@@23@@Gu@physx@@YA?AW4GjkStatus@01@AEBU?$LocalConvex@VCapsuleV@Gu@physx@@@01@AEBU?$LocalConvex@VConvexHullNoScaleV@Gu@physx@@@01@AEBT__m128@@2_NPEIAE4AEAEAEAUGjkOutput@01@@Z 00000001800e4350 f i GuPCMContactCapsuleConvex.obj
 0001:000e4b20       ?pcmContactCapsuleConvex@Gu@physx@@YA_NAEBVGeometryUnion@12@0AEBVPxTransform@2@1AEBUNarrowPhaseParams@12@AEAUCache@12@AEAVContactBuffer@12@PEAVRenderOutput@Cm@2@@Z 00000001800e5b20 f   GuPCMContactCapsuleConvex.obj
 0001:000e5d30       ??0PCMMeshContactGeneration@Gu@physx@@QEAA@AEBT__m128@@0AEBVPsTransformV@aos@shdfnd@2@1AEAVMultiplePersistentContactManifold@12@AEAVContactBuffer@12@PEAV?$InlineArray@I$0EEA@V?$ReflectionAllocator@I@shdfnd@physx@@@62@PEAVRenderOutput@Cm@2@@Z 00000001800e6d30 f i GuPCMContactCapsuleHeightField.obj
 0001:000e6640       ??_EPCMCapsuleVsHeightfieldContactGenerationCallback@physx@@UEAAPEAXI@Z 00000001800e7640 f i GuPCMContactCapsuleHeightField.obj
 0001:000e6640       ??_GPCMCapsuleVsHeightfieldContactGenerationCallback@physx@@UEAAPEAXI@Z 00000001800e7640 f i GuPCMContactCapsuleHeightField.obj
 0001:000e6670       ?onEvent@?$PCMHeightfieldContactGenerationCallback@UPCMCapsuleVsHeightfieldContactGenerationCallback@physx@@@Gu@physx@@UEAA_NIPEAI@Z 00000001800e7670 f i GuPCMContactCapsuleHeightField.obj
 0001:000e6c20       ?pcmContactCapsuleHeightField@Gu@physx@@YA_NAEBVGeometryUnion@12@0AEBVPxTransform@2@1AEBUNarrowPhaseParams@12@AEAUCache@12@AEAVContactBuffer@12@PEAVRenderOutput@Cm@2@@Z 00000001800e7c20 f   GuPCMContactCapsuleHeightField.obj
 0001:000e7960       ??$processTriangleCache@$0BA@@PCMCapsuleVsMeshContactGenerationCallback@physx@@QEAAXAEAU?$TriangleCache@$0BA@@Gu@1@@Z 00000001800e8960 f i GuPCMContactCapsuleMesh.obj
 0001:000e79f0       ??_EPCMCapsuleVsMeshContactGenerationCallback@physx@@UEAAPEAXI@Z 00000001800e89f0 f i GuPCMContactCapsuleMesh.obj
 0001:000e79f0       ??_GPCMCapsuleVsMeshContactGenerationCallback@physx@@UEAAPEAXI@Z 00000001800e89f0 f i GuPCMContactCapsuleMesh.obj
 0001:000e7a20       ?pcmContactCapsuleMesh@Gu@physx@@YA_NAEBVGeometryUnion@12@0AEBVPxTransform@2@1AEBUNarrowPhaseParams@12@AEAUCache@12@AEAVContactBuffer@12@PEAVRenderOutput@Cm@2@@Z 00000001800e8a20 f   GuPCMContactCapsuleMesh.obj
 0001:000e8950       ?processHit@?$PCMMeshContactGenerationCallback@UPCMCapsuleVsMeshContactGenerationCallback@physx@@@Gu@physx@@UEAA_NAEBUPxRaycastHit@3@AEBVPxVec3@3@11AEAMPEBI@Z 00000001800e9950 f i GuPCMContactCapsuleMesh.obj
 0001:000e8d20       ??$sort@USortedTriangle@Gu@physx@@U?$Less@USortedTriangle@Gu@physx@@@shdfnd@3@V?$ReflectionAllocator@USortedTriangle@Gu@physx@@@53@@shdfnd@physx@@YAXPEAUSortedTriangle@Gu@1@IAEBU?$Less@USortedTriangle@Gu@physx@@@01@AEBV?$ReflectionAllocator@USortedTriangle@Gu@physx@@@01@I@Z 00000001800e9d20 f i GuPCMContactConvexCommon.obj
 0001:000e91b0       ?addContactsToPatch@PCMConvexVsMeshContactGeneration@Gu@physx@@QEAAXAEBT__m128@@I@Z 00000001800ea1b0 f   GuPCMContactConvexCommon.obj
 0001:000e9af0       ?addToPatch@PCMSphereVsMeshContactGeneration@Gu@physx@@QEAAXAEBT__m128@@0T4@I@Z 00000001800eaaf0 f   GuPCMContactConvexCommon.obj
 0001:000ea1b0       ?allocate@?$ReflectionAllocator@USortedTriangle@Gu@physx@@@shdfnd@physx@@QEAAPEAX_KPEBDH@Z 00000001800eb1b0 f i GuPCMContactConvexCommon.obj
 0001:000ea250       ?doSupport@?$SupportLocalImpl@VTriangleV@Gu@physx@@@Gu@physx@@UEBA?AT__m128@@AEBT4@@Z 00000001800eb250 f i GuPCMContactConvexCommon.obj
 0001:000ea2e0       ?doSupport@?$SupportLocalImpl@VTriangleV@Gu@physx@@@Gu@physx@@UEBAXAEBT__m128@@AEAT4@1@Z 00000001800eb2e0 f i GuPCMContactConvexCommon.obj
 0001:000ea350       ?generateContacts@PCMCapsuleVsMeshContactGeneration@Gu@physx@@SA_NAEBT__m128@@0000I000PEAVMeshPersistentContact@23@AEAI@Z 00000001800eb350 f   GuPCMContactConvexCommon.obj
 0001:000ea780       ?generateEE@PCMCapsuleVsMeshContactGeneration@Gu@physx@@QEAAXAEBT__m128@@000I00PEAVMeshPersistentContact@23@AEAI@Z 00000001800eb780 f   GuPCMContactConvexCommon.obj
 0001:000eaa00       ?generateEEMTD@PCMCapsuleVsMeshContactGeneration@Gu@physx@@SAXAEBT__m128@@000I00PEAVMeshPersistentContact@23@AEAI@Z 00000001800eba00 f   GuPCMContactConvexCommon.obj
 0001:000eac50       ?generateLastContacts@PCMConvexVsMeshContactGeneration@Gu@physx@@QEAAXXZ 00000001800ebc50 f   GuPCMContactConvexCommon.obj
 0001:000eb1c0       ?generateLastContacts@PCMSphereVsMeshContactGeneration@Gu@physx@@QEAAXXZ 00000001800ec1c0 f   GuPCMContactConvexCommon.obj
 0001:000eb5c0       ?growAndPushBack@?$Array@USortedTriangle@Gu@physx@@V?$InlineAllocator@$0IAA@V?$ReflectionAllocator@USortedTriangle@Gu@physx@@@shdfnd@physx@@@shdfnd@3@@shdfnd@physx@@IEAAAEAUSortedTriangle@Gu@3@AEBU453@@Z 00000001800ec5c0 f i GuPCMContactConvexCommon.obj
 0001:000ebc40       ?pcmDistanceSegmentTriangleSquared@Gu@physx@@YA?AT__m128@@AEBT3@0000AEAT3@11@Z 00000001800ecc40 f   GuPCMContactConvexCommon.obj
 0001:000ec580       ?populateVerts@?$SupportLocalImpl@VTriangleV@Gu@physx@@@Gu@physx@@UEBAXPEBEIPEBVPxVec3@3@PEAT__m128@@@Z 00000001800ed580 f i GuPCMContactConvexCommon.obj
 0001:000ec6c0       ?processTriangle@PCMCapsuleVsMeshContactGeneration@Gu@physx@@QEAA_NPEBVPxVec3@3@IEPEBI@Z 00000001800ed6c0 f   GuPCMContactConvexCommon.obj
 0001:000ed2b0       ?processTriangle@PCMCapsuleVsMeshContactGeneration@Gu@physx@@SA_NAEBVTriangleV@23@IAEBVCapsuleV@23@AEBT__m128@@EPEAVMeshPersistentContact@23@AEAI@Z 00000001800ee2b0 f   GuPCMContactConvexCommon.obj
 0001:000ed5f0       ?processTriangle@PCMConvexVsMeshContactGeneration@Gu@physx@@QEAA_NPEBVPxVec3@3@IEPEBI@Z 00000001800ee5f0 f   GuPCMContactConvexCommon.obj
 0001:000edb40       ?processTriangle@PCMConvexVsMeshContactGeneration@Gu@physx@@SA_NAEBUPolygonalData@23@PEAVSupportLocal@23@PEBVPxVec3@3@IEAEBT__m128@@_NAEBVPsTransformV@aos@shdfnd@3@AEBVPsMatTransformV@9shdfnd@3@PEAVMeshPersistentContact@23@AEAI@Z 00000001800eeb40 f   GuPCMContactConvexCommon.obj
 0001:000eddc0       ?processTriangle@PCMSphereVsMeshContactGeneration@Gu@physx@@QEAA_NPEBVPxVec3@3@IEPEBI@Z 00000001800eedc0 f   GuPCMContactConvexCommon.obj
 0001:000ee1d0       ??$gjkPenetration@U?$RelativeConvex@VConvexHullNoScaleV@Gu@physx@@@Gu@physx@@U?$LocalConvex@VConvexHullNoScaleV@Gu@physx@@@23@@Gu@physx@@YA?AW4GjkStatus@01@AEBU?$RelativeConvex@VConvexHullNoScaleV@Gu@physx@@@01@AEBU?$LocalConvex@VConvexHullNoScaleV@Gu@physx@@@01@AEBT__m128@@2_NPEIAE4AEAEAEAUGjkOutput@01@@Z 00000001800ef1d0 f i GuPCMContactConvexConvex.obj
 0001:000ef790       ??$gjkPenetration@U?$RelativeConvex@VConvexHullNoScaleV@Gu@physx@@@Gu@physx@@U?$LocalConvex@VConvexHullV@Gu@physx@@@23@@Gu@physx@@YA?AW4GjkStatus@01@AEBU?$RelativeConvex@VConvexHullNoScaleV@Gu@physx@@@01@AEBU?$LocalConvex@VConvexHullV@Gu@physx@@@01@AEBT__m128@@2_NPEIAE4AEAEAEAUGjkOutput@01@@Z 00000001800f0790 f i GuPCMContactConvexConvex.obj
 0001:000f0e00       ??$gjkPenetration@U?$RelativeConvex@VConvexHullV@Gu@physx@@@Gu@physx@@U?$LocalConvex@VConvexHullNoScaleV@Gu@physx@@@23@@Gu@physx@@YA?AW4GjkStatus@01@AEBU?$RelativeConvex@VConvexHullV@Gu@physx@@@01@AEBU?$LocalConvex@VConvexHullNoScaleV@Gu@physx@@@01@AEBT__m128@@2_NPEIAE4AEAEAEAUGjkOutput@01@@Z 00000001800f1e00 f i GuPCMContactConvexConvex.obj
 0001:000f2e60       ?pcmContactConvexConvex@Gu@physx@@YA_NAEBVGeometryUnion@12@0AEBVPxTransform@2@1AEBUNarrowPhaseParams@12@AEAUCache@12@AEAVContactBuffer@12@PEAVRenderOutput@Cm@2@@Z 00000001800f3e60 f   GuPCMContactConvexConvex.obj
 0001:000f3fc0       ?support@?$RelativeConvex@VConvexHullNoScaleV@Gu@physx@@@Gu@physx@@UEBA?AT__m128@@AEBT4@@Z 00000001800f4fc0 f i GuPCMContactConvexConvex.obj
 0001:000f4070       ?support@?$RelativeConvex@VConvexHullNoScaleV@Gu@physx@@@Gu@physx@@UEBA?AT__m128@@AEBT4@AEAH@Z 00000001800f5070 f i GuPCMContactConvexConvex.obj
 0001:000f4130       ?supportPoint@?$RelativeConvex@VConvexHullNoScaleV@Gu@physx@@@Gu@physx@@UEBA?AT__m128@@H@Z 00000001800f5130 f i GuPCMContactConvexConvex.obj
 0001:000f4190       ??_EPCMConvexVsHeightfieldContactGenerationCallback@physx@@UEAAPEAXI@Z 00000001800f5190 f i GuPCMContactConvexHeightField.obj
 0001:000f4190       ??_GPCMConvexVsHeightfieldContactGenerationCallback@physx@@UEAAPEAXI@Z 00000001800f5190 f i GuPCMContactConvexHeightField.obj
 0001:000f41c0       ?PCMContactConvexHeightfield@Gu@physx@@YA_NAEBUPolygonalData@12@PEAVSupportLocal@12@AEBT__m128@@AEBVPxBounds3@2@AEBVPxHeightFieldGeometry@2@AEBVPxTransform@2@5MAEAVContactBuffer@12@AEBVFastVertex2ShapeScaling@Cm@2@_NAEAVMultiplePersistentContactManifold@12@PEAVRenderOutput@Cm@2@@Z 00000001800f51c0 f   GuPCMContactConvexHeightField.obj
 0001:000f4ca0       ?onEvent@?$PCMHeightfieldContactGenerationCallback@UPCMConvexVsHeightfieldContactGenerationCallback@physx@@@Gu@physx@@UEAA_NIPEAI@Z 00000001800f5ca0 f i GuPCMContactConvexHeightField.obj
 0001:000f5250       ?pcmContactBoxHeightField@Gu@physx@@YA_NAEBVGeometryUnion@12@0AEBVPxTransform@2@1AEBUNarrowPhaseParams@12@AEAUCache@12@AEAVContactBuffer@12@PEAVRenderOutput@Cm@2@@Z 00000001800f6250 f   GuPCMContactConvexHeightField.obj
 0001:000f54d0       ?pcmContactConvexHeightField@Gu@physx@@YA_NAEBVGeometryUnion@12@0AEBVPxTransform@2@1AEBUNarrowPhaseParams@12@AEAUCache@12@AEAVContactBuffer@12@PEAVRenderOutput@Cm@2@@Z 00000001800f64d0 f   GuPCMContactConvexHeightField.obj
 0001:000f5b70       ??$processTriangleCache@$0BA@@PCMConvexVsMeshContactGenerationCallback@physx@@QEAAXAEAU?$TriangleCache@$0BA@@Gu@1@@Z 00000001800f6b70 f i GuPCMContactConvexMesh.obj
 0001:000f5c00       ??_EPCMConvexVsMeshContactGenerationCallback@physx@@UEAAPEAXI@Z 00000001800f6c00 f i GuPCMContactConvexMesh.obj
 0001:000f5c00       ??_GPCMConvexVsMeshContactGenerationCallback@physx@@UEAAPEAXI@Z 00000001800f6c00 f i GuPCMContactConvexMesh.obj
 0001:000f5c30       ?PCMContactConvexMesh@Gu@physx@@YA_NAEBUPolygonalData@12@PEAVSupportLocal@12@AEBT__m128@@AEBVPxBounds3@2@AEBUPxTriangleMeshGeometryLL@2@AEBVPxTransform@2@5MAEAVContactBuffer@12@AEBVFastVertex2ShapeScaling@Cm@2@7_N8AEAVMultiplePersistentContactManifold@12@PEAVRenderOutput@Cm@2@@Z 00000001800f6c30 f   GuPCMContactConvexMesh.obj
 0001:000f6800       ?pcmContactBoxMesh@Gu@physx@@YA_NAEBVGeometryUnion@12@0AEBVPxTransform@2@1AEBUNarrowPhaseParams@12@AEAUCache@12@AEAVContactBuffer@12@PEAVRenderOutput@Cm@2@@Z 00000001800f7800 f   GuPCMContactConvexMesh.obj
 0001:000f6b20       ?pcmContactConvexMesh@Gu@physx@@YA_NAEBVGeometryUnion@12@0AEBVPxTransform@2@1AEBUNarrowPhaseParams@12@AEAUCache@12@AEAVContactBuffer@12@PEAVRenderOutput@Cm@2@@Z 00000001800f7b20 f   GuPCMContactConvexMesh.obj
 0001:000f72d0       ?processHit@?$PCMMeshContactGenerationCallback@UPCMConvexVsMeshContactGenerationCallback@physx@@@Gu@physx@@UEAA_NAEBUPxRaycastHit@3@AEBVPxVec3@3@11AEAMPEBI@Z 00000001800f82d0 f i GuPCMContactConvexMesh.obj
 0001:000f7700       ?addGJKEPAContacts@Gu@physx@@YA_NPEBUGjkConvex@12@0AEBVPsMatTransformV@aos@shdfnd@2@W4GjkStatus@12@PEAVPersistentContact@12@T__m128@@4AEAUGjkOutput@12@AEAVPersistentContactManifold@12@@Z 00000001800f8700 f   GuPCMContactGenBoxConvex.obj
 0001:000f7900       ?buildPartialHull@Gu@physx@@YAXAEBUPolygonalData@12@PEAVSupportLocal@12@AEAVSeparatingAxes@12@AEBT__m128@@3@Z 00000001800f8900 f   GuPCMContactGenBoxConvex.obj
 0001:000f7be0       ?computeMTD@Gu@physx@@YA_NAEAUPolygonalData@12@0PEAVSupportLocal@12@1AEAT__m128@@2@Z 00000001800f8be0 f   GuPCMContactGenBoxConvex.obj
 0001:000f8240       ?generateFullContactManifold@Gu@physx@@YA_NAEAUPolygonalData@12@0PEAVSupportLocal@12@1PEAVPersistentContact@12@AEAIAEBT__m128@@444MM_NPEAVRenderOutput@Cm@2@M@Z 00000001800f9240 f   GuPCMContactGenBoxConvex.obj
 0001:000f9ad0       ?generatedContacts@Gu@physx@@YAXAEAUPolygonalData@12@0AEBUHullPolygonData@12@1PEAVSupportLocal@12@2AEBVPsMatTransformV@aos@shdfnd@2@PEAVPersistentContact@12@AEAIAEBT__m128@@PEAVRenderOutput@Cm@2@@Z 00000001800faad0 f   GuPCMContactGenBoxConvex.obj
 0001:000fb1d0       ?computeMTD@Gu@physx@@YA_NAEBVCapsuleV@12@AEAUPolygonalData@12@PEAVSupportLocal@12@AEAT__m128@@3@Z 00000001800fc1d0 f   GuPCMContactGenSphereCapsule.obj
 0001:000fb2c0       ?generateCapsuleBoxFullContactManifold@Gu@physx@@YA_NAEBVCapsuleV@12@AEAUPolygonalData@12@PEAVSupportLocal@12@AEBVPsMatTransformV@aos@shdfnd@2@PEAVPersistentContact@12@AEAIAEBT__m128@@AEAT__m128@@6M_NMPEAVRenderOutput@Cm@2@@Z 00000001800fc2c0 f   GuPCMContactGenSphereCapsule.obj
 0001:000fbb30       ?generateFullContactManifold@Gu@physx@@YA_NAEBVCapsuleV@12@AEAUPolygonalData@12@PEAVSupportLocal@12@AEBVPsMatTransformV@aos@shdfnd@2@PEAVPersistentContact@12@AEAIAEBT__m128@@AEAT__m128@@6M_NM@Z 00000001800fcb30 f   GuPCMContactGenSphereCapsule.obj
 0001:000fc430       ?generateSphereFullContactManifold@Gu@physx@@YA_NAEBVCapsuleV@12@AEAUPolygonalData@12@PEAVSupportLocal@12@PEAVPersistentContact@12@AEAIAEBT__m128@@AEAT7@_N@Z 00000001800fd430 f   GuPCMContactGenSphereCapsule.obj
 0001:000fc860       ?generatedCapsuleBoxFaceContacts@Gu@physx@@YAXAEBVCapsuleV@12@AEAUPolygonalData@12@AEBUHullPolygonData@12@PEAVSupportLocal@12@AEBVPsMatTransformV@aos@shdfnd@2@PEAVPersistentContact@12@AEAIAEBT__m128@@7@Z 00000001800fd860 f   GuPCMContactGenSphereCapsule.obj
 0001:000fd000       ?generatedContactsEEContacts@Gu@physx@@YAXAEBVCapsuleV@12@AEAUPolygonalData@12@AEBUHullPolygonData@12@PEAVSupportLocal@12@AEBVPsMatTransformV@aos@shdfnd@2@PEAVPersistentContact@12@AEAIAEBT__m128@@7@Z 00000001800fe000 f   GuPCMContactGenSphereCapsule.obj
 0001:000fdc90       ?pcmContactPlaneBox@Gu@physx@@YA_NAEBVGeometryUnion@12@0AEBVPxTransform@2@1AEBUNarrowPhaseParams@12@AEAUCache@12@AEAVContactBuffer@12@PEAVRenderOutput@Cm@2@@Z 00000001800fec90 f   GuPCMContactPlaneBox.obj
 0001:000fe880       ?pcmContactPlaneCapsule@Gu@physx@@YA_NAEBVGeometryUnion@12@0AEBVPxTransform@2@1AEBUNarrowPhaseParams@12@AEAUCache@12@AEAVContactBuffer@12@PEAVRenderOutput@Cm@2@@Z 00000001800ff880 f   GuPCMContactPlaneCapsule.obj
 0001:000ff020       ?pcmContactPlaneConvex@Gu@physx@@YA_NAEBVGeometryUnion@12@0AEBVPxTransform@2@1AEBUNarrowPhaseParams@12@AEAUCache@12@AEAVContactBuffer@12@PEAVRenderOutput@Cm@2@@Z 0000000180100020 f   GuPCMContactPlaneConvex.obj
 0001:000ff990       ?pcmContactSphereBox@Gu@physx@@YA_NAEBVGeometryUnion@12@0AEBVPxTransform@2@1AEBUNarrowPhaseParams@12@AEAUCache@12@AEAVContactBuffer@12@PEAVRenderOutput@Cm@2@@Z 0000000180100990 f   GuPCMContactSphereBox.obj
 0001:000ffe00       ?pcmContactSphereCapsule@Gu@physx@@YA_NAEBVGeometryUnion@12@0AEBVPxTransform@2@1AEBUNarrowPhaseParams@12@AEAUCache@12@AEAVContactBuffer@12@PEAVRenderOutput@Cm@2@@Z 0000000180100e00 f   GuPCMContactSphereCapsule.obj
 0001:00100250       ?pcmContactSphereConvex@Gu@physx@@YA_NAEBVGeometryUnion@12@0AEBVPxTransform@2@1AEBUNarrowPhaseParams@12@AEAUCache@12@AEAVContactBuffer@12@PEAVRenderOutput@Cm@2@@Z 0000000180101250 f   GuPCMContactSphereConvex.obj
 0001:00100f30       ??1?$Array@USortedTriangle@Gu@physx@@V?$InlineAllocator@$0IAA@V?$ReflectionAllocator@USortedTriangle@Gu@physx@@@shdfnd@physx@@@shdfnd@3@@shdfnd@physx@@QEAA@XZ 0000000180101f30 f i GuPCMContactSphereHeightField.obj
 0001:00100fa0       ??_EPCMSphereVsHeightfieldContactGenerationCallback@physx@@UEAAPEAXI@Z 0000000180101fa0 f i GuPCMContactSphereHeightField.obj
 0001:00100fa0       ??_GPCMSphereVsHeightfieldContactGenerationCallback@physx@@UEAAPEAXI@Z 0000000180101fa0 f i GuPCMContactSphereHeightField.obj
 0001:00100ff0       ?onEvent@?$PCMHeightfieldContactGenerationCallback@UPCMSphereVsHeightfieldContactGenerationCallback@physx@@@Gu@physx@@UEAA_NIPEAI@Z 0000000180101ff0 f i GuPCMContactSphereHeightField.obj
 0001:001015a0       ?pcmContactSphereHeightField@Gu@physx@@YA_NAEBVGeometryUnion@12@0AEBVPxTransform@2@1AEBUNarrowPhaseParams@12@AEAUCache@12@AEAVContactBuffer@12@PEAVRenderOutput@Cm@2@@Z 00000001801025a0 f   GuPCMContactSphereHeightField.obj
 0001:00102060       ??$processTriangleCache@$0BA@@PCMSphereVsMeshContactGenerationCallback@physx@@QEAAXAEAU?$TriangleCache@$0BA@@Gu@1@@Z 0000000180103060 f i GuPCMContactSphereMesh.obj
 0001:001020f0       ??_EPCMSphereVsMeshContactGenerationCallback@physx@@UEAAPEAXI@Z 00000001801030f0 f i GuPCMContactSphereMesh.obj
 0001:001020f0       ??_GPCMSphereVsMeshContactGenerationCallback@physx@@UEAAPEAXI@Z 00000001801030f0 f i GuPCMContactSphereMesh.obj
 0001:00102140       ?pcmContactSphereMesh@Gu@physx@@YA_NAEBVGeometryUnion@12@0AEBVPxTransform@2@1AEBUNarrowPhaseParams@12@AEAUCache@12@AEAVContactBuffer@12@PEAVRenderOutput@Cm@2@@Z 0000000180103140 f   GuPCMContactSphereMesh.obj
 0001:00102d60       ?processHit@?$PCMMeshContactGenerationCallback@UPCMSphereVsMeshContactGenerationCallback@physx@@@Gu@physx@@UEAA_NAEBUPxRaycastHit@3@AEBVPxVec3@3@11AEAMPEBI@Z 0000000180103d60 f i GuPCMContactSphereMesh.obj
 0001:00103130       ?pcmContactSpherePlane@Gu@physx@@YA_NAEBVGeometryUnion@12@0AEBVPxTransform@2@1AEBUNarrowPhaseParams@12@AEAUCache@12@AEAVContactBuffer@12@PEAVRenderOutput@Cm@2@@Z 0000000180104130 f   GuPCMContactSpherePlane.obj
 0001:001032c0       ?pcmContactSphereSphere@Gu@physx@@YA_NAEBVGeometryUnion@12@0AEBVPxTransform@2@1AEBUNarrowPhaseParams@12@AEAUCache@12@AEAVContactBuffer@12@PEAVRenderOutput@Cm@2@@Z 00000001801042c0 f   GuPCMContactSphereSphere.obj
 0001:001033a0       ?getPCMConvexData@Gu@physx@@YAXAEBVConvexHullV@12@_NAEAUPolygonalData@12@@Z 00000001801043a0 f   GuPCMShapeConvex.obj
 0001:00103500       ?getPCMConvexData@Gu@physx@@YA_NAEBVGeometryUnion@12@AEAVFastVertex2ShapeScaling@Cm@2@AEAVPxBounds3@2@AEAUPolygonalData@12@@Z 0000000180104500 f   GuPCMShapeConvex.obj
 0001:001038c0       ?getPolygonalData@PCMPolygonalBox@Gu@physx@@QEBAXPEIAUPolygonalData@23@@Z 00000001801048c0 f   GuPCMShapeConvex.obj
 0001:00103910       ?generatePolyDataContactManifold@PCMConvexVsMeshContactGeneration@Gu@physx@@QEAA_NAEAVTriangleV@23@IIEPEAVMeshPersistentContact@23@AEAIAEBT__m128@@AEAT6@@Z 0000000180104910 f   GuPCMTriangleContactGen.obj
 0001:00103a30       ?generateTriangleFullContactManifold@PCMConvexVsMeshContactGeneration@Gu@physx@@QEAA_NAEAVTriangleV@23@IPEBIEAEBUPolygonalData@23@PEAV?$SupportLocalImpl@VTriangleV@Gu@physx@@@23@PEAVSupportLocal@23@PEAVMeshPersistentContact@23@AEAIAEBT__m128@@AEAT9@@Z 0000000180104a30 f   GuPCMTriangleContactGen.obj
 0001:00104330       ?generateTriangleFullContactManifold@PCMConvexVsMeshContactGeneration@Gu@physx@@SA_NAEAVTriangleV@23@IEAEBUPolygonalData@23@PEAV?$SupportLocalImpl@VTriangleV@Gu@physx@@@23@PEAVSupportLocal@23@PEAVMeshPersistentContact@23@AEAIAEBT__m128@@AEAT9@PEAVRenderOutput@Cm@3@@Z 0000000180105330 f   GuPCMTriangleContactGen.obj
 0001:00106a80       ?addBatchManifoldContacts2@PersistentContactManifold@Gu@physx@@QEAAXPEBVPersistentContact@23@I@Z 0000000180107a80 f   GuPersistentContactManifold.obj
 0001:00106af0       ?addBatchManifoldContacts@PersistentContactManifold@Gu@physx@@QEAAXPEBVPersistentContact@23@IM@Z 0000000180107af0 f   GuPersistentContactManifold.obj
 0001:00106b70       ?addBatchManifoldContactsCluster@PersistentContactManifold@Gu@physx@@QEAAXPEBVPersistentContact@23@I@Z 0000000180107b70 f   GuPersistentContactManifold.obj
 0001:00106df0       ?addManifoldContactPoints@MultiplePersistentContactManifold@Gu@physx@@QEAAXPEAVMeshPersistentContact@23@IPEAPEAUPCMContactPatch@23@IAEBT__m128@@2E@Z 0000000180107df0 f   GuPersistentContactManifold.obj
 0001:001071e0       ?addManifoldContactsToContactBuffer@MultiplePersistentContactManifold@Gu@physx@@QEAA_NAEAVContactBuffer@23@AEBVPsTransformV@aos@shdfnd@3@1AEBT__m128@@@Z 00000001801081e0 f   GuPersistentContactManifold.obj
 0001:001074a0       ?addManifoldContactsToContactBuffer@MultiplePersistentContactManifold@Gu@physx@@QEAA_NAEAVContactBuffer@23@AEBVPsTransformV@aos@shdfnd@3@@Z 00000001801084a0 f   GuPersistentContactManifold.obj
 0001:00107730       ?addManifoldContactsToContactBuffer@PersistentContactManifold@Gu@physx@@QEAAXAEAVContactBuffer@23@AEBT__m128@@1AEBVPsTransformV@aos@shdfnd@3@11@Z 0000000180108730 f   GuPersistentContactManifold.obj
 0001:001078c0       ?addManifoldContactsToContactBuffer@PersistentContactManifold@Gu@physx@@QEAAXAEAVContactBuffer@23@AEBT__m128@@AEBVPsMatTransformV@aos@shdfnd@3@@Z 00000001801088c0 f   GuPersistentContactManifold.obj
 0001:00107960       ?addManifoldContactsToContactBuffer@PersistentContactManifold@Gu@physx@@QEAAXAEAVContactBuffer@23@AEBT__m128@@AEBVPsTransformV@aos@shdfnd@3@1@Z 0000000180108960 f   GuPersistentContactManifold.obj
 0001:00107ac0       ?addManifoldPoint2@PersistentContactManifold@Gu@physx@@QEAAIAEBT__m128@@000@Z 0000000180108ac0 f   GuPersistentContactManifold.obj
 0001:00107bf0       ?addManifoldPoint@Gu@physx@@YAXPEAVPersistentContact@12@AEAVPersistentContactManifold@12@AEAUGjkOutput@12@AEBVPsMatTransformV@aos@shdfnd@2@T__m128@@@Z 0000000180108bf0 f   GuPersistentContactManifold.obj
 0001:00107da0       ?addManifoldPoint@PersistentContactManifold@Gu@physx@@QEAAIAEBT__m128@@000@Z 0000000180108da0 f   GuPersistentContactManifold.obj
 0001:001081f0       ?drawLine@MultiplePersistentContactManifold@Gu@physx@@SAXAEAVRenderOutput@Cm@3@AEBT__m128@@1I@Z 00000001801091f0 f   GuPersistentContactManifold.obj
 0001:001082b0       ?drawLine@MultiplePersistentContactManifold@Gu@physx@@SAXAEAVRenderOutput@Cm@3@VPxVec3@3@1I@Z 00000001801092b0 f   GuPersistentContactManifold.obj
 0001:00108370       ?drawManifold@MultiplePersistentContactManifold@Gu@physx@@QEAAXAEAVRenderOutput@Cm@3@AEBVPsTransformV@aos@shdfnd@3@1@Z 0000000180109370 f   GuPersistentContactManifold.obj
 0001:00108b20       ?drawPoint@MultiplePersistentContactManifold@Gu@physx@@SAXAEAVRenderOutput@Cm@3@AEBT__m128@@MI@Z 0000000180109b20 f   GuPersistentContactManifold.obj
 0001:00108d00       ?drawPolygon@MultiplePersistentContactManifold@Gu@physx@@SAXAEAVRenderOutput@Cm@3@AEBVPsTransformV@aos@shdfnd@3@PEAT__m128@@II@Z 0000000180109d00 f   GuPersistentContactManifold.obj
 0001:00108f70       ?findRotationMatrixFromZAxis@Gu@physx@@YA?AUMat33V@aos@shdfnd@2@AEBT__m128@@@Z 0000000180109f70 f   GuPersistentContactManifold.obj
 0001:001091f0       ?fromBuffer@MultiplePersistentContactManifold@Gu@physx@@QEAAXPEIAE@Z 000000018010a1f0 f   GuPersistentContactManifold.obj
 0001:00109340       ?reduceBatchContacts2@PersistentContactManifold@Gu@physx@@QEAAXPEBVPersistentContact@23@I@Z 000000018010a340 f   GuPersistentContactManifold.obj
 0001:00109540       ?reduceBatchContacts@PersistentContactManifold@Gu@physx@@QEAAXPEBVPersistentContact@23@IM@Z 000000018010a540 f   GuPersistentContactManifold.obj
 0001:00109a10       ?reduceBatchContactsCapsule@SinglePersistentContactManifold@Gu@physx@@QEAA?AT__m128@@PEBVMeshPersistentContact@23@IAEAUPCMContactPatch@23@@Z 000000018010aa10 f   GuPersistentContactManifold.obj
 0001:00109ca0       ?reduceBatchContactsCluster@PersistentContactManifold@Gu@physx@@QEAAXPEBVPersistentContact@23@I@Z 000000018010aca0 f   GuPersistentContactManifold.obj
 0001:0010a140       ?reduceBatchContactsConvex@SinglePersistentContactManifold@Gu@physx@@QEAA?AT__m128@@PEBVMeshPersistentContact@23@IAEAUPCMContactPatch@23@@Z 000000018010b140 f   GuPersistentContactManifold.obj
 0001:0010a740       ?reduceContacts@SinglePersistentContactManifold@Gu@physx@@SAIPEAVMeshPersistentContact@23@I@Z 000000018010b740 f   GuPersistentContactManifold.obj
 0001:0010ac50       ?reduceContactsForPCM@PersistentContactManifold@Gu@physx@@QEAAIAEBT__m128@@00@Z 000000018010bc50 f   GuPersistentContactManifold.obj
 0001:0010b1f0       ?refreshContactPoints@SinglePersistentContactManifold@Gu@physx@@QEAA?AT__m128@@AEBVPsMatTransformV@aos@shdfnd@3@AEBT4@1@Z 000000018010c1f0 f   GuPersistentContactManifold.obj
 0001:0010b340       ?replaceManifoldPoint@PersistentContactManifold@Gu@physx@@QEAA_NAEBT__m128@@000@Z 000000018010c340 f   GuPersistentContactManifold.obj
 0001:0010b400       ?sweepBoxBox@Gu@physx@@YA_NAEBVBox@12@0AEBVPxVec3@2@MV?$PxFlags@W4Enum@PxHitFlag@physx@@G@2@AEAUPxSweepHit@2@@Z 000000018010c400 f   GuSweepBoxBox.obj
 0001:0010ca40       ?sweepBoxSphere@Gu@physx@@YA_NAEBVBox@12@MAEBVPxVec3@2@1MAEAMAEAV42@V?$PxFlags@W4Enum@PxHitFlag@physx@@G@2@@Z 000000018010da40 f   GuSweepBoxSphere.obj
 0001:0010d700       ?sweepBoxTriangle@Gu@physx@@YA_NAEBVPxTriangle@2@AEBVPxBounds3@2@AEBVPxVec3@2@2AEAV52@3AEAM_N@Z 000000018010e700 f   GuSweepBoxTriangle_FeatureBased.obj
 0001:0010ee20       ?triBoxSweepTestBoxSpace@Gu@physx@@YAHAEBVPxTriangle@2@AEBVPxVec3@2@11MAEAM_N@Z 000000018010fe20 f   GuSweepBoxTriangle_SAT.obj
 0001:00110720       ?sweepCapsuleBox@Gu@physx@@YA_NAEBVCapsule@12@AEBVPxTransform@2@AEBVPxVec3@2@2MAEAV52@AEAM3V?$PxFlags@W4Enum@PxHitFlag@physx@@G@2@@Z 0000000180111720 f   GuSweepCapsuleBox.obj
 0001:00110aa0       ?distancePointSegmentSquared@Gu@physx@@YAMAEBVSegment@12@AEBVPxVec3@2@PEAM@Z 0000000180111aa0 f i GuSweepCapsuleCapsule.obj
 0001:00110e20       ?sweepCapsuleCapsule@Gu@physx@@YA_NAEBVCapsule@12@0AEBVPxVec3@2@MAEAMAEAV42@3IAEAG@Z 0000000180111e20 f   GuSweepCapsuleCapsule.obj
 0001:00111c30       ?sweepCapsuleTriangles_Precise@Gu@physx@@YA_NIPEIBVPxTriangle@2@AEBVCapsule@12@AEBVPxVec3@2@MPEIBIAEAUPxSweepHit@2@AEAV52@V?$PxFlags@W4Enum@PxHitFlag@physx@@G@2@_NPEBVBoxPadded@12@@Z 0000000180112c30 f   GuSweepCapsuleTriangle.obj
 0001:00113db0       ?sweepSphereCapsule@Gu@physx@@YA_NAEBVSphere@12@AEBVCapsule@12@AEBVPxVec3@2@MAEAMAEAV52@4V?$PxFlags@W4Enum@PxHitFlag@physx@@G@2@@Z 0000000180114db0 f   GuSweepSphereCapsule.obj
 0001:00114450       ?sweepSphereSphere@Gu@physx@@YA_NAEBVPxVec3@2@M0M0AEAMAEAV32@@Z 0000000180115450 f   GuSweepSphereSphere.obj
 0001:001146c0       ?sweepSphereTriangles@Gu@physx@@YA_NIPEIBVPxTriangle@2@AEBVPxVec3@2@M1MPEIBIAEAUPxSweepHit@2@AEAV42@_N555@Z 00000001801156c0 f   GuSweepSphereTriangle.obj
 0001:00114f90       ?sweepSphereVSQuad@Gu@physx@@YA_NPEIBVPxVec3@2@AEBV32@1M1AEAM@Z 0000000180115f90 f   GuSweepSphereTriangle.obj
 0001:001164f0       ?sweepSphereVSTri@Gu@physx@@YA_NPEIBVPxVec3@2@AEBV32@1M1AEAMAEA_N_N@Z 00000001801174f0 f   GuSweepSphereTriangle.obj
 0001:001173c0       ??$gjk@U?$LocalConvex@VTriangleV@Gu@physx@@@Gu@physx@@U?$LocalConvex@VBoxV@Gu@physx@@@23@@Gu@physx@@YA?AW4GjkStatus@01@AEBU?$LocalConvex@VTriangleV@Gu@physx@@@01@AEBU?$LocalConvex@VBoxV@Gu@physx@@@01@AEBT__m128@@2AEAT5@333@Z 00000001801183c0 f i GuSweepTriangleUtils.obj
 0001:001180b0       ?computeBoxTriImpactData@Gu@physx@@YAXAEAVPxVec3@2@0AEBV32@1AEBVPxTriangle@2@M@Z 00000001801190b0 f   GuSweepTriangleUtils.obj
 0001:00118340       ?computeEdgeEdgeNormal@Gu@physx@@YAXAEAVPxVec3@2@AEBV32@1111M@Z 0000000180119340 f   GuSweepTriangleUtils.obj
 0001:00118600       ?computeSphereTriImpactData@Gu@physx@@YAXAEAVPxVec3@2@0AEBV32@1MAEBVPxTriangle@2@@Z 0000000180119600 f   GuSweepTriangleUtils.obj
 0001:00118adc       __imp_load_PxGetFoundation 0000000180119adc f   PhysXFoundation_64:PhysXFoundation_64.dll
 0001:00118ae8       __tailMerge_physxfoundation_64_dll 0000000180119ae8     PhysXFoundation_64:PhysXFoundation_64.dll
 0001:00118b61       __imp_load_?getAllocator@shdfnd@physx@@YAAEAVPxAllocatorCallback@2@XZ 0000000180119b61 f   PhysXFoundation_64:PhysXFoundation_64.dll
 0001:00118b6d       __imp_load_?getInstance@Foundation@shdfnd@physx@@SAAEAV123@XZ 0000000180119b6d f   PhysXFoundation_64:PhysXFoundation_64.dll
 0001:00118b79       __imp_load_?error@Foundation@shdfnd@physx@@QEAAXW4Enum@PxErrorCode@3@PEBDH1ZZ 0000000180119b79 f   PhysXFoundation_64:PhysXFoundation_64.dll
 0001:00118b85       __imp_load_?vsnprintf@shdfnd@physx@@YAHPEAD_KPEBD0@Z 0000000180119b85 f   PhysXFoundation_64:PhysXFoundation_64.dll
 0001:00118b91       __imp_load_??0MutexImpl@shdfnd@physx@@QEAA@XZ 0000000180119b91 f   PhysXFoundation_64:PhysXFoundation_64.dll
 0001:00118b9d       __imp_load_??1MutexImpl@shdfnd@physx@@QEAA@XZ 0000000180119b9d f   PhysXFoundation_64:PhysXFoundation_64.dll
 0001:00118ba9       __imp_load_?lock@MutexImpl@shdfnd@physx@@QEAAXXZ 0000000180119ba9 f   PhysXFoundation_64:PhysXFoundation_64.dll
 0001:00118bb5       __imp_load_?unlock@MutexImpl@shdfnd@physx@@QEAAXXZ 0000000180119bb5 f   PhysXFoundation_64:PhysXFoundation_64.dll
 0001:00118bc1       __imp_load_?getSize@MutexImpl@shdfnd@physx@@SAIXZ 0000000180119bc1 f   PhysXFoundation_64:PhysXFoundation_64.dll
 0001:00118bcd       __imp_load_?atomicDecrement@shdfnd@physx@@YAHPECH@Z 0000000180119bcd f   PhysXFoundation_64:PhysXFoundation_64.dll
 0001:00118bd9       __imp_load_?PxTransformFromSegment@physx@@YA?AVPxTransform@1@AEBVPxVec3@1@0PEAM@Z 0000000180119bd9 f   PhysXFoundation_64:PhysXFoundation_64.dll
 0001:00118be5       __imp_load_?optimizeBoundingBox@shdfnd@physx@@YA?AVPxVec3@2@AEAVPxMat33@2@@Z 0000000180119be5 f   PhysXFoundation_64:PhysXFoundation_64.dll
 0001:00118bf1       __imp_load_?allocate@TempAllocator@shdfnd@physx@@QEAAPEAX_KPEBDH@Z 0000000180119bf1 f   PhysXFoundation_64:PhysXFoundation_64.dll
 0001:00118bfd       __imp_load_?deallocate@TempAllocator@shdfnd@physx@@QEAAXPEAX@Z 0000000180119bfd f   PhysXFoundation_64:PhysXFoundation_64.dll
 0001:00118c09       __imp_load_?atomicIncrement@shdfnd@physx@@YAHPECH@Z 0000000180119c09 f   PhysXFoundation_64:PhysXFoundation_64.dll
 0001:00118c15       __imp_load_PxGetProfilerCallback 0000000180119c15 f   PhysXFoundation_64:PhysXFoundation_64.dll
 0001:00118c24       ?DloadAcquireSectionWriteAccess@@YAXXZ 0000000180119c24 f i Delayimp:delayhlp.obj
 0001:00118cd0       ?DloadGetSRWLockFunctionPointers@@YAEXZ 0000000180119cd0 f i Delayimp:delayhlp.obj
 0001:00118d70       ?DloadMakePermanentImageCommit@@YAXPEAX_K@Z 0000000180119d70 f i Delayimp:delayhlp.obj
 0001:00118e08       ?DloadObtainSection@@YAPEAXPEAK0@Z 0000000180119e08 f i Delayimp:delayhlp.obj
 0001:00118ea4       ?DloadProtectSection@@YAXKPEAK@Z 0000000180119ea4 f i Delayimp:delayhlp.obj
 0001:00118f34       ?DloadReleaseSectionWriteAccess@@YAXXZ 0000000180119f34 f i Delayimp:delayhlp.obj
 0001:00118fc8       __delayLoadHelper2         0000000180119fc8 f   Delayimp:delayhlp.obj
 0001:001192a0       ??3@YAXPEAX_K@Z            000000018011a2a0 f   LIBCMT:delete_scalar_size.obj
 0001:001192a0       ??_V@YAXPEAX@Z             000000018011a2a0 f   LIBCMT:delete_array.obj
 0001:001192a8       ??_Etype_info@@UEAAPEAXI@Z 000000018011a2a8 f i LIBCMT:std_type_info_static.obj
 0001:001192a8       ??_Gtype_info@@UEAAPEAXI@Z 000000018011a2a8 f i LIBCMT:std_type_info_static.obj
 0001:001192d4       ?__scrt_initialize_type_info@@YAXXZ 000000018011a2d4 f   LIBCMT:tncleanup.obj
 0001:001192e4       ?__scrt_uninitialize_type_info@@YAXXZ 000000018011a2e4 f   LIBCMT:tncleanup.obj
 0001:00119300       __chkstk                   000000018011a300 f   LIBCMT:chkstk.obj
 0001:00119300       _alloca_probe              000000018011a300 f   LIBCMT:chkstk.obj
 0001:00119350       __vdecl_sinf4              000000018011a350 f   LIBCMT:svml_ssinf4_dispatch.obj
 0001:00119370       __libm_sse2_sincosf_       000000018011a370 f   LIBCMT:svml_ssinf4_dispatch.obj
 0001:001193b3       __libm_sse2_sincosf4_      000000018011a3b3 f   LIBCMT:svml_ssinf4_dispatch.obj
 0001:001193c0       ??3@YAXPEAX@Z              000000018011a3c0 f   LIBCMT:delete_scalar.obj
 0001:001196e8       _DllMainCRTStartup         000000018011a6e8 f   LIBCMT:dll_dllmain.obj
 0001:00119728       __isa_available_init       000000018011a728 f   LIBCMT:cpu_disp.obj
 0001:001198e0       __sse2_sinf4@@16           000000018011a8e0 f   LIBCMT:svml_ssinf4_sse2.obj
 0001:0011a220       __sse4_sinf4@@16           000000018011b220 f   LIBCMT:svml_ssinf4_sse4.obj
 0001:0011a994       __security_init_cookie     000000018011b994 f   LIBCMT:gs_support.obj
 0001:0011aa40       __local_stdio_printf_options 000000018011ba40 f i LIBCMT:default_local_stdio_options.obj
 0001:0011aa48       __local_stdio_scanf_options 000000018011ba48 f i LIBCMT:default_local_stdio_options.obj
 0001:0011aa50       __scrt_initialize_default_local_stdio_options 000000018011ba50 f   LIBCMT:default_local_stdio_options.obj
 0001:0011aa6c       __scrt_acquire_startup_lock 000000018011ba6c f   LIBCMT:utility.obj
 0001:0011aaa8       __scrt_dllmain_after_initialize_c 000000018011baa8 f   LIBCMT:utility.obj
 0001:0011aadc       __scrt_dllmain_before_initialize_c 000000018011badc f   LIBCMT:utility.obj
 0001:0011aaf4       __scrt_dllmain_crt_thread_attach 000000018011baf4 f   LIBCMT:utility.obj
 0001:0011ab1c       __scrt_dllmain_crt_thread_detach 000000018011bb1c f   LIBCMT:utility.obj
 0001:0011ab34       __scrt_dllmain_exception_filter 000000018011bb34 f   LIBCMT:utility.obj
 0001:0011ab94       __scrt_dllmain_uninitialize_c 000000018011bb94 f   LIBCMT:utility.obj
 0001:0011abc4       __scrt_dllmain_uninitialize_critical 000000018011bbc4 f   LIBCMT:utility.obj
 0001:0011abd8       __scrt_initialize_crt      000000018011bbd8 f   LIBCMT:utility.obj
 0001:0011ac24       __scrt_initialize_onexit_tables 000000018011bc24 f   LIBCMT:utility.obj
 0001:0011acb0       __scrt_is_nonwritable_in_current_image 000000018011bcb0 f   LIBCMT:utility.obj
 0001:0011ad48       __scrt_release_startup_lock 000000018011bd48 f   LIBCMT:utility.obj
 0001:0011ad6c       __scrt_uninitialize_crt    000000018011bd6c f   LIBCMT:utility.obj
 0001:0011ad98       __scrt_get_dyn_tls_init_callback 000000018011bd98 f   LIBCMT:dyn_tls_init.obj
 0001:0011ada0       __crt_debugger_hook        000000018011bda0 f   LIBCMT:utility_desktop.obj
 0001:0011ada8       __scrt_fastfail            000000018011bda8 f   LIBCMT:utility_desktop.obj
 0001:0011aef4       _RTC_Initialize            000000018011bef4 f   LIBCMT:initsect.obj
 0001:0011af30       _RTC_Terminate             000000018011bf30 f   LIBCMT:initsect.obj
 0001:0011af70       __common_ssin_cout_rare    000000018011bf70 f   LIBCMT:svml_s_sin_cout.obj
 0001:0011afe0       __scrt_is_ucrt_dll_in_use  000000018011bfe0 f   LIBCMT:ucrt_detection.obj
 0001:0011afec       _get_purecall_handler      000000018011bfec f   libvcruntime:purevirt.obj
 0001:0011aff8       _purecall                  000000018011bff8 f   libvcruntime:purevirt.obj
 0001:0011b01c       __std_type_info_compare    000000018011c01c f   libvcruntime:std_type_info.obj
 0001:0011b044       __std_type_info_destroy_list 000000018011c044 f   libvcruntime:std_type_info.obj
 0001:0011b070       __std_type_info_name       000000018011c070 f   libvcruntime:std_type_info.obj
 0001:0011b1a0       memcpy_repmovs             000000018011c1a0 f   libvcruntime:memcpy.obj
 0001:0011b1c0       memcpy                     000000018011c1c0 f   libvcruntime:memcpy.obj
 0001:0011b1c0       memmove                    000000018011c1c0 f   libvcruntime:memcpy.obj
 0001:0011b850       memset_repstos             000000018011c850 f   libvcruntime:memset.obj
 0001:0011b870       memset                     000000018011c870 f   libvcruntime:memset.obj
 0001:0011bbf8       strstr                     000000018011cbf8 f   libvcruntime:strstr.obj
 0001:0011bdf0       __C_specific_handler       000000018011cdf0 f   libvcruntime:riscchandler.obj
 0001:0011bfe8       __vcrt_initialize          000000018011cfe8 f   libvcruntime:initialization.obj
 0001:0011c010       __vcrt_thread_attach       000000018011d010 f   libvcruntime:initialization.obj
 0001:0011c024       __vcrt_thread_detach       000000018011d024 f   libvcruntime:initialization.obj
 0001:0011c038       __vcrt_uninitialize        000000018011d038 f   libvcruntime:initialization.obj
 0001:0011c054       __vcrt_uninitialize_critical 000000018011d054 f   libvcruntime:initialization.obj
 0001:0011c064       __DestructExceptionObject  000000018011d064 f   libvcruntime:ehhelpers.obj
 0001:0011c0d4       ?_CallMemberFunction0@@YAXQEAX0@Z 000000018011d0d4 f i libvcruntime:ehhelpers.obj
 0001:0011c0d8       _IsExceptionObjectToBeDestroyed 000000018011d0d8 f   libvcruntime:ehhelpers.obj
 0001:0011c108       __AdjustPointer            000000018011d108 f   libvcruntime:ehhelpers.obj
 0001:0011c12c       __FrameUnwindFilter        000000018011d12c f   libvcruntime:ehhelpers.obj
 0001:0011c194       ??$?0$00@DName@@QEAA@PEBDU?$StringLifeSelector@$00@@@Z 000000018011d194 f i libvcruntime:undname.obj
 0001:0011c1d4       ??$?0$01@DName@@QEAA@PEBDU?$StringLifeSelector@$01@@@Z 000000018011d1d4 f i libvcruntime:undname.obj
 0001:0011c1d4       ??$?0$0A@@DName@@QEAA@PEBDU?$StringLifeSelector@$0A@@@@Z 000000018011d1d4 f i libvcruntime:undname.obj
 0001:0011c214       ??$?0$01@pcharNode@@QEAA@PEBDHU?$StringLifeSelector@$01@@@Z 000000018011d214 f i libvcruntime:undname.obj
 0001:0011c214       ??$?0$0A@@pcharNode@@QEAA@PEBDHU?$StringLifeSelector@$0A@@@@Z 000000018011d214 f i libvcruntime:undname.obj
 0001:0011c288       ??$append@VDNameNode@@@DName@@AEAAXPEBVDNameNode@@@Z 000000018011d288 f i libvcruntime:undname.obj
 0001:0011c288       ??$append@VDNameStatusNode@@@DName@@AEAAXPEBVDNameStatusNode@@@Z 000000018011d288 f i libvcruntime:undname.obj
 0001:0011c288       ??$append@VcharNode@@@DName@@AEAAXPEBVcharNode@@@Z 000000018011d288 f i libvcruntime:undname.obj
 0001:0011c288       ??$append@VpcharNode@@@DName@@AEAAXPEBVpcharNode@@@Z 000000018011d288 f i libvcruntime:undname.obj
 0001:0011c2ec       ??$doPchar@$00@DName@@AEAAXPEBDH@Z 000000018011d2ec f i libvcruntime:undname.obj
 0001:0011c390       ??$doPchar@$01@DName@@AEAAXPEBDH@Z 000000018011d390 f i libvcruntime:undname.obj
 0001:0011c390       ??$doPchar@$0A@@DName@@AEAAXPEBDH@Z 000000018011d390 f i libvcruntime:undname.obj
 0001:0011c428       ??0DName@@QEAA@AEAPEBDD@Z  000000018011d428 f   libvcruntime:undname.obj
 0001:0011c4d8       ??0DName@@QEAA@AEBUStringLiteral@@@Z 000000018011d4d8 f   libvcruntime:undname.obj
 0001:0011c504       ??0DName@@QEAA@PEAV0@@Z    000000018011d504 f   libvcruntime:undname.obj
 0001:0011c588       ??0DName@@QEAA@_J@Z        000000018011d588 f   libvcruntime:undname.obj
 0001:0011c630       ??0DName@@QEAA@_K@Z        000000018011d630 f   libvcruntime:undname.obj
 0001:0011c6c0       ??2@YAPEAX_KAEAV_HeapManager@@H@Z 000000018011d6c0 f   libvcruntime:undname.obj
 0001:0011c6ec       ??4DName@@QEAAAEAV0@W4DNameStatus@@@Z 000000018011d6ec f   libvcruntime:undname.obj
 0001:0011c71c       ??AReplicator@@QEBA?AVDName@@H@Z 000000018011d71c f   libvcruntime:undname.obj
 0001:0011c75c       ??HDName@@QEBA?AV0@AEBUStringLiteral@@@Z 000000018011d75c f   libvcruntime:undname.obj
 0001:0011c788       ??HDName@@QEBA?AV0@AEBV0@@Z 000000018011d788 f   libvcruntime:undname.obj
 0001:0011c7b4       ??HDName@@QEBA?AV0@D@Z     000000018011d7b4 f   libvcruntime:undname.obj
 0001:0011c7e0       ??HDName@@QEBA?AV0@W4DNameStatus@@@Z 000000018011d7e0 f   libvcruntime:undname.obj
 0001:0011c80c       ??YDName@@QEAAAEAV0@AEBUStringLiteral@@@Z 000000018011d80c f   libvcruntime:undname.obj
 0001:0011c88c       ??YDName@@QEAAAEAV0@AEBV0@@Z 000000018011d88c f   libvcruntime:undname.obj
 0001:0011c8e4       ??YDName@@QEAAAEAV0@D@Z    000000018011d8e4 f   libvcruntime:undname.obj
 0001:0011c950       ??YDName@@QEAAAEAV0@W4DNameStatus@@@Z 000000018011d950 f   libvcruntime:undname.obj
 0001:0011c9a8       ??YReplicator@@QEAAAEAV0@AEBVDName@@@Z 000000018011d9a8 f   libvcruntime:undname.obj
 0001:0011ca00       ?UScore@UnDecorator@@SA?AUStringLiteral@@W4Tokens@@@Z 000000018011da00 f   libvcruntime:undname.obj
 0001:0011ca4c       ?composeDeclaration@UnDecorator@@CA?AVDName@@AEBV2@@Z 000000018011da4c f i libvcruntime:undname.obj
 0001:0011d8e0       ?doPchar@DName@@AEAAXD@Z   000000018011e8e0 f   libvcruntime:undname.obj
 0001:0011d930       ?getAddressOf@UnDecorator@@CA?AVDName@@XZ 000000018011e930 f   libvcruntime:undname.obj
 0001:0011d9c0       ?getArgumentList@UnDecorator@@CA?AVDName@@XZ 000000018011e9c0 f   libvcruntime:undname.obj
 0001:0011db74       ?getArgumentTypes@UnDecorator@@CA?AVDName@@XZ 000000018011eb74 f   libvcruntime:undname.obj
 0001:0011dcc0       ?getArrayAccess@UnDecorator@@CA?AVDName@@XZ 000000018011ecc0 f   libvcruntime:undname.obj
 0001:0011dd5c       ?getArrayObject@UnDecorator@@CA?AVDName@@XZ 000000018011ed5c f   libvcruntime:undname.obj
 0001:0011de18       ?getArrayType@UnDecorator@@CA?AVDName@@AEBV2@@Z 000000018011ee18 f i libvcruntime:undname.obj
 0001:0011e060       ?getBasedType@UnDecorator@@CA?AVDName@@XZ 000000018011f060 f   libvcruntime:undname.obj
 0001:0011e158       ?getBasicDataType@UnDecorator@@CA?AVDName@@AEBV2@@Z 000000018011f158 f   libvcruntime:undname.obj
 0001:0011e758       ?getCallingConvention@UnDecorator@@CA?AVDName@@XZ 000000018011f758 f   libvcruntime:undname.obj
 0001:0011e8a4       ?getDataIndirectType@UnDecorator@@CA?AVDName@@AEBV2@W4IndirectionKind@@0H@Z 000000018011f8a4 f   libvcruntime:undname.obj
 0001:0011f16c       ?getDataType@UnDecorator@@CA?AVDName@@PEAV2@@Z 000000018012016c f   libvcruntime:undname.obj
 0001:0011f280       ?getDecoratedName@UnDecorator@@CA?AVDName@@XZ 0000000180120280 f   libvcruntime:undname.obj
 0001:0011f568       ?getDimension@UnDecorator@@CA?AVDName@@_N@Z 0000000180120568 f   libvcruntime:undname.obj
 0001:0011f6b4       ?getDispatchTarget@UnDecorator@@CA?AVDName@@XZ 00000001801206b4 f   libvcruntime:undname.obj
 0001:0011f700       ?getECSUDataType@UnDecorator@@CA?AVDName@@XZ 0000000180120700 f   libvcruntime:undname.obj
 0001:0011f8e0       ?getEnumType@UnDecorator@@CA?AVDName@@XZ 00000001801208e0 f i libvcruntime:undname.obj
 0001:0011fa10       ?getExtendedDataIndirectType@UnDecorator@@CA?AVDName@@AEAW4IndirectionKind@@AEA_NH@Z 0000000180120a10 f   libvcruntime:undname.obj
 0001:0011fc14       ?getExternalDataType@UnDecorator@@CA?AVDName@@AEBV2@@Z 0000000180120c14 f i libvcruntime:undname.obj
 0001:0011fcd4       ?getFloatingPoint@UnDecorator@@CA?AVDName@@H@Z 0000000180120cd4 f   libvcruntime:undname.obj
 0001:0011fe38       ?getFunctionIndirectType@UnDecorator@@CA?AVDName@@AEBV2@@Z 0000000180120e38 f   libvcruntime:undname.obj
 0001:00120360       ?getLastChar@DNameStatusNode@@UEBADXZ 0000000180121360 f i libvcruntime:undname.obj
 0001:0012036c       ?getLastChar@charNode@@UEBADXZ 000000018012136c f i libvcruntime:undname.obj
 0001:00120370       ?getLastChar@pDNameNode@@UEBADXZ 0000000180121370 f i libvcruntime:undname.obj
 0001:0012039c       ?getLastChar@pairNode@@UEBADXZ 000000018012139c f i libvcruntime:undname.obj
 0001:001203d4       ?getLastChar@pcharNode@@UEBADXZ 00000001801213d4 f i libvcruntime:undname.obj
 0001:001203e8       ?getLexicalFrame@UnDecorator@@CA?AVDName@@XZ 00000001801213e8 f i libvcruntime:undname.obj
 0001:0012044c       ?getMemberAccess@UnDecorator@@CA?AVDName@@XZ 000000018012144c f   libvcruntime:undname.obj
 0001:001204e0       ?getMemoryWithBuffer@_HeapManager@@QEAAPEAX_K@Z 00000001801214e0 f   libvcruntime:undname.obj
 0001:00120570       ?getNoexcept@UnDecorator@@CA?AVDName@@XZ 0000000180121570 f   libvcruntime:undname.obj
 0001:001205d4       ?getNumberOfDimensions@UnDecorator@@CAHXZ 00000001801215d4 f   libvcruntime:undname.obj
 0001:00120640       ?getOperatorName@UnDecorator@@CA?AVDName@@_NPEA_N@Z 0000000180121640 f i libvcruntime:undname.obj
 0001:0012104c       ?getPointerToMember@UnDecorator@@CA?AVDName@@XZ 000000018012204c f   libvcruntime:undname.obj
 0001:00121144       ?getPrimaryDataType@UnDecorator@@CA?AVDName@@AEBV2@@Z 0000000180122144 f   libvcruntime:undname.obj
 0001:001213fc       ?getPtrRefDataType@UnDecorator@@CA?AVDName@@AEBV2@H@Z 00000001801223fc f   libvcruntime:undname.obj
 0001:001215c8       ?getPtrRefType@UnDecorator@@CA?AVDName@@AEBV2@0W4IndirectionKind@@@Z 00000001801225c8 f   libvcruntime:undname.obj
 0001:001217a0       ?getRestrictionSpec@UnDecorator@@CA?AVDName@@XZ 00000001801227a0 f   libvcruntime:undname.obj
 0001:0012197c       ?getReturnType@UnDecorator@@CA?AVDName@@PEAV2@@Z 000000018012297c f   libvcruntime:undname.obj
 0001:001219b0       ?getScope@UnDecorator@@CA?AVDName@@XZ 00000001801229b0 f   libvcruntime:undname.obj
 0001:00121e6c       ?getScopedName@UnDecorator@@CA?AVDName@@XZ 0000000180122e6c f   libvcruntime:undname.obj
 0001:00121fac       ?getSignedDimension@UnDecorator@@CA?AVDName@@XZ 0000000180122fac f   libvcruntime:undname.obj
 0001:00122034       ?getString@DNameStatusNode@@UEBAPEADPEAD0@Z 0000000180123034 f i libvcruntime:undname.obj
 0001:0012207c       ?getString@charNode@@UEBAPEADPEAD0@Z 000000018012307c f i libvcruntime:undname.obj
 0001:00122090       ?getString@pDNameNode@@UEBAPEADPEAD0@Z 0000000180123090 f i libvcruntime:undname.obj
 0001:001220c0       ?getString@pairNode@@UEBAPEADPEAD0@Z 00000001801230c0 f i libvcruntime:undname.obj
 0001:0012210c       ?getString@pcharNode@@UEBAPEADPEAD0@Z 000000018012310c f i libvcruntime:undname.obj
 0001:00122144       ?getStringEncoding@UnDecorator@@CA?AVDName@@W4PrefixKind@@H@Z 0000000180123144 f   libvcruntime:undname.obj
 0001:00122234       ?getStringObject@UnDecorator@@CA?AVDName@@XZ 0000000180123234 f   libvcruntime:undname.obj
 0001:0012229c       ?getSymbolName@UnDecorator@@CA?AVDName@@XZ 000000018012329c f i libvcruntime:undname.obj
 0001:001222e8       ?getTemplateArgumentList@UnDecorator@@CA?AVDName@@XZ 00000001801232e8 f   libvcruntime:undname.obj
 0001:00122504       ?getTemplateName@UnDecorator@@CA?AVDName@@_N@Z 0000000180123504 f   libvcruntime:undname.obj
 0001:00122798       ?getTemplateNonTypeArgument@UnDecorator@@CA?AVDName@@XZ 0000000180123798 f   libvcruntime:undname.obj
 0001:00122ce8       ?getTemplateTypeArgument@UnDecorator@@CA?AVDName@@XZ 0000000180123ce8 f   libvcruntime:undname.obj
 0001:00122e50       ?getThrowTypes@UnDecorator@@CA?AVDName@@XZ 0000000180123e50 f   libvcruntime:undname.obj
 0001:00122e74       ?getTypeEncoding@UnDecorator@@CAHXZ 0000000180123e74 f i libvcruntime:undname.obj
 0001:00123210       ?getUndecoratedName@UnDecorator@@QEAAPEADPEADH@Z 0000000180124210 f i libvcruntime:undname.obj
 0001:00123364       ?getUnionObject@UnDecorator@@CA?AVDName@@XZ 0000000180124364 f   libvcruntime:undname.obj
 0001:0012343c       ?getVCallThunkType@UnDecorator@@CA?AVDName@@XZ 000000018012443c f i libvcruntime:undname.obj
 0001:001234b4       ?getValue@UnDecorator@@CA?AV?$optional@_K@std@@XZ 00000001801244b4 f   libvcruntime:undname.obj
 0001:00123528       ?getValueObject@UnDecorator@@CA?AVDName@@XZ 0000000180124528 f   libvcruntime:undname.obj
 0001:00123668       ?getVdispMapType@UnDecorator@@CA?AVDName@@AEBV2@@Z 0000000180124668 f i libvcruntime:undname.obj
 0001:001236e4       ?getVfTableType@UnDecorator@@CA?AVDName@@AEBV2@@Z 00000001801246e4 f i libvcruntime:undname.obj
 0001:001238f0       ?getZName@UnDecorator@@CA?AVDName@@_N0@Z 00000001801248f0 f   libvcruntime:undname.obj
 0001:00123bd0       ?length@DNameStatusNode@@UEBAHXZ 0000000180124bd0 f i libvcruntime:undname.obj
 0001:00123bd0       ?raw_length@DNameStatusNode@@UEBAHXZ 0000000180124bd0 f i libvcruntime:undname.obj
 0001:00123bd4       ?length@pDNameNode@@UEBAHXZ 0000000180124bd4 f i libvcruntime:undname.obj
 0001:00123bfc       ?length@pairNode@@UEBAHXZ  0000000180124bfc f i libvcruntime:undname.obj
 0001:00123c44       ?parseDecoratedName@UnDecorator@@CA?AVDName@@XZ 0000000180124c44 f   libvcruntime:undname.obj
 0001:00123d58       ?raw_length@pDNameNode@@UEBAHXZ 0000000180124d58 f i libvcruntime:undname.obj
 0001:00123d5c       __unDName                  0000000180124d5c f   libvcruntime:undname.obj
 0001:00123d84       __unDNameEx                0000000180124d84 f   libvcruntime:undname.obj
 0001:00123eb8       snprintf                   0000000180124eb8 f i libvcruntime:undname.obj
 0001:00123f10       sprintf_s                  0000000180124f10 f i libvcruntime:undname.obj
 0001:00123f80       _NLG_Notify                0000000180124f80 f   libvcruntime:notify.obj
 0001:00123fa0       __NLG_Dispatch2            0000000180124fa0 f   libvcruntime:notify.obj
 0001:00123fb0       __NLG_Return2              0000000180124fb0 f   libvcruntime:notify.obj
 0001:00123fb4       __except_validate_context_record 0000000180124fb4 f   libvcruntime:jbcxrval.obj
 0001:00123fec       __vcrt_freefls             0000000180124fec f   libvcruntime:per_thread_data.obj
 0001:0012400c       __vcrt_freeptd             000000018012500c f   libvcruntime:per_thread_data.obj
 0001:0012405c       __vcrt_getptd              000000018012505c f   libvcruntime:per_thread_data.obj
 0001:00124078       __vcrt_getptd_noexit       0000000180125078 f   libvcruntime:per_thread_data.obj
 0001:00124138       __vcrt_initialize_ptd      0000000180125138 f   libvcruntime:per_thread_data.obj
 0001:00124180       __vcrt_uninitialize_ptd    0000000180125180 f   libvcruntime:per_thread_data.obj
 0001:001241a4       __vcrt_initialize_locks    00000001801251a4 f   libvcruntime:locks.obj
 0001:001241ec       __vcrt_lock                00000001801251ec f   libvcruntime:locks.obj
 0001:00124208       __vcrt_uninitialize_locks  0000000180125208 f   libvcruntime:locks.obj
 0001:00124240       __vcrt_unlock              0000000180125240 f   libvcruntime:locks.obj
 0001:0012425c       ??$_CallSETranslator@V__FrameHandler4@@@@YAHPEAUEHExceptionRecord@@PEA_KPEAU_CONTEXT@@PEAU_xDISPATCHER_CONTEXT@@PEAUFuncInfo4@FH4@@K1H@Z 000000018012525c f i libvcruntime:risctrnsctrl.obj
 0001:001242b0       ?DecompFuncInfo@FH4@@YA_JPEAEAEAUFuncInfo4@1@_KH_N@Z 00000001801252b0 f i libvcruntime:risctrnsctrl.obj
 0001:001243d4       ?ExecutionInCatch@__FrameHandler4@@SA_NPEAU_xDISPATCHER_CONTEXT@@PEAUFuncInfo4@FH4@@@Z 00000001801253d4 f   libvcruntime:risctrnsctrl.obj
 0001:001243dc       ?FrameUnwindToEmptyState@__FrameHandler4@@SAXPEA_KPEAU_xDISPATCHER_CONTEXT@@PEAUFuncInfo4@FH4@@@Z 00000001801253dc f   libvcruntime:risctrnsctrl.obj
 0001:00124410       ?GetEstablisherFrame@__FrameHandler4@@SAPEA_KPEA_KPEAU_xDISPATCHER_CONTEXT@@PEAUFuncInfo4@FH4@@0@Z 0000000180125410 f   libvcruntime:risctrnsctrl.obj
 0001:00124434       ?GetRangeOfTrysToCheck@__FrameHandler4@@SA?AU?$pair@Viterator@TryBlockMap4@FH4@@V123@@std@@AEAVTryBlockMap4@FH4@@HPEAU_xDISPATCHER_CONTEXT@@PEAUFuncInfo4@5@H@Z 0000000180125434 f   libvcruntime:risctrnsctrl.obj
 0001:001245a0       ?UnwindNestedFrames@__FrameHandler4@@SAXPEA_KPEAUEHExceptionRecord@@PEAU_CONTEXT@@0PEAXPEAUFuncInfo4@FH4@@HHPEAUHandlerType4@5@PEAU_xDISPATCHER_CONTEXT@@E@Z 00000001801255a0 f   libvcruntime:risctrnsctrl.obj
 0001:001246c0       ?setBuffer@TryBlockMap4@FH4@@QEAAXViterator@12@@Z 00000001801256c0 f i libvcruntime:risctrnsctrl.obj
 0001:00124884       _CreateFrameInfo           0000000180125884 f   libvcruntime:risctrnsctrl.obj
 0001:001248c0       _FindAndUnlinkFrame        00000001801258c0 f   libvcruntime:risctrnsctrl.obj
 0001:00124914       _GetImageBase              0000000180125914 f   libvcruntime:risctrnsctrl.obj
 0001:00124928       _GetThrowImageBase         0000000180125928 f   libvcruntime:risctrnsctrl.obj
 0001:0012493c       _SetImageBase              000000018012593c f   libvcruntime:risctrnsctrl.obj
 0001:00124954       _SetThrowImageBase         0000000180125954 f   libvcruntime:risctrnsctrl.obj
 0001:0012496c       __CxxFrameHandler4         000000018012596c f   libvcruntime:risctrnsctrl.obj
 0001:00124b7c       __vcrt_FlsAlloc            0000000180125b7c f   libvcruntime:winapi_downlevel.obj
 0001:00124bc4       __vcrt_FlsFree             0000000180125bc4 f   libvcruntime:winapi_downlevel.obj
 0001:00124c0c       __vcrt_FlsGetValue         0000000180125c0c f   libvcruntime:winapi_downlevel.obj
 0001:00124c54       __vcrt_FlsSetValue         0000000180125c54 f   libvcruntime:winapi_downlevel.obj
 0001:00124ca8       __vcrt_InitializeCriticalSectionEx 0000000180125ca8 f   libvcruntime:winapi_downlevel.obj
 0001:00124d0c       ?StateFromControlPc@__FrameHandler4@@SAHPEAUFuncInfo4@FH4@@PEAU_xDISPATCHER_CONTEXT@@@Z 0000000180125d0c f   libvcruntime:ehstate.obj
 0001:00124d14       ?StateFromIp@__FrameHandler4@@SAHPEAUFuncInfo4@FH4@@PEAU_xDISPATCHER_CONTEXT@@_K@Z 0000000180125d14 f   libvcruntime:ehstate.obj
 0001:0012598c       ??$TypeMatchHelper@V__FrameHandler3@@@@YAHPEBU_s_HandlerType@@PEBU_s_CatchableType@@PEBU_s_ThrowInfo@@@Z 000000018012698c f i libvcruntime:frame.obj
 0001:00125acc       ??$TypeMatchHelper@V__FrameHandler4@@@@YAHPEAUHandlerType4@FH4@@PEBU_s_CatchableType@@PEBU_s_ThrowInfo@@@Z 0000000180126acc f i libvcruntime:frame.obj
 0001:00125c10       ??$__InternalCxxFrameHandler@V__FrameHandler4@@@@YA?AW4_EXCEPTION_DISPOSITION@@PEAUEHExceptionRecord@@PEA_KPEAU_CONTEXT@@PEAU_xDISPATCHER_CONTEXT@@PEAUFuncInfo4@FH4@@H1E@Z 0000000180126c10 f i libvcruntime:frame.obj
 0001:00125ea4       ??0HandlerMap4@FH4@@QEAA@PEBUTryBlockMapEntry4@1@_KH@Z 0000000180126ea4 f i libvcruntime:frame.obj
 0001:00125f20       ??0TryBlockMap4@FH4@@QEAA@PEBUFuncInfo4@1@_K@Z 0000000180126f20 f i libvcruntime:frame.obj
 0001:00125ff8       ??0bad_exception@std@@QEAA@AEBV01@@Z 0000000180126ff8 f i libvcruntime:frame.obj
 0001:00126034       ??0bad_exception@std@@QEAA@XZ 0000000180127034 f i libvcruntime:frame.obj
 0001:00126054       ??0exception@std@@QEAA@AEBV01@@Z 0000000180127054 f i libvcruntime:frame.obj
 0001:00126088       ??1bad_exception@std@@UEAA@XZ 0000000180127088 f i libvcruntime:frame.obj
 0001:0012609c       ??_Ebad_exception@std@@UEAAPEAXI@Z 000000018012709c f i libvcruntime:frame.obj
 0001:0012609c       ??_Eexception@std@@UEAAPEAXI@Z 000000018012709c f i libvcruntime:frame.obj
 0001:0012609c       ??_Gbad_exception@std@@UEAAPEAXI@Z 000000018012709c f i libvcruntime:frame.obj
 0001:0012609c       ??_Gexception@std@@UEAAPEAXI@Z 000000018012709c f i libvcruntime:frame.obj
 0001:001260e0       ?CxxCallCatchBlock@__FrameHandler4@@SAPEAXPEAU_EXCEPTION_RECORD@@@Z 00000001801270e0 f   libvcruntime:frame.obj
 0001:00126330       ?DecompHandler@HandlerMap4@FH4@@AEAAXXZ 0000000180127330 f i libvcruntime:frame.obj
 0001:0012657c       ?FrameUnwindToState@__FrameHandler4@@SAXPEA_KPEAU_xDISPATCHER_CONTEXT@@PEAUFuncInfo4@FH4@@H@Z 000000018012757c f   libvcruntime:frame.obj
 0001:001269f0       ?ReadEntry@UWMap4@FH4@@AEAAXPEAPEAE@Z 00000001801279f0 f i libvcruntime:frame.obj
 0001:00126a8c       ?_CallMemberFunction1@@YAXQEAX00@Z 0000000180127a8c f i libvcruntime:frame.obj
 0001:00126a98       ?_CallMemberFunction2@@YAXQEAX00H@Z 0000000180127a98 f i libvcruntime:frame.obj
 0001:00126aa8       ?getStartStop@UWMap4@FH4@@QEAAXHHAEAViterator@12@0@Z 0000000180127aa8 f i libvcruntime:frame.obj
 0001:00126b78       ?getStateFromIterators@UWMap4@FH4@@SAHAEBViterator@12@H0H0@Z 0000000180127b78 f i libvcruntime:frame.obj
 0001:00126c44       ?what@exception@std@@UEBAPEBDXZ 0000000180127c44 f i libvcruntime:frame.obj
 0001:00126c70       _CallSettingFrame          0000000180127c70 f   libvcruntime:handlers.obj
 0001:00126cc0       _CallSettingFrame_LookupContinuationIndex 0000000180127cc0 f   libvcruntime:handlers.obj
 0001:00126cf0       _CallSettingFrame_NotifyContinuationAddr 0000000180127cf0 f   libvcruntime:handlers.obj
 0001:00126d20       _CallSettingFrameEncoded   0000000180127d20 f   libvcruntime:handlers.obj
 0001:00126d68       __std_exception_copy       0000000180127d68 f   libvcruntime:std_exception.obj
 0001:00126df8       __std_exception_destroy    0000000180127df8 f   libvcruntime:std_exception.obj
 0001:00126e20       _CxxThrowException         0000000180127e20 f   libvcruntime:throw.obj
 0001:00126ec0       cosf                       0000000180127ec0 f   libucrt:cosf.obj
 0001:001273c0       sinf                       00000001801283c0 f   libucrt:sinf.obj
 0001:00127ac0       tanf                       0000000180128ac0 f   libucrt:tanf.obj
 0001:00128150       strcmp                     0000000180129150 f   libucrt:strcmp.obj
 0001:001281b8       _fpclass                   00000001801291b8 f   libucrt:ieeemisc.obj
 0001:00128240       acosf                      0000000180129240 f   libucrt:acosf.obj
 0001:0012846c       free                       000000018012946c f   libucrt:free.obj
 0001:00128480       _initterm                  0000000180129480 f   libucrt:initterm.obj
 0001:001284e4       _initterm_e                00000001801294e4 f   libucrt:initterm.obj
 0001:00128524       _seh_filter_dll            0000000180129524 f   libucrt:exception_filter.obj
 0001:00128538       _seh_filter_exe            0000000180129538 f   libucrt:exception_filter.obj
 0001:00128928       __acrt_initialize_thread_local_exit_callback 0000000180129928 f   libucrt:exit.obj
 0001:00128930       _cexit                     0000000180129930 f   libucrt:exit.obj
 0001:00128940       _exit                      0000000180129940 f   libucrt:exit.obj
 0001:0012894c       _is_c_termination_complete 000000018012994c f   libucrt:exit.obj
 0001:00128b14       __acrt_allocate_buffer_for_argv 0000000180129b14 f   libucrt:argv_parsing.obj
 0001:00128b74       _configure_narrow_argv     0000000180129b74 f   libucrt:argv_parsing.obj
 0001:00128eec       __dcrt_uninitialize_environments_nolock 0000000180129eec f   libucrt:environment_initialization.obj
 0001:00128f24       _initialize_narrow_environment 0000000180129f24 f   libucrt:environment_initialization.obj
 0001:00129080       _execute_onexit_table      000000018012a080 f   libucrt:onexit.obj
 0001:001290bc       _initialize_onexit_table   000000018012a0bc f   libucrt:onexit.obj
 0001:0012911c       __acrt_uninitialize_command_line 000000018012a11c f   libucrt:argv_data.obj
 0001:00129214       __acrt_initialize          000000018012a214 f   libucrt:initialization.obj
 0001:00129228       __acrt_thread_attach       000000018012a228 f   libucrt:initialization.obj
 0001:0012923c       __acrt_thread_detach       000000018012a23c f   libucrt:initialization.obj
 0001:0012924c       __acrt_uninitialize        000000018012a24c f   libucrt:initialization.obj
 0001:00129284       __acrt_uninitialize_critical 000000018012a284 f   libucrt:initialization.obj
 0001:00129294       terminate                  000000018012a294 f   libucrt:terminate.obj
 0001:001292b4       abort                      000000018012a2b4 f   libucrt:abort.obj
 0001:0012930c       malloc                     000000018012a30c f   libucrt:malloc.obj
 0001:00129314       strcpy_s                   000000018012a314 f   libucrt:strcpy_s.obj
 0001:0012970c       ??$ensure_buffer_is_big_enough@D@formatting_buffer@__crt_stdio_output@@QEAA_N_K@Z 000000018012a70c f i libucrt:output.obj
 0001:001297b4       ??$type_case_integer_parse_into_buffer@I@?$output_processor@DV?$string_output_adapter@D@__crt_stdio_output@@V?$format_validation_base@DV?$string_output_adapter@D@__crt_stdio_output@@@2@@__crt_stdio_output@@AEAAXII_N@Z 000000018012a7b4 f i libucrt:output.obj
 0001:001297b4       ??$type_case_integer_parse_into_buffer@I@?$output_processor@DV?$string_output_adapter@D@__crt_stdio_output@@V?$standard_base@DV?$string_output_adapter@D@__crt_stdio_output@@@2@@__crt_stdio_output@@AEAAXII_N@Z 000000018012a7b4 f i libucrt:output.obj
 0001:0012983c       ??$type_case_integer_parse_into_buffer@_K@?$output_processor@DV?$string_output_adapter@D@__crt_stdio_output@@V?$format_validation_base@DV?$string_output_adapter@D@__crt_stdio_output@@@2@@__crt_stdio_output@@AEAAX_KI_N@Z 000000018012a83c f i libucrt:output.obj
 0001:0012983c       ??$type_case_integer_parse_into_buffer@_K@?$output_processor@DV?$string_output_adapter@D@__crt_stdio_output@@V?$standard_base@DV?$string_output_adapter@D@__crt_stdio_output@@@2@@__crt_stdio_output@@AEAAX_KI_N@Z 000000018012a83c f i libucrt:output.obj
 0001:001298cc       ??$write_multiple_characters@V?$string_output_adapter@D@__crt_stdio_output@@D@__crt_stdio_output@@YAXAEBV?$string_output_adapter@D@0@DHQEAH@Z 000000018012a8cc f i libucrt:output.obj
 0001:00129944       ??0_LocaleUpdate@@QEAA@QEAU__crt_locale_pointers@@@Z 000000018012a944 f i libucrt:output.obj
 0001:001299e0       ?crop_zeroes@__crt_stdio_output@@YAXPEADQEAU__crt_locale_pointers@@@Z 000000018012a9e0 f i libucrt:output.obj
 0001:00129a80       ?force_decimal_point@__crt_stdio_output@@YAXPEADQEAU__crt_locale_pointers@@@Z 000000018012aa80 f i libucrt:output.obj
 0001:00129af8       ?parse_int_from_format_string@?$output_processor@DV?$string_output_adapter@D@__crt_stdio_output@@V?$format_validation_base@DV?$string_output_adapter@D@__crt_stdio_output@@@2@@__crt_stdio_output@@AEAA_NQEAH@Z 000000018012aaf8 f i libucrt:output.obj
 0001:00129af8       ?parse_int_from_format_string@?$output_processor@DV?$string_output_adapter@D@__crt_stdio_output@@V?$standard_base@DV?$string_output_adapter@D@__crt_stdio_output@@@2@@__crt_stdio_output@@AEAA_NQEAH@Z 000000018012aaf8 f i libucrt:output.obj
 0001:00129b9c       ?process@?$output_processor@DV?$string_output_adapter@D@__crt_stdio_output@@V?$format_validation_base@DV?$string_output_adapter@D@__crt_stdio_output@@@2@@__crt_stdio_output@@QEAAHXZ 000000018012ab9c f i libucrt:output.obj
 0001:00129db0       ?process@?$output_processor@DV?$string_output_adapter@D@__crt_stdio_output@@V?$standard_base@DV?$string_output_adapter@D@__crt_stdio_output@@@2@@__crt_stdio_output@@QEAAHXZ 000000018012adb0 f i libucrt:output.obj
 0001:00129fb8       ?state_case_normal@?$output_processor@DV?$string_output_adapter@D@__crt_stdio_output@@V?$format_validation_base@DV?$string_output_adapter@D@__crt_stdio_output@@@2@@__crt_stdio_output@@AEAA_NXZ 000000018012afb8 f i libucrt:output.obj
 0001:00129fb8       ?state_case_normal@?$output_processor@DV?$string_output_adapter@D@__crt_stdio_output@@V?$standard_base@DV?$string_output_adapter@D@__crt_stdio_output@@@2@@__crt_stdio_output@@AEAA_NXZ 000000018012afb8 f i libucrt:output.obj
 0001:0012a02c       ?state_case_normal_tchar@?$output_processor@DV?$string_output_adapter@D@__crt_stdio_output@@V?$format_validation_base@DV?$string_output_adapter@D@__crt_stdio_output@@@2@@__crt_stdio_output@@AEAA_ND@Z 000000018012b02c f i libucrt:output.obj
 0001:0012a02c       ?state_case_normal_tchar@?$output_processor@DV?$string_output_adapter@D@__crt_stdio_output@@V?$standard_base@DV?$string_output_adapter@D@__crt_stdio_output@@@2@@__crt_stdio_output@@AEAA_ND@Z 000000018012b02c f i libucrt:output.obj
 0001:0012a0d4       ?state_case_size@?$output_processor@DV?$string_output_adapter@D@__crt_stdio_output@@V?$format_validation_base@DV?$string_output_adapter@D@__crt_stdio_output@@@2@@__crt_stdio_output@@AEAA_NXZ 000000018012b0d4 f i libucrt:output.obj
 0001:0012a0d4       ?state_case_size@?$output_processor@DV?$string_output_adapter@D@__crt_stdio_output@@V?$standard_base@DV?$string_output_adapter@D@__crt_stdio_output@@@2@@__crt_stdio_output@@AEAA_NXZ 000000018012b0d4 f i libucrt:output.obj
 0001:0012a244       ?state_case_type@?$output_processor@DV?$string_output_adapter@D@__crt_stdio_output@@V?$format_validation_base@DV?$string_output_adapter@D@__crt_stdio_output@@@2@@__crt_stdio_output@@AEAA_NXZ 000000018012b244 f i libucrt:output.obj
 0001:0012a244       ?state_case_type@?$output_processor@DV?$string_output_adapter@D@__crt_stdio_output@@V?$standard_base@DV?$string_output_adapter@D@__crt_stdio_output@@@2@@__crt_stdio_output@@AEAA_NXZ 000000018012b244 f i libucrt:output.obj
 0001:0012a4b0       ?to_integer_size@__crt_stdio_output@@YA_KW4length_modifier@1@@Z 000000018012b4b0 f i libucrt:output.obj
 0001:0012a518       ?type_case_Z@?$output_processor@DV?$string_output_adapter@D@__crt_stdio_output@@V?$format_validation_base@DV?$string_output_adapter@D@__crt_stdio_output@@@2@@__crt_stdio_output@@AEAA_NXZ 000000018012b518 f i libucrt:output.obj
 0001:0012a518       ?type_case_Z@?$output_processor@DV?$string_output_adapter@D@__crt_stdio_output@@V?$standard_base@DV?$string_output_adapter@D@__crt_stdio_output@@@2@@__crt_stdio_output@@AEAA_NXZ 000000018012b518 f i libucrt:output.obj
 0001:0012a58c       ?type_case_a@?$output_processor@DV?$string_output_adapter@D@__crt_stdio_output@@V?$format_validation_base@DV?$string_output_adapter@D@__crt_stdio_output@@@2@@__crt_stdio_output@@AEAA_NXZ 000000018012b58c f i libucrt:output.obj
 0001:0012a58c       ?type_case_a@?$output_processor@DV?$string_output_adapter@D@__crt_stdio_output@@V?$standard_base@DV?$string_output_adapter@D@__crt_stdio_output@@@2@@__crt_stdio_output@@AEAA_NXZ 000000018012b58c f i libucrt:output.obj
 0001:0012a748       ?type_case_c_tchar@?$output_processor@DV?$string_output_adapter@D@__crt_stdio_output@@V?$format_validation_base@DV?$string_output_adapter@D@__crt_stdio_output@@@2@@__crt_stdio_output@@AEAA_ND@Z 000000018012b748 f i libucrt:output.obj
 0001:0012a748       ?type_case_c_tchar@?$output_processor@DV?$string_output_adapter@D@__crt_stdio_output@@V?$standard_base@DV?$string_output_adapter@D@__crt_stdio_output@@@2@@__crt_stdio_output@@AEAA_ND@Z 000000018012b748 f i libucrt:output.obj
 0001:0012a810       ?type_case_integer@?$output_processor@DV?$string_output_adapter@D@__crt_stdio_output@@V?$format_validation_base@DV?$string_output_adapter@D@__crt_stdio_output@@@2@@__crt_stdio_output@@AEAA_NI_N@Z 000000018012b810 f i libucrt:output.obj
 0001:0012a810       ?type_case_integer@?$output_processor@DV?$string_output_adapter@D@__crt_stdio_output@@V?$standard_base@DV?$string_output_adapter@D@__crt_stdio_output@@@2@@__crt_stdio_output@@AEAA_NI_N@Z 000000018012b810 f i libucrt:output.obj
 0001:0012a990       ?type_case_n@?$output_processor@DV?$string_output_adapter@D@__crt_stdio_output@@V?$format_validation_base@DV?$string_output_adapter@D@__crt_stdio_output@@@2@@__crt_stdio_output@@AEAA_NXZ 000000018012b990 f i libucrt:output.obj
 0001:0012a990       ?type_case_n@?$output_processor@DV?$string_output_adapter@D@__crt_stdio_output@@V?$standard_base@DV?$string_output_adapter@D@__crt_stdio_output@@@2@@__crt_stdio_output@@AEAA_NXZ 000000018012b990 f i libucrt:output.obj
 0001:0012aa18       ?type_case_s@?$output_processor@DV?$string_output_adapter@D@__crt_stdio_output@@V?$format_validation_base@DV?$string_output_adapter@D@__crt_stdio_output@@@2@@__crt_stdio_output@@AEAA_NXZ 000000018012ba18 f i libucrt:output.obj
 0001:0012aa18       ?type_case_s@?$output_processor@DV?$string_output_adapter@D@__crt_stdio_output@@V?$standard_base@DV?$string_output_adapter@D@__crt_stdio_output@@@2@@__crt_stdio_output@@AEAA_NXZ 000000018012ba18 f i libucrt:output.obj
 0001:0012aab0       ?write_stored_string_tchar@?$output_processor@DV?$string_output_adapter@D@__crt_stdio_output@@V?$format_validation_base@DV?$string_output_adapter@D@__crt_stdio_output@@@2@@__crt_stdio_output@@AEAA_ND@Z 000000018012bab0 f i libucrt:output.obj
 0001:0012aab0       ?write_stored_string_tchar@?$output_processor@DV?$string_output_adapter@D@__crt_stdio_output@@V?$standard_base@DV?$string_output_adapter@D@__crt_stdio_output@@@2@@__crt_stdio_output@@AEAA_ND@Z 000000018012bab0 f i libucrt:output.obj
 0001:0012ab8c       ?write_string@?$string_output_adapter@D@__crt_stdio_output@@QEBAXQEBDHQEAHAEAV__crt_deferred_errno_cache@@@Z 000000018012bb8c f i libucrt:output.obj
 0001:0012ac30       __stdio_common_vsprintf    000000018012bc30 f   libucrt:output.obj
 0001:0012ac38       __stdio_common_vsprintf_s  000000018012bc38 f   libucrt:output.obj
 0001:0012ac9c       ??$parse_integer@KV?$c_string_character_source@D@__crt_strtox@@@__crt_strtox@@YAKQEAU__crt_locale_pointers@@V?$c_string_character_source@D@0@H_N@Z 000000018012bc9c f i libucrt:atox.obj
 0001:0012afa0       _ischartype_l              000000018012bfa0 f i libucrt:atox.obj
 0001:0012b018       atol                       000000018012c018 f   libucrt:atox.obj
 0001:0012b060       strncmp                    000000018012c060 f   libucrt:strncmp.obj
 0001:0012b0e0       calloc                     000000018012c0e0 f   libucrt:calloc.obj
 0001:0012b0e8       wcsncmp                    000000018012c0e8 f   libucrt:wcsncmp.obj
 0001:0012b120       __remainder_piby2d2f_forAsm 000000018012c120 f   libucrt:remainder_piby2f_forasm.obj
 0001:0012b270       __remainder_piby2_fma3     000000018012c270 f   libucrt:remainder_piby2_forfma3.obj
 0001:0012b460       __remainder_piby2_fma3_bdl 000000018012c460 f   libucrt:remainder_piby2_forfma3.obj
 0001:0012b4d8       _cosf_special              000000018012c4d8 f   libucrt:sincos_special.obj
 0001:0012b578       _sinf_special              000000018012c578 f   libucrt:sincos_special.obj
 0001:0012b58c       _tanf_special              000000018012c58c f   libucrt:sincos_special.obj
 0001:0012b5a0       _clrfp                     000000018012c5a0 f   libucrt:fpctrl.obj
 0001:0012b5c0       _ctrlfp                    000000018012c5c0 f   libucrt:fpctrl.obj
 0001:0012b63c       _set_statfp                000000018012c63c f   libucrt:fpctrl.obj
 0001:0012b65c       _statfp                    000000018012c65c f   libucrt:fpctrl.obj
 0001:0012b670       __acrt_initialize_fma3     000000018012c670 f   libucrt:fma3_available.obj
 0001:0012b6e0       __remainder_piby2d2f_forC  000000018012c6e0 f   libucrt:remainder_piby2f_forc.obj
 0001:0012b990       _handle_error              000000018012c990 f   libucrt:libm_error.obj
 0001:0012bab8       _handle_errorf             000000018012cab8 f   libucrt:libm_error.obj
 0001:0012bbec       _handle_nan                000000018012cbec f   libucrt:libm_error.obj
 0001:0012bc08       _handle_nanf               000000018012cc08 f   libucrt:libm_error.obj
 0001:0012bc18       _free_base                 000000018012cc18 f   libucrt:free_base.obj
 0001:0012bfd0       __acrt_freeptd             000000018012cfd0 f   libucrt:per_thread_data.obj
 0001:0012c014       __acrt_getptd              000000018012d014 f   libucrt:per_thread_data.obj
 0001:0012c0e8       __acrt_getptd_head         000000018012d0e8 f   libucrt:per_thread_data.obj
 0001:0012c190       __acrt_getptd_noexit       000000018012d190 f   libucrt:per_thread_data.obj
 0001:0012c25c       __acrt_initialize_ptd      000000018012d25c f   libucrt:per_thread_data.obj
 0001:0012c298       __acrt_uninitialize_ptd    000000018012d298 f   libucrt:per_thread_data.obj
 0001:0012c2bc       __acrt_initialize_locks    000000018012d2bc f   libucrt:locks.obj
 0001:0012c304       __acrt_lock                000000018012d304 f   libucrt:locks.obj
 0001:0012c320       __acrt_uninitialize_locks  000000018012d320 f   libucrt:locks.obj
 0001:0012c358       __acrt_unlock              000000018012d358 f   libucrt:locks.obj
 0001:0012c374       __acrt_get_process_end_policy 000000018012d374 f   libucrt:win_policies.obj
 0001:0012c3b0       __acrt_call_reportfault    000000018012d3b0 f   libucrt:invalid_parameter.obj
 0001:0012c50c       __acrt_initialize_invalid_parameter_handler 000000018012d50c f   libucrt:invalid_parameter.obj
 0001:0012c514       _invalid_parameter         000000018012d514 f   libucrt:invalid_parameter.obj
 0001:0012c5c4       _invalid_parameter_noinfo  000000018012d5c4 f   libucrt:invalid_parameter.obj
 0001:0012c5e4       _invoke_watson             000000018012d5e4 f   libucrt:invalid_parameter.obj
 0001:0012c62c       __acrt_errno_from_os_error 000000018012d62c f   libucrt:errno.obj
 0001:0012c674       __acrt_errno_map_os_error  000000018012d674 f   libucrt:errno.obj
 0001:0012c6c4       __doserrno                 000000018012d6c4 f   libucrt:errno.obj
 0001:0012c6e4       _errno                     000000018012d6e4 f   libucrt:errno.obj
 0001:0012c704       _calloc_base               000000018012d704 f   libucrt:calloc_base.obj
 0001:0012c790       ??$__acrt_mbs_to_wcs_cp@U__crt_win32_buffer_internal_dynamic_resizing@@@@YAHQEBDAEAV?$__crt_win32_buffer@_WU__crt_win32_buffer_internal_dynamic_resizing@@@@I@Z 000000018012d790 f i libucrt:argv_wildcards.obj
 0001:0012c908       ??$__acrt_wcs_to_mbs_cp@U__crt_win32_buffer_internal_dynamic_resizing@@@@YAHQEB_WAEAV?$__crt_win32_buffer@DU__crt_win32_buffer_internal_dynamic_resizing@@@@I@Z 000000018012d908 f i libucrt:argv_wildcards.obj
 0001:0012d138       __acrt_expand_narrow_argv_wildcards 000000018012e138 f   libucrt:argv_wildcards.obj
 0001:0012d140       ??$__acrt_wcs_to_mbs_cp@U__crt_win32_buffer_no_resizing@@@@YAHQEB_WAEAV?$__crt_win32_buffer@DU__crt_win32_buffer_no_resizing@@@@I@Z 000000018012e140 f i libucrt:getmodulefilenamea.obj
 0001:0012d254       __acrt_GetModuleFileNameA  000000018012e254 f   libucrt:getmodulefilenamea.obj
 0001:0012da9c       __acrt_initialize_multibyte 000000018012ea9c f   libucrt:mbctype.obj
 0001:0012dafc       __acrt_update_thread_multibyte_data 000000018012eafc f   libucrt:mbctype.obj
 0001:0012db18       _setmbcp_nolock            000000018012eb18 f   libucrt:mbctype.obj
 0001:0012de4c       _ismbblead                 000000018012ee4c f   libucrt:ismbbyte.obj
 0001:0012de60       __acrt_initialize_command_line 000000018012ee60 f   libucrt:argv_data.obj
 0001:0012de88       __acrt_MultiByteToWideChar 000000018012ee88 f   libucrt:multibytetowidechar.obj
 0001:0012dee4       __acrt_WideCharToMultiByte 000000018012eee4 f   libucrt:widechartomultibyte.obj
 0001:0012df94       __dcrt_get_narrow_environment_from_os 000000018012ef94 f   libucrt:get_environment_from_os.obj
 0001:0012e098       _recalloc_base             000000018012f098 f   libucrt:recalloc.obj
 0001:0012e308       __acrt_AppPolicyGetProcessTerminationMethodInternal 000000018012f308 f   libucrt:winapi_thunks.obj
 0001:0012e358       __acrt_AreFileApisANSI     000000018012f358 f   libucrt:winapi_thunks.obj
 0001:0012e394       __acrt_FlsAlloc            000000018012f394 f   libucrt:winapi_thunks.obj
 0001:0012e3dc       __acrt_FlsFree             000000018012f3dc f   libucrt:winapi_thunks.obj
 0001:0012e424       __acrt_FlsGetValue         000000018012f424 f   libucrt:winapi_thunks.obj
 0001:0012e46c       __acrt_FlsSetValue         000000018012f46c f   libucrt:winapi_thunks.obj
 0001:0012e4c0       __acrt_InitializeCriticalSectionEx 000000018012f4c0 f   libucrt:winapi_thunks.obj
 0001:0012e524       __acrt_LCMapStringEx       000000018012f524 f   libucrt:winapi_thunks.obj
 0001:0012e600       __acrt_LocaleNameToLCID    000000018012f600 f   libucrt:winapi_thunks.obj
 0001:0012e650       __acrt_initialize_winapi_thunks 000000018012f650 f   libucrt:winapi_thunks.obj
 0001:0012e684       __acrt_uninitialize_winapi_thunks 000000018012f684 f   libucrt:winapi_thunks.obj
 0001:0012e6c8       __acrt_initialize_heap     000000018012f6c8 f   libucrt:heap_handle.obj
 0001:0012e6e4       __acrt_uninitialize_heap   000000018012f6e4 f   libucrt:heap_handle.obj
 0001:0012e8ec       __acrt_initialize_lowio    000000018012f8ec f   libucrt:ioinit.obj
 0001:0012e928       __acrt_uninitialize_lowio  000000018012f928 f   libucrt:ioinit.obj
 0001:0012e968       __acrt_execute_initializers 000000018012f968 f   libucrt:shared_initialization.obj
 0001:0012e9e8       __acrt_execute_uninitializers 000000018012f9e8 f   libucrt:shared_initialization.obj
 0001:0012ea24       __acrt_initialize_new_handler 000000018012fa24 f   libucrt:new_handler.obj
 0001:0012ea2c       _callnewh                  000000018012fa2c f   libucrt:new_handler.obj
 0001:0012ea5c       _query_new_handler         000000018012fa5c f   libucrt:new_handler.obj
 0001:0012ead8       __acrt_get_sigabrt_handler 000000018012fad8 f   libucrt:signal.obj
 0001:0012eb08       __acrt_initialize_signal_handlers 000000018012fb08 f   libucrt:signal.obj
 0001:0012eb28       raise                      000000018012fb28 f   libucrt:signal.obj
 0001:0012ed94       __acrt_has_user_matherr    000000018012fd94 f   libucrt:matherr.obj
 0001:0012edb4       __acrt_initialize_user_matherr 000000018012fdb4 f   libucrt:matherr.obj
 0001:0012edbc       __acrt_invoke_user_matherr 000000018012fdbc f   libucrt:matherr.obj
 0001:0012efc8       __acrt_stdio_flush_nolock  000000018012ffc8 f   libucrt:fflush.obj
 0001:0012f044       _fflush_nolock             0000000180130044 f   libucrt:fflush.obj
 0001:0012f090       _flushall                  0000000180130090 f   libucrt:fflush.obj
 0001:0012f098       __acrt_initialize_stdio    0000000180130098 f   libucrt:_file.obj
 0001:0012f1b8       __acrt_uninitialize_stdio  00000001801301b8 f   libucrt:_file.obj
 0001:0012f214       _lock_file                 0000000180130214 f   libucrt:_file.obj
 0001:0012f220       _unlock_file               0000000180130220 f   libucrt:_file.obj
 0001:0012f22c       _malloc_base               000000018013022c f   libucrt:malloc_base.obj
 0001:0012f28c       strtol                     000000018013028c f   libucrt:strtox.obj
 0001:0012f2b8       _mbtowc_l                  00000001801302b8 f   libucrt:mbtowc.obj
 0001:0012f438       mbtowc                     0000000180130438 f   libucrt:mbtowc.obj
 0001:0012f440       _wctomb_s_l                0000000180130440 f   libucrt:wctomb.obj
 0001:0012f5dc       strnlen                    00000001801305dc f   libucrt:strnlen.obj
 0001:0012f72c       wcsnlen                    000000018013072c f   libucrt:strnlen.obj
 0001:0012f904       __acrt_update_locale_info  0000000180130904 f   libucrt:locale_update.obj
 0001:0012f938       __acrt_update_multibyte_info 0000000180130938 f   libucrt:locale_update.obj
 0001:00130378       __acrt_fp_format           0000000180131378 f   libucrt:cvt.obj
 0001:001306b0       _fileno                    00000001801316b0 f   libucrt:fileno.obj
 0001:001306d8       _get_printf_count_output   00000001801316d8 f   libucrt:printf_count_output.obj
 0001:00130760       __acrt_set_locale_changed  0000000180131760 f   libucrt:wsetlocale.obj
 0001:0013076c       __acrt_uninitialize_locale 000000018013176c f   libucrt:wsetlocale.obj
 0001:0013079c       __pctype_func              000000018013179c f   libucrt:ctype.obj
 0001:001307cc       _isctype_l                 00000001801317cc f   libucrt:isctype.obj
 0001:001308f0       _get_fpsr                  00000001801318f0 f   libucrt:fpsr.obj
 0001:00130900       _set_fpsr                  0000000180131900 f   libucrt:fpsr.obj
 0001:0013090a       _fclrf                     000000018013190a f   libucrt:fpsr.obj
 0001:0013091e       _frnd                      000000018013191e f   libucrt:fpsr.obj
 0001:00130940       _raise_exc                 0000000180131940 f   libucrt:fpexcept.obj
 0001:00130968       _raise_exc_ex              0000000180131968 f   libucrt:fpexcept.obj
 0001:00130c78       _raise_excf                0000000180131c78 f   libucrt:fpexcept.obj
 0001:00130ca4       _set_errno_from_matherr    0000000180131ca4 f   libucrt:fpexcept.obj
 0001:00130cd4       __acrt_add_locale_ref      0000000180131cd4 f   libucrt:locale_refcounting.obj
 0001:00130d60       __acrt_free_locale         0000000180131d60 f   libucrt:locale_refcounting.obj
 0001:00130ed8       __acrt_locale_add_lc_time_reference 0000000180131ed8 f   libucrt:locale_refcounting.obj
 0001:00130f00       __acrt_locale_free_lc_time_if_unreferenced 0000000180131f00 f   libucrt:locale_refcounting.obj
 0001:00130f38       __acrt_locale_release_lc_time_reference 0000000180131f38 f   libucrt:locale_refcounting.obj
 0001:00130f60       __acrt_release_locale_ref  0000000180131f60 f   libucrt:locale_refcounting.obj
 0001:00131008       __acrt_update_thread_locale_data 0000000180132008 f   libucrt:locale_refcounting.obj
 0001:00131078       _updatetlocinfoEx_nolock   0000000180132078 f   libucrt:locale_refcounting.obj
 0001:001310e0       _query_new_mode            00000001801320e0 f   libucrt:new_mode.obj
 0001:001310f0       qsort                      00000001801320f0 f   libucrt:qsort.obj
 0001:00131490       strncpy_s                  0000000180132490 f   libucrt:strncpy_s.obj
 0001:00131610       strpbrk                    0000000180132610 f   libucrt:strpbrk.obj
 0001:001319d8       _mbsdec                    00000001801329d8 f   libucrt:mbsdec.obj
 0001:001319e0       _mbsdec_l                  00000001801329e0 f   libucrt:mbsdec.obj
 0001:00131a74       __acrt_GetStringTypeA      0000000180132a74 f   libucrt:getstringtypea.obj
 0001:00131f1c       __acrt_LCMapStringA        0000000180132f1c f   libucrt:lcmapstringa.obj
 0001:00131fcc       _msize_base                0000000180132fcc f   libucrt:msize.obj
 0001:00132008       _realloc_base              0000000180133008 f   libucrt:realloc_base.obj
 0001:00132084       __acrt_DownlevelLocaleNameToLCID 0000000180133084 f   libucrt:lcidtoname_downlevel.obj
 0001:00132134       __acrt_lowio_create_handle_array 0000000180133134 f   libucrt:osfinfo.obj
 0001:001321dc       __acrt_lowio_destroy_handle_array 00000001801331dc f   libucrt:osfinfo.obj
 0001:0013222c       __acrt_lowio_ensure_fh_exists 000000018013322c f   libucrt:osfinfo.obj
 0001:001322d4       __acrt_lowio_lock_fh       00000001801332d4 f   libucrt:osfinfo.obj
 0001:001322fc       __acrt_lowio_unlock_fh     00000001801332fc f   libucrt:osfinfo.obj
 0001:00132324       _free_osfhnd               0000000180133324 f   libucrt:osfinfo.obj
 0001:001323e0       _get_osfhandle             00000001801333e0 f   libucrt:osfinfo.obj
 0001:001324e4       _commit                    00000001801334e4 f   libucrt:commit.obj
 0001:00132df4       _write                     0000000180133df4 f   libucrt:write.obj
 0001:00132ee0       _write_nolock              0000000180133ee0 f   libucrt:write.obj
 0001:001331c4       _fcloseall                 00000001801341c4 f   libucrt:closeall.obj
 0001:00133278       __acrt_stdio_free_buffer_nolock 0000000180134278 f   libucrt:_freebuf.obj
 0001:001332b8       _isatty                    00000001801342b8 f   libucrt:isatty.obj
 0001:00133318       _isleadbyte_l              0000000180134318 f i libucrt:_wctype.obj
 0001:00133364       ?__mbrtowc_utf8@__crt_mbstring@@YA_KPEA_WPEBD_KPEAU_Mbstatet@@@Z 0000000180134364 f   libucrt:mbrtowc.obj
 0001:001333a0       ?__mbsrtowcs_utf8@__crt_mbstring@@YA_KPEA_WPEAPEBD_KPEAU_Mbstatet@@@Z 00000001801343a0 f   libucrt:mbrtowc.obj
 0001:00133518       ?__c32rtomb_utf8@__crt_mbstring@@YA_KPEAD_UPEAU_Mbstatet@@@Z 0000000180134518 f   libucrt:c32rtomb.obj
 0001:001335cc       __acrt_fp_strflt_to_string 00000001801345cc f   libucrt:_fptostr.obj
 0001:00133730       ?divide@__crt_strtox@@YA_KAEAUbig_integer@1@AEBU21@@Z 0000000180134730 f i libucrt:cfout.obj
 0001:00133b5c       __acrt_fltout              0000000180134b5c f   libucrt:cfout.obj
 0001:00134e28       fegetround                 0000000180135e28 f   libucrt:fegetround.obj
 0001:00134e3c       __acrt_locale_free_monetary 0000000180135e3c f   libucrt:initmon.obj
 0001:00134f48       __acrt_locale_free_numeric 0000000180135f48 f   libucrt:initnum.obj
 0001:0013500c       __acrt_locale_free_time    000000018013600c f   libucrt:inittime.obj
 0001:00135114       __strncnt                  0000000180136114 f   libucrt:strncnt.obj
 0001:0013512c       __ascii_wcsnicmp           000000018013612c f   libucrt:wcsnicmp.obj
 0001:00135178       _query_app_type            0000000180136178 f   libucrt:report_runtime_error.obj
 0001:0013521c       _lseeki64_nolock           000000018013621c f   libucrt:lseek.obj
 0001:00135224       _putwch_nolock             0000000180136224 f   libucrt:putwch.obj
 0001:00135260       _fclose_nolock             0000000180136260 f   libucrt:fclose.obj
 0001:001352e4       fclose                     00000001801362e4 f   libucrt:fclose.obj
 0001:00135348       ?__mbrtoc32_utf8@__crt_mbstring@@YA_KPEA_UPEBD_KPEAU_Mbstatet@@@Z 0000000180136348 f   libucrt:mbrtoc32.obj
 0001:00135520       _controlfp_s               0000000180136520 f   libucrt:contrlfp.obj
 0001:00135584       fegetenv                   0000000180136584 f   libucrt:fegetenv.obj
 0001:001355a4       fesetenv                   00000001801365a4 f   libucrt:fesetenv.obj
 0001:001355f0       feholdexcept               00000001801365f0 f   libucrt:feholdexcept.obj
 0001:00135640       ceil                       0000000180136640 f   libucrt:ceil.obj
 0001:00135710       log10                      0000000180136710 f   libucrt:log10.obj
 0001:00135cbc       __acrt_fenv_get_common_round_control 0000000180136cbc f   libucrt:_fenvutils.obj
 0001:00135cc8       __acrt_fenv_get_control    0000000180136cc8 f   libucrt:_fenvutils.obj
 0001:00135dbc       __acrt_fenv_get_status     0000000180136dbc f   libucrt:_fenvutils.obj
 0001:00135e10       __acrt_fenv_set_control    0000000180136e10 f   libucrt:_fenvutils.obj
 0001:00135f58       __acrt_fenv_set_status     0000000180136f58 f   libucrt:_fenvutils.obj
 0001:00135fdc       __dcrt_lowio_ensure_console_output_initialized 0000000180136fdc f   libucrt:initcon.obj
 0001:00136030       __dcrt_terminate_console_output 0000000180137030 f   libucrt:initcon.obj
 0001:0013604c       __dcrt_write_console       000000018013704c f   libucrt:initcon.obj
 0001:00136180       _close                     0000000180137180 f   libucrt:close.obj
 0001:00136224       _close_nolock              0000000180137224 f   libucrt:close.obj
 0001:001362e4       ?__acrt_stdio_free_stream@@YAXV__crt_stdio_stream@@@Z 00000001801372e4 f   libucrt:stream.obj
 0001:00136300       _clearfp                   0000000180137300 f   libucrt:ieee.obj
 0001:00136370       _control87                 0000000180137370 f   libucrt:ieee.obj
 0001:00136640       _log10_special             0000000180137640 f   libucrt:log_special.obj
 0001:00136700       _FindPESection             0000000180137700 f   LIBCMT:pesect.obj
 0001:00136750       _IsNonwritableInCurrentImage 0000000180137750 f   LIBCMT:pesect.obj
 0001:001367a0       _ValidateImageBase         00000001801377a0 f   LIBCMT:pesect.obj
 0001:001367cc       __GSHandlerCheck           00000001801377cc f   LIBCMT:gshandler.obj
 0001:001367ec       __GSHandlerCheckCommon     00000001801377ec f   LIBCMT:gshandler.obj
 0001:00136860       __security_check_cookie    0000000180137860 f   LIBCMT:amdsecgs.obj
 0001:00136880       __GSHandlerCheck_SEH       0000000180137880 f   LIBCMT:gshandlerseh.obj
 0001:00136908       __raise_securityfailure    0000000180137908 f   LIBCMT:gs_report.obj
 0001:0013693c       __report_gsfailure         000000018013793c f   LIBCMT:gs_report.obj
 0001:00136a10       __report_rangecheckfailure 0000000180137a10 f   LIBCMT:gs_report.obj
 0001:00136a24       __report_securityfailure   0000000180137a24 f   LIBCMT:gs_report.obj
 0001:00136ba4       strrchr                    0000000180137ba4 f   libvcruntime:strrchr.obj
 0001:00136cf0       memcmp                     0000000180137cf0 f   libvcruntime:memcmp.obj
 0001:00136dd0       _guard_dispatch_icall_nop  0000000180137dd0 f   LIBCMT:guard_dispatch.obj
 0001:00136df0       _guard_xfg_dispatch_icall_nop 0000000180137df0 f   LIBCMT:guard_xfg_dispatch.obj
 0002:00000000       __imp_FreeLibrary          0000000180139000     kernel32:KERNEL32.dll
 0002:00000008       __imp_GetProcAddress       0000000180139008     kernel32:KERNEL32.dll
 0002:00000010       __imp_LoadLibraryA         0000000180139010     kernel32:KERNEL32.dll
 0002:00000018       __imp_WriteConsoleW        0000000180139018     kernel32:KERNEL32.dll
 0002:00000020       __imp_RaiseException       0000000180139020     kernel32:KERNEL32.dll
 0002:00000028       __imp_GetLastError         0000000180139028     kernel32:KERNEL32.dll
 0002:00000030       __imp_GetSystemInfo        0000000180139030     kernel32:KERNEL32.dll
 0002:00000038       __imp_VirtualProtect       0000000180139038     kernel32:KERNEL32.dll
 0002:00000040       __imp_VirtualQuery         0000000180139040     kernel32:KERNEL32.dll
 0002:00000048       __imp_GetModuleHandleW     0000000180139048     kernel32:KERNEL32.dll
 0002:00000050       __imp_LoadLibraryExA       0000000180139050     kernel32:KERNEL32.dll
 0002:00000058       __imp_InitializeSListHead  0000000180139058     kernel32:KERNEL32.dll
 0002:00000060       __imp_QueryPerformanceCounter 0000000180139060     kernel32:KERNEL32.dll
 0002:00000068       __imp_GetCurrentProcessId  0000000180139068     kernel32:KERNEL32.dll
 0002:00000070       __imp_GetCurrentThreadId   0000000180139070     kernel32:KERNEL32.dll
 0002:00000078       __imp_GetSystemTimeAsFileTime 0000000180139078     kernel32:KERNEL32.dll
 0002:00000080       __imp_RtlCaptureContext    0000000180139080     kernel32:KERNEL32.dll
 0002:00000088       __imp_RtlLookupFunctionEntry 0000000180139088     kernel32:KERNEL32.dll
 0002:00000090       __imp_RtlVirtualUnwind     0000000180139090     kernel32:KERNEL32.dll
 0002:00000098       __imp_IsDebuggerPresent    0000000180139098     kernel32:KERNEL32.dll
 0002:000000a0       __imp_UnhandledExceptionFilter 00000001801390a0     kernel32:KERNEL32.dll
 0002:000000a8       __imp_SetUnhandledExceptionFilter 00000001801390a8     kernel32:KERNEL32.dll
 0002:000000b0       __imp_GetStartupInfoW      00000001801390b0     kernel32:KERNEL32.dll
 0002:000000b8       __imp_IsProcessorFeaturePresent 00000001801390b8     kernel32:KERNEL32.dll
 0002:000000c0       __imp_InterlockedPushEntrySList 00000001801390c0     kernel32:KERNEL32.dll
 0002:000000c8       __imp_InterlockedFlushSList 00000001801390c8     kernel32:KERNEL32.dll
 0002:000000d0       __imp_RtlUnwindEx          00000001801390d0     kernel32:KERNEL32.dll
 0002:000000d8       __imp_SetLastError         00000001801390d8     kernel32:KERNEL32.dll
 0002:000000e0       __imp_EnterCriticalSection 00000001801390e0     kernel32:KERNEL32.dll
 0002:000000e8       __imp_LeaveCriticalSection 00000001801390e8     kernel32:KERNEL32.dll
 0002:000000f0       __imp_DeleteCriticalSection 00000001801390f0     kernel32:KERNEL32.dll
 0002:000000f8       __imp_InitializeCriticalSectionAndSpinCount 00000001801390f8     kernel32:KERNEL32.dll
 0002:00000100       __imp_TlsAlloc             0000000180139100     kernel32:KERNEL32.dll
 0002:00000108       __imp_TlsGetValue          0000000180139108     kernel32:KERNEL32.dll
 0002:00000110       __imp_TlsSetValue          0000000180139110     kernel32:KERNEL32.dll
 0002:00000118       __imp_TlsFree              0000000180139118     kernel32:KERNEL32.dll
 0002:00000120       __imp_LoadLibraryExW       0000000180139120     kernel32:KERNEL32.dll
 0002:00000128       __imp_EncodePointer        0000000180139128     kernel32:KERNEL32.dll
 0002:00000130       __imp_RtlPcToFileHeader    0000000180139130     kernel32:KERNEL32.dll
 0002:00000138       __imp_GetCurrentProcess    0000000180139138     kernel32:KERNEL32.dll
 0002:00000140       __imp_ExitProcess          0000000180139140     kernel32:KERNEL32.dll
 0002:00000148       __imp_TerminateProcess     0000000180139148     kernel32:KERNEL32.dll
 0002:00000150       __imp_GetModuleHandleExW   0000000180139150     kernel32:KERNEL32.dll
 0002:00000158       __imp_GetModuleFileNameW   0000000180139158     kernel32:KERNEL32.dll
 0002:00000160       __imp_HeapFree             0000000180139160     kernel32:KERNEL32.dll
 0002:00000168       __imp_HeapAlloc            0000000180139168     kernel32:KERNEL32.dll
 0002:00000170       __imp_FindClose            0000000180139170     kernel32:KERNEL32.dll
 0002:00000178       __imp_FindFirstFileExW     0000000180139178     kernel32:KERNEL32.dll
 0002:00000180       __imp_FindNextFileW        0000000180139180     kernel32:KERNEL32.dll
 0002:00000188       __imp_IsValidCodePage      0000000180139188     kernel32:KERNEL32.dll
 0002:00000190       __imp_GetACP               0000000180139190     kernel32:KERNEL32.dll
 0002:00000198       __imp_GetOEMCP             0000000180139198     kernel32:KERNEL32.dll
 0002:000001a0       __imp_GetCPInfo            00000001801391a0     kernel32:KERNEL32.dll
 0002:000001a8       __imp_GetCommandLineA      00000001801391a8     kernel32:KERNEL32.dll
 0002:000001b0       __imp_GetCommandLineW      00000001801391b0     kernel32:KERNEL32.dll
 0002:000001b8       __imp_MultiByteToWideChar  00000001801391b8     kernel32:KERNEL32.dll
 0002:000001c0       __imp_WideCharToMultiByte  00000001801391c0     kernel32:KERNEL32.dll
 0002:000001c8       __imp_GetEnvironmentStringsW 00000001801391c8     kernel32:KERNEL32.dll
 0002:000001d0       __imp_FreeEnvironmentStringsW 00000001801391d0     kernel32:KERNEL32.dll
 0002:000001d8       __imp_LCMapStringW         00000001801391d8     kernel32:KERNEL32.dll
 0002:000001e0       __imp_GetProcessHeap       00000001801391e0     kernel32:KERNEL32.dll
 0002:000001e8       __imp_GetStdHandle         00000001801391e8     kernel32:KERNEL32.dll
 0002:000001f0       __imp_GetFileType          00000001801391f0     kernel32:KERNEL32.dll
 0002:000001f8       __imp_GetStringTypeW       00000001801391f8     kernel32:KERNEL32.dll
 0002:00000200       __imp_HeapSize             0000000180139200     kernel32:KERNEL32.dll
 0002:00000208       __imp_HeapReAlloc          0000000180139208     kernel32:KERNEL32.dll
 0002:00000210       __imp_SetStdHandle         0000000180139210     kernel32:KERNEL32.dll
 0002:00000218       __imp_FlushFileBuffers     0000000180139218     kernel32:KERNEL32.dll
 0002:00000220       __imp_WriteFile            0000000180139220     kernel32:KERNEL32.dll
 0002:00000228       __imp_GetConsoleOutputCP   0000000180139228     kernel32:KERNEL32.dll
 0002:00000230       __imp_GetConsoleMode       0000000180139230     kernel32:KERNEL32.dll
 0002:00000238       __imp_SetFilePointerEx     0000000180139238     kernel32:KERNEL32.dll
 0002:00000240       __imp_CreateFileW          0000000180139240     kernel32:KERNEL32.dll
 0002:00000248       __imp_CloseHandle          0000000180139248     kernel32:KERNEL32.dll
 0002:00000250       \177KERNEL32_NULL_THUNK_DATA 0000000180139250     kernel32:KERNEL32.dll
 0002:00000258       __guard_check_icall_fptr   0000000180139258     LIBCMT:guard_support.obj
 0002:00000260       __guard_xfg_check_icall_fptr 0000000180139260     LIBCMT:guard_support.obj
 0002:00000268       __guard_dispatch_icall_fptr 0000000180139268     LIBCMT:guard_support.obj
 0002:00000270       __guard_xfg_dispatch_icall_fptr 0000000180139270     LIBCMT:guard_support.obj
 0002:00000278       __guard_xfg_table_dispatch_icall_fptr 0000000180139278     LIBCMT:guard_support.obj
 0002:00000280       __castguard_check_failure_os_handled_fptr 0000000180139280     LIBCMT:guard_support.obj
 0002:00000288       __guard_memcpy_fptr        0000000180139288     libvcruntime:softmemtag.obj
 0002:00000290       __xc_a                     0000000180139290     LIBCMT:initializers.obj
 0002:000016c0       __xc_z                     000000018013a6c0     LIBCMT:initializers.obj
 0002:000016c8       __xi_a                     000000018013a6c8     LIBCMT:initializers.obj
 0002:000016d0       __acrt_tran_fma3_initializer 000000018013a6d0     libucrt:fma3_initializer.obj
 0002:000016d8       __acrt_multibyte_initializer 000000018013a6d8     libucrt:multibyte_initializer.obj
 0002:000016e0       __acrt_stdio_initializer   000000018013a6e0     libucrt:stdio_initializer.obj
 0002:000016e8       __xi_z                     000000018013a6e8     LIBCMT:initializers.obj
 0002:000016f0       __xp_a                     000000018013a6f0     LIBCMT:initializers.obj
 0002:000016f8       __acrt_locale_terminator   000000018013a6f8     libucrt:locale_initializer.obj
 0002:00001700       __dcrt_console_output_terminator 000000018013a700     libucrt:console_output_initializer.obj
 0002:00001708       __acrt_stdio_terminator    000000018013a708     libucrt:stdio_initializer.obj
 0002:00001710       __xp_z                     000000018013a710     LIBCMT:initializers.obj
 0002:00001718       __xt_a                     000000018013a718     LIBCMT:initializers.obj
 0002:00001720       __xt_z                     000000018013a720     LIBCMT:initializers.obj
 0002:00001730       ??_7PxCollection@physx@@6B@ 000000018013a730     CmCollection.obj
 0002:000017b0       ??_C@_0BA@DLCJDKDM@NonTrackedAlloc@ 000000018013a7b0     CmCollection.obj
 0002:000017c0       ??_7Collection@Cm@physx@@6B@ 000000018013a7c0     CmCollection.obj
 0002:00001840       ??_C@_0GE@GBACBMOC@PxCollection?3?3add?5called?5for?5an@ 000000018013a840     CmCollection.obj
 0002:000018b0       ??_C@_0FE@DPGGGPNI@E?3?2UnityProjects?2_Iterum?2PhysXS@ 000000018013a8b0     CmCollection.obj
 0002:00001910       ??_C@_0EM@OMMGDOMK@PxCollection?3?3add?5called?5with?5a@ 000000018013a910     CmCollection.obj
 0002:00001960       ??_C@_0FN@MLOIAADC@E?3?2UnityProjects?2_Iterum?2PhysXS@ 000000018013a960     CmCollection.obj
 0002:000019c0       ??_C@_0BM@OIFKLHDN@?$DMallocation?5names?5disabled?$DO@ 000000018013a9c0     CmCollection.obj
 0002:000019e0       ??_C@_08MDGMHCHN@PtrTable@ 000000018013a9e0     CmPtrTable.obj
 0002:000019ec       ??_C@_04GKJNKENE@void@     000000018013a9ec     CmPtrTable.obj
 0002:000019f8       ??_C@_07DFEBJDHE@mSingle@  000000018013a9f8     CmPtrTable.obj
 0002:00001a00       ??_C@_05NLHHBMOH@PxU16@    000000018013aa00     CmPtrTable.obj
 0002:00001a08       ??_C@_06EPKHJPIM@mCount@   000000018013aa08     CmPtrTable.obj
 0002:00001a10       ??_C@_04DDKJGDCM@bool@     000000018013aa10     CmPtrTable.obj
 0002:00001a18       ??_C@_0M@DAGELID@mOwnsMemory@ 000000018013aa18     CmPtrTable.obj
 0002:00001a28       ??_C@_0M@MMPOMMLP@mBufferUsed@ 000000018013aa28     CmPtrTable.obj
 0002:00001a38       ??_7RadixSort@Cm@physx@@6B@ 000000018013aa38     CmRadixSort.obj
 0002:00001a40       __xmm@00000001000000010000000100000001 000000018013aa40     CmRadixSort.obj
 0002:00001a50       __xmm@00000003000000020000000100000000 000000018013aa50     CmRadixSort.obj
 0002:00001a60       ??_7RadixSortBuffered@Cm@physx@@6B@ 000000018013aa60     CmRadixSortBuffered.obj
 0002:00001a70       ??_C@_0FL@KLEAMGPL@E?3?2UnityProjects?2_Iterum?2PhysXS@ 000000018013aa70     CmRadixSortBuffered.obj
 0002:00001acc       ?sBufferSize@DebugText@Cm@physx@@2HB 000000018013aacc     CmRenderOutput.obj
 0002:00001ad0       ??_C@_0FF@PGOGAKFH@E?3?2UnityProjects?2_Iterum?2PhysXS@ 000000018013aad0     CmRenderOutput.obj
 0002:00001b28       __real@3e19999a            000000018013ab28     CmRenderOutput.obj
 0002:00001b2c       __real@3e800000            000000018013ab2c     CmRenderOutput.obj
 0002:00001b30       __real@3f3504f3            000000018013ab30     CmRenderOutput.obj
 0002:00001b34       __real@3f800000            000000018013ab34     CmRenderOutput.obj
 0002:00001b38       __real@3fddb3d7            000000018013ab38     CmRenderOutput.obj
 0002:00001b3c       __real@40c90fdb            000000018013ab3c     CmRenderOutput.obj
 0002:00001b40       __xmm@7fffffff7fffffff7fffffff7fffffff 000000018013ab40     CmRenderOutput.obj
 0002:00001b50       __xmm@80000000800000008000000080000000 000000018013ab50     CmRenderOutput.obj
 0002:00001b60       __real@3d4ccccd            000000018013ab60     CmVisualization.obj
 0002:00001b64       __real@3e490fdb            000000018013ab64     CmVisualization.obj
 0002:00001b68       __real@3e99999a            000000018013ab68     CmVisualization.obj
 0002:00001b6c       __real@3f000000            000000018013ab6c     CmVisualization.obj
 0002:00001b70       __real@3fc00000            000000018013ab70     CmVisualization.obj
 0002:00001b74       __real@c0000000            000000018013ab74     CmVisualization.obj
 0002:00001b80       __xmm@3f800000000000000000000000000000 000000018013ab80     CmVisualization.obj
 0002:00001b90       ??_C@_0BB@CPDDPFKD@GetUpdatedModule@ 000000018013ab90     CmWindowsModuleUpdateLoader.obj
 0002:00001ba8       ??_C@_0BA@EGLNOO@PhysXFoundation@ 000000018013aba8     CmWindowsDelayLoadHook.obj
 0002:00001bb8       ??_C@_0M@ILKNCJKN@PhysXCommon@ 000000018013abb8     CmWindowsDelayLoadHook.obj
 0002:00001bf0       ??_C@_06EJKDJEDO@PxBase@   000000018013abf0     GuBounds.obj
 0002:00001bf8       ??_C@_0N@CDGINLLF@PxConvexMesh@ 000000018013abf8     GuBounds.obj
 0002:00001c08       ??_C@_0O@PBAKPCEC@PxHeightField@ 000000018013ac08     GuBounds.obj
 0002:00001c18       ??_7PxBase@physx@@6B@      000000018013ac18     GuBounds.obj
 0002:00001c40       ??_C@_0DG@DFOCGHP@Gu?3?3GeometryUnion?3?3computeBound@ 000000018013ac40     GuBounds.obj
 0002:00001c80       ??_C@_0FD@KGDAAJPJ@E?3?2UnityProjects?2_Iterum?2PhysXS@ 000000018013ac80     GuBounds.obj
 0002:00001cd4       __real@358637bd            000000018013acd4     GuBounds.obj
 0002:00001cd8       __real@3f400000            000000018013acd8     GuBounds.obj
 0002:00001cdc       __real@3f7fffef            000000018013acdc     GuBounds.obj
 0002:00001ce0       __real@3f8147ae            000000018013ace0     GuBounds.obj
 0002:00001ce4       __real@7e7fffff            000000018013ace4     GuBounds.obj
 0002:00001ce8       __real@7f7fffff            000000018013ace8     GuBounds.obj
 0002:00001cec       __real@fe7fffff            000000018013acec     GuBounds.obj
 0002:00001cf0       __xmm@000000003a83126f3a83126f3a83126f 000000018013acf0     GuBounds.obj
 0002:00001d00       __xmm@00000000ba83126fba83126fba83126f 000000018013ad00     GuBounds.obj
 0002:00001d10       __xmm@3a83126f3a83126f3a83126f3a83126f 000000018013ad10     GuBounds.obj
 0002:00001d20       __xmm@3f0000003f0000003f0000003f000000 000000018013ad20     GuBounds.obj
 0002:00001d30       __xmm@3f8147ae3f8147ae3f8147ae3f8147ae 000000018013ad30     GuBounds.obj
 0002:00001d40       __xmm@ba83126fba83126fba83126fba83126f 000000018013ad40     GuBounds.obj
 0002:00001d70       __real@3f7ff972            000000018013ad70     GuBox.obj
 0002:00001da0       ??_7?$EntityReport@I@Gu@physx@@6B@ 000000018013ada0     GuCCTSweepTests.obj
 0002:00001dc0       __real@3b03126f            000000018013adc0     GuCCTSweepTests.obj
 0002:00001dc4       __real@40000000            000000018013adc4     GuCCTSweepTests.obj
 0002:00001df0       __real@38d1b717            000000018013adf0     GuGeometryQuery.obj
 0002:00001df4       __real@49742400            000000018013adf4     GuGeometryQuery.obj
 0002:00001df8       __real@bf800000            000000018013adf8     GuGeometryQuery.obj
 0002:00001e20       ??_C@_0FI@COLLGBHP@E?3?2UnityProjects?2_Iterum?2PhysXS@ 000000018013ae20     GuGeometryUnion.obj
 0002:00001ec0       ??_7GuMeshFactory@physx@@6B@ 000000018013aec0     GuMeshFactory.obj
 0002:00001ec8       ??_7MeshDataBase@Gu@physx@@6B@ 000000018013aec8     GuMeshFactory.obj
 0002:00001ed0       ??_C@_0FI@CIPOCONF@E?3?2UnityProjects?2_Iterum?2PhysXS@ 000000018013aed0     GuMeshFactory.obj
 0002:00001f28       ??_7TriangleMeshData@Gu@physx@@6B@ 000000018013af28     GuMeshFactory.obj
 0002:00001f30       ??_7RTreeTriangleData@Gu@physx@@6B@ 000000018013af30     GuMeshFactory.obj
 0002:00001f38       ??_7BV4TriangleData@Gu@physx@@6B@ 000000018013af38     GuMeshFactory.obj
 0002:00001f40       ??_C@_0FI@MGCICAFC@E?3?2UnityProjects?2_Iterum?2PhysXS@ 000000018013af40     GuMeshFactory.obj
 0002:00001fa0       ??_C@_0GP@NHELMDAL@Loading?5triangle?5mesh?5failed?3?5D@ 000000018013afa0     GuMeshFactory.obj
 0002:00002010       ??_C@_0BP@CDOKDACA@RTree?5binary?5image?5load?5error?4@ 000000018013b010     GuMeshFactory.obj
 0002:00002030       ??_C@_0BN@MJPNIELF@BV4?5binary?5image?5load?5error?4@ 000000018013b030     GuMeshFactory.obj
 0002:00002050       ??_C@_0BO@JDPABAOF@BV32?5binary?5image?5load?5error?4@ 000000018013b050     GuMeshFactory.obj
 0002:00002070       ??_C@_0FF@PPILADCO@E?3?2UnityProjects?2_Iterum?2PhysXS@ 000000018013b070     GuMeshFactory.obj
 0002:000020f0       ??_C@_0P@GGNFNHKF@PxTriangleMesh@ 000000018013b0f0     GuMetaData.obj
 0002:00002100       ??_C@_07GFCEJNGM@Valency@  000000018013b100     GuMetaData.obj
 0002:00002108       ??_C@_07NHGKEEIN@mOffset@  000000018013b108     GuMetaData.obj
 0002:00002110       ??_C@_0BB@BAGHBMNJ@BigConvexRawData@ 000000018013b110     GuMetaData.obj
 0002:00002128       ??_C@_07PBDEJAAC@mSubdiv@  000000018013b128     GuMetaData.obj
 0002:00002130       ??_C@_0L@HNPACPGH@mNbSamples@ 000000018013b130     GuMetaData.obj
 0002:0000213c       ??_C@_04NCKNBPPK@PxU8@     000000018013b13c     GuMetaData.obj
 0002:00002148       ??_C@_08DEPEKJNI@mSamples@ 000000018013b148     GuMetaData.obj
 0002:00002154       ??_C@_05LMJPANIN@PxU32@    000000018013b154     GuMetaData.obj
 0002:00002160       ??_C@_08IJDNJBMI@mNbVerts@ 000000018013b160     GuMetaData.obj
 0002:00002170       ??_C@_0M@MMKMIJAF@mNbAdjVerts@ 000000018013b170     GuMetaData.obj
 0002:00002180       ??_C@_0L@EOKMNILC@mValencies@ 000000018013b180     GuMetaData.obj
 0002:00002190       ??_C@_0P@DLGEAMHJ@mAdjacentVerts@ 000000018013b190     GuMetaData.obj
 0002:000021a0       ??_C@_0O@PFOPBKAM@BigConvexData@ 000000018013b1a0     GuMetaData.obj
 0002:000021b0       ??_C@_05PLKALGFN@mData@    000000018013b1b0     GuMetaData.obj
 0002:000021b8       ??_C@_08PEMCLHEM@mVBuffer@ 000000018013b1b8     GuMetaData.obj
 0002:000021c8       ??_C@_09FBMAGD@Alignment@  000000018013b1c8     GuMetaData.obj
 0002:000021d8       ??_C@_0BE@KFHIBEEA@InternalObjectsData@ 000000018013b1d8     GuMetaData.obj
 0002:000021ec       ??_C@_06GIEBFILM@PxReal@   000000018013b1ec     GuMetaData.obj
 0002:000021f8       ??_C@_07NKGFFIBH@mRadius@  000000018013b1f8     GuMetaData.obj
 0002:00002200       ??_C@_08EHFCACAE@mExtents@ 000000018013b200     GuMetaData.obj
 0002:00002210       ??_C@_0BA@LFMGGCBK@HullPolygonData@ 000000018013b210     GuMetaData.obj
 0002:00002220       ??_C@_06BOHHGLB@mPlane@    000000018013b220     GuMetaData.obj
 0002:00002228       ??_C@_06EHMLHGLN@mVRef8@   000000018013b228     GuMetaData.obj
 0002:00002230       ??_C@_09BAHHHINI@mMinIndex@ 000000018013b230     GuMetaData.obj
 0002:00002240       ??_C@_0P@GBLBPIPB@ConvexHullData@ 000000018013b240     GuMetaData.obj
 0002:00002250       ??_C@_09JDCJAPKD@PxBounds3@ 000000018013b250     GuMetaData.obj
 0002:0000225c       ??_C@_05NDNHIFA@mAABB@     000000018013b25c     GuMetaData.obj
 0002:00002264       ??_C@_06KDGGGLIJ@PxVec3@   000000018013b264     GuMetaData.obj
 0002:00002270       ??_C@_0O@LNOGEMJI@mCenterOfMass@ 000000018013b270     GuMetaData.obj
 0002:00002280       ??_C@_09CNMCBBKH@mPolygons@ 000000018013b280     GuMetaData.obj
 0002:00002290       ??_C@_0BC@KKPDCFJC@mBigConvexRawData@ 000000018013b290     GuMetaData.obj
 0002:000022a8       ??_C@_08ELDMKGKH@mNbEdges@ 000000018013b2a8     GuMetaData.obj
 0002:000022b8       ??_C@_0BA@CGLOHBAC@mNbHullVertices@ 000000018013b2b8     GuMetaData.obj
 0002:000022c8       ??_C@_0M@HGFFLLDM@mNbPolygons@ 000000018013b2c8     GuMetaData.obj
 0002:000022d8       ??_C@_09BHJEMDGO@mInternal@ 000000018013b2d8     GuMetaData.obj
 0002:000022e8       ??_C@_0L@GMFHOMKA@ConvexMesh@ 000000018013b2e8     GuMetaData.obj
 0002:000022f8       ??_C@_0N@KECKKFLK@RefCountable@ 000000018013b2f8     GuMetaData.obj
 0002:00002308       ??_C@_09ILEBDLJH@mHullData@ 000000018013b308     GuMetaData.obj
 0002:00002314       ??_C@_03DKDIKGNC@mNb@      000000018013b314     GuMetaData.obj
 0002:00002318       ??_C@_0P@ENLHFHMD@mBigConvexData@ 000000018013b318     GuMetaData.obj
 0002:00002328       ??_C@_05ILALLCHK@mMass@    000000018013b328     GuMetaData.obj
 0002:00002330       ??_C@_07DBPDADGB@PxMat33@  000000018013b330     GuMetaData.obj
 0002:00002338       ??_C@_08FNBHNDBI@mInertia@ 000000018013b338     GuMetaData.obj
 0002:00002348       ??_C@_0O@FCKNKLMJ@GuMeshFactory@ 000000018013b348     GuMetaData.obj
 0002:00002358       ??_C@_0N@EGBCLMAK@mMeshFactory@ 000000018013b358     GuMetaData.obj
 0002:00002368       ??_C@_0BE@CJJAMAMK@PxHeightFieldSample@ 000000018013b368     GuMetaData.obj
 0002:0000237c       ??_C@_05MBLIPEMA@PxI16@    000000018013b37c     GuMetaData.obj
 0002:00002384       ??_C@_06LNLHEAAG@height@   000000018013b384     GuMetaData.obj
 0002:00002390       ??_C@_0N@HHDGHJN@PxBitAndByte@ 000000018013b390     GuMetaData.obj
 0002:000023a0       ??_C@_0P@MBBMLBO@materialIndex0@ 000000018013b3a0     GuMetaData.obj
 0002:000023b0       ??_C@_0P@BFAKPKFP@materialIndex1@ 000000018013b3b0     GuMetaData.obj
 0002:000023c0       ??_C@_0BD@EBLPJEOE@PxHeightFieldFlags@ 000000018013b3c0     GuMetaData.obj
 0002:000023d8       ??_C@_0BK@FNNCFFCN@PxHeightFieldFormat?3?3Enum@ 000000018013b3d8     GuMetaData.obj
 0002:000023f8       ??_C@_0BA@CLNFMAAA@HeightFieldData@ 000000018013b3f8     GuMetaData.obj
 0002:00002408       ??_C@_04IMCGAIPI@rows@     000000018013b408     GuMetaData.obj
 0002:00002410       ??_C@_07HIFEPIJN@columns@  000000018013b410     GuMetaData.obj
 0002:00002418       ??_C@_08MOAGOABI@rowLimit@ 000000018013b418     GuMetaData.obj
 0002:00002428       ??_C@_08BAGEHOBO@colLimit@ 000000018013b428     GuMetaData.obj
 0002:00002438       ??_C@_09LKDBLADF@nbColumns@ 000000018013b438     GuMetaData.obj
 0002:00002448       ??_C@_07ODIFGGLK@samples@  000000018013b448     GuMetaData.obj
 0002:00002450       ??_C@_0BE@POHEGOJG@convexEdgeThreshold@ 000000018013b450     GuMetaData.obj
 0002:00002464       ??_C@_05GECEPKB@flags@     000000018013b464     GuMetaData.obj
 0002:0000246c       ??_C@_06DLEPGFEF@format@   000000018013b46c     GuMetaData.obj
 0002:00002478       ??_C@_0BF@MOGDNMPL@PxMaterialTableIndex@ 000000018013b478     GuMetaData.obj
 0002:00002490       ??_C@_0M@JMJICJJO@HeightField@ 000000018013b490     GuMetaData.obj
 0002:000024a0       ??_C@_0O@ENGHMLJP@mSampleStride@ 000000018013b4a0     GuMetaData.obj
 0002:000024b0       ??_C@_0L@EBEEMFFB@mMinHeight@ 000000018013b4b0     GuMetaData.obj
 0002:000024c0       ??_C@_0L@EAEIFPOF@mMaxHeight@ 000000018013b4c0     GuMetaData.obj
 0002:000024d0       ??_C@_0N@FEFJOKKE@mModifyCount@ 000000018013b4d0     GuMetaData.obj
 0002:000024e0       ??_C@_09PHDKHCK@RTreePage@ 000000018013b4e0     GuMetaData.obj
 0002:000024ec       ??_C@_04LLPOBGED@minx@     000000018013b4ec     GuMetaData.obj
 0002:000024f4       ??_C@_04KCOFCHAC@miny@     000000018013b4f4     GuMetaData.obj
 0002:000024fc       ??_C@_04IJMIHEMB@minz@     000000018013b4fc     GuMetaData.obj
 0002:00002504       ??_C@_04GGOBOBGO@maxx@     000000018013b504     GuMetaData.obj
 0002:0000250c       ??_C@_04HPPKNACP@maxy@     000000018013b50c     GuMetaData.obj
 0002:00002514       ??_C@_04FENHIDOM@maxz@     000000018013b514     GuMetaData.obj
 0002:0000251c       ??_C@_04HHDFEJON@ptrs@     000000018013b51c     GuMetaData.obj
 0002:00002524       ??_C@_05FFEIGAJF@RTree@    000000018013b524     GuMetaData.obj
 0002:0000252c       ??_C@_06OMCHPNEO@PxVec4@   000000018013b52c     GuMetaData.obj
 0002:00002538       ??_C@_0L@NBIFEFLN@mBoundsMin@ 000000018013b538     GuMetaData.obj
 0002:00002548       ??_C@_0L@MDAOKBNC@mBoundsMax@ 000000018013b548     GuMetaData.obj
 0002:00002558       ??_C@_0N@NJEHLCOF@mInvDiagonal@ 000000018013b558     GuMetaData.obj
 0002:00002568       ??_C@_0BA@BEFIGPFG@mDiagonalScaler@ 000000018013b568     GuMetaData.obj
 0002:00002578       ??_C@_09DICGGKGO@mPageSize@ 000000018013b578     GuMetaData.obj
 0002:00002588       ??_C@_0O@BOFFCNOL@mNumRootPages@ 000000018013b588     GuMetaData.obj
 0002:00002598       ??_C@_0L@JKLGBKAE@mNumLevels@ 000000018013b598     GuMetaData.obj
 0002:000025a8       ??_C@_0M@PHDOHJGK@mTotalNodes@ 000000018013b5a8     GuMetaData.obj
 0002:000025b8       ??_C@_0M@GDGHALAO@mTotalPages@ 000000018013b5b8     GuMetaData.obj
 0002:000025c4       ??_C@_06MHCBBJGP@mFlags@   000000018013b5c4     GuMetaData.obj
 0002:000025cc       ??_C@_06MMNBLHOK@mPages@   000000018013b5cc     GuMetaData.obj
 0002:000025d8       ??_C@_0L@LEOGNOEC@SourceMesh@ 000000018013b5d8     GuMetaData.obj
 0002:000025e4       ??_C@_06JFCLJMNN@mVerts@   000000018013b5e4     GuMetaData.obj
 0002:000025f0       ??_C@_07MPIKOOAP@mNbTris@  000000018013b5f0     GuMetaData.obj
 0002:000025f8       ??_C@_0N@FBMOMEHF@mTriangles32@ 000000018013b5f8     GuMetaData.obj
 0002:00002608       ??_C@_0N@DGCGNFBP@mTriangles16@ 000000018013b608     GuMetaData.obj
 0002:00002618       ??_C@_06DHAAKLFK@mRemap@   000000018013b618     GuMetaData.obj
 0002:00002620       ??_C@_0O@NLNHFNO@QuantizedAABB@ 000000018013b620     GuMetaData.obj
 0002:00002630       ??_C@_0BC@OOGBEMHH@mData?$FL0?$FN?4mExtents@ 000000018013b630     GuMetaData.obj
 0002:00002648       ??_C@_0BB@OCEDKIEF@mData?$FL0?$FN?4mCenter@ 000000018013b648     GuMetaData.obj
 0002:00002660       ??_C@_0BC@HFMEAABI@mData?$FL1?$FN?4mExtents@ 000000018013b660     GuMetaData.obj
 0002:00002678       ??_C@_0BB@CDMNHHIF@mData?$FL1?$FN?4mCenter@ 000000018013b678     GuMetaData.obj
 0002:00002690       ??_C@_0BC@CFKNCOI@mData?$FL2?$FN?4mExtents@ 000000018013b690     GuMetaData.obj
 0002:000026a8       ??_C@_0BB@LKCPBBIE@mData?$FL2?$FN?4mCenter@ 000000018013b6a8     GuMetaData.obj
 0002:000026c0       ??_C@_0O@MJJKKPFN@BVDataPackedQ@ 000000018013b6c0     GuMetaData.obj
 0002:000026d0       ??_C@_0M@PNCEBOG@LocalBounds@ 000000018013b6d0     GuMetaData.obj
 0002:000026e0       ??_C@_07GNKDIIKJ@mCenter@  000000018013b6e0     GuMetaData.obj
 0002:000026e8       ??_C@_05KNFBNCOH@float@    000000018013b6e8     GuMetaData.obj
 0002:000026f0       ??_C@_0BC@LADJKHPL@mExtentsMagnitude@ 000000018013b6f0     GuMetaData.obj
 0002:00002708       ??_C@_07HELIOLAF@BV4Tree@  000000018013b708     GuMetaData.obj
 0002:00002710       ??_C@_0P@EMMDNPMH@mMeshInterface@ 000000018013b710     GuMetaData.obj
 0002:00002720       ??_C@_0N@DCKMHLCL@mLocalBounds@ 000000018013b720     GuMetaData.obj
 0002:00002730       ??_C@_08EEJOMIJL@mNbNodes@ 000000018013b730     GuMetaData.obj
 0002:00002740       ??_C@_09FGKNPI@mInitData@  000000018013b740     GuMetaData.obj
 0002:00002750       ??_C@_0BC@CLDEHKCO@mCenterOrMinCoeff@ 000000018013b750     GuMetaData.obj
 0002:00002768       ??_C@_0BD@LAOLBNJ@mExtentsOrMaxCoeff@ 000000018013b768     GuMetaData.obj
 0002:00002780       ??_C@_0P@JEECKKBL@mUserAllocated@ 000000018013b780     GuMetaData.obj
 0002:00002790       ??_C@_0L@GLIMNECG@mQuantized@ 000000018013b790     GuMetaData.obj
 0002:000027a0       ??_C@_08BNDBAGDH@mPadding@ 000000018013b7a0     GuMetaData.obj
 0002:000027b0       ??_C@_0N@OJNNNLIB@TriangleMesh@ 000000018013b7b0     GuMetaData.obj
 0002:000027c0       ??_C@_0M@OGEDMEAL@mNbVertices@ 000000018013b7c0     GuMetaData.obj
 0002:000027d0       ??_C@_0N@MGGDNHNI@mNbTriangles@ 000000018013b7d0     GuMetaData.obj
 0002:000027e0       ??_C@_09LNNEGOJA@mVertices@ 000000018013b7e0     GuMetaData.obj
 0002:000027f0       ??_C@_0L@KBOFAKLO@mTriangles@ 000000018013b7f0     GuMetaData.obj
 0002:00002800       ??_C@_0P@MHDFIHLD@mExtraTrigData@ 000000018013b800     GuMetaData.obj
 0002:00002810       ??_C@_0N@MGIKKCI@mGeomEpsilon@ 000000018013b810     GuMetaData.obj
 0002:00002820       ??_C@_0BB@IFLOOCNA@mMaterialIndices@ 000000018013b820     GuMetaData.obj
 0002:00002838       ??_C@_0L@OPJMBFMI@mFaceRemap@ 000000018013b838     GuMetaData.obj
 0002:00002848       ??_C@_0N@BIOECAPM@mAdjacencies@ 000000018013b848     GuMetaData.obj
 0002:00002858       ??_C@_0BA@OCOIGPII@mGRB_triIndices@ 000000018013b858     GuMetaData.obj
 0002:00002868       ??_C@_0BE@JPINNDAH@mGRB_triAdjacencies@ 000000018013b868     GuMetaData.obj
 0002:00002880       ??_C@_0P@EDFJJHEF@mGRB_faceRemap@ 000000018013b880     GuMetaData.obj
 0002:00002890       ??_C@_0O@CKMBAIFN@mGRB_BV32Tree@ 000000018013b890     GuMetaData.obj
 0002:000028a0       ??_C@_0BC@IFGECKF@RTreeTriangleMesh@ 000000018013b8a0     GuMetaData.obj
 0002:000028b4       ??_C@_06JDIHDDGN@mRTree@   000000018013b8b4     GuMetaData.obj
 0002:000028c0       ??_C@_0BA@LNNFPOKA@BV4TriangleMesh@ 000000018013b8c0     GuMetaData.obj
 0002:000028d0       ??_C@_08FKLPEGDB@mBV4Tree@ 000000018013b8d0     GuMetaData.obj
 0002:000028e0       ??_C@_0BG@EAPGHGEI@MaterialIndicesStruct@ 000000018013b8e0     GuMetaData.obj
 0002:000028f8       ??_C@_07OKCKIPNN@indices@  000000018013b8f8     GuMetaData.obj
 0002:00002900       ??_C@_0L@KCBHBGBP@numIndices@ 000000018013b900     GuMetaData.obj
 0002:0000290c       ??_C@_03PNAAIPML@pad@      000000018013b90c     GuMetaData.obj
 0002:00002910       ??_C@_05MOMFAHOB@pad64@    000000018013b910     GuMetaData.obj
 0002:00002918       ??_C@_0BK@GNJGHDGO@PxConvexMeshGeometryFlags@ 000000018013b918     GuMetaData.obj
 0002:00002938       ??_C@_0BJ@LIOOOKID@ShadowConvexMeshGeometry@ 000000018013b938     GuMetaData.obj
 0002:00002958       ??_C@_0BF@PJFPGDNP@PxGeometryType?3?3Enum@ 000000018013b958     GuMetaData.obj
 0002:00002970       ??_C@_05GNIIDDHH@mType@    000000018013b970     GuMetaData.obj
 0002:00002978       ??_C@_0M@JFNDEGCE@PxMeshScale@ 000000018013b978     GuMetaData.obj
 0002:00002984       ??_C@_05MHMEBBGO@scale@    000000018013b984     GuMetaData.obj
 0002:00002990       ??_C@_0L@OKMLGDHH@convexMesh@ 000000018013b990     GuMetaData.obj
 0002:000029a0       ??_C@_09PLMNFMJI@meshFlags@ 000000018013b9a0     GuMetaData.obj
 0002:000029b0       ??_C@_0BB@EINMAHMD@paddingFromFlags@ 000000018013b9b0     GuMetaData.obj
 0002:000029c8       ??_C@_08CICKEKCM@hullData@ 000000018013b9c8     GuMetaData.obj
 0002:000029d8       ??_C@_0O@EOELHBFF@gpuCompatible@ 000000018013b9d8     GuMetaData.obj
 0002:000029e8       ??_C@_0BE@FFPGAPHN@PxMeshGeometryFlags@ 000000018013b9e8     GuMetaData.obj
 0002:00002a00       ??_C@_0BL@KABFLNEB@ShadowTriangleMeshGeometry@ 000000018013ba00     GuMetaData.obj
 0002:00002a20       ??_C@_0N@FKKDJAHE@triangleMesh@ 000000018013ba20     GuMetaData.obj
 0002:00002a30       ??_C@_08BEABJAHJ@meshData@ 000000018013ba30     GuMetaData.obj
 0002:00002a40       ??_C@_0BA@NGIONHFJ@materialIndices@ 000000018013ba40     GuMetaData.obj
 0002:00002a50       ??_C@_09JGGNEAGH@materials@ 000000018013ba50     GuMetaData.obj
 0002:00002a60       ??_C@_0BK@OIFEOHNJ@ShadowHeightFieldGeometry@ 000000018013ba60     GuMetaData.obj
 0002:00002a80       ??_C@_0M@IEKJPCGG@heightField@ 000000018013ba80     GuMetaData.obj
 0002:00002a90       ??_C@_0M@LHLNPPJ@heightScale@ 000000018013ba90     GuMetaData.obj
 0002:00002aa0       ??_C@_08GJPCBGLE@rowScale@ 000000018013baa0     GuMetaData.obj
 0002:00002ab0       ??_C@_0M@HHBHEPCE@columnScale@ 000000018013bab0     GuMetaData.obj
 0002:00002ac0       ??_C@_0BB@PMIIHDKK@heightFieldFlags@ 000000018013bac0     GuMetaData.obj
 0002:00002ad8       ??_C@_0BA@DMOKLLHN@heightFieldData@ 000000018013bad8     GuMetaData.obj
 0002:00002ae8       ??_C@_0BE@IKADPPC@ShadowPlaneGeometry@ 000000018013bae8     GuMetaData.obj
 0002:00002b00       ??_C@_0BF@PIKLLBGN@ShadowSphereGeometry@ 000000018013bb00     GuMetaData.obj
 0002:00002b18       ??_C@_06KGHINEPG@radius@   000000018013bb18     GuMetaData.obj
 0002:00002b20       ??_C@_0BG@OBHJHKMO@ShadowCapsuleGeometry@ 000000018013bb20     GuMetaData.obj
 0002:00002b38       ??_C@_0L@PMAANELH@halfHeight@ 000000018013bb38     GuMetaData.obj
 0002:00002b48       ??_C@_0BC@DMJNHLLO@ShadowBoxGeometry@ 000000018013bb48     GuMetaData.obj
 0002:00002b60       ??_C@_0M@CMAEPJOI@halfExtents@ 000000018013bb60     GuMetaData.obj
 0002:00002b70       ??_C@_0BH@PKALDLFA@PxConvexMeshGeometryLL@ 000000018013bb70     GuMetaData.obj
 0002:00002b88       ??_C@_0BJ@GAFBNAAE@PxTriangleMeshGeometryLL@ 000000018013bb88     GuMetaData.obj
 0002:00002ba8       ??_C@_0BI@IIFLCNOC@PxHeightFieldGeometryLL@ 000000018013bba8     GuMetaData.obj
 0002:00002bc0       ??_C@_0BA@NAHKMBFO@PxPlaneGeometry@ 000000018013bbc0     GuMetaData.obj
 0002:00002bd0       ??_C@_0BB@CHBDIEFA@PxSphereGeometry@ 000000018013bbd0     GuMetaData.obj
 0002:00002be8       ??_C@_0BC@LJMOIOOK@PxCapsuleGeometry@ 000000018013bbe8     GuMetaData.obj
 0002:00002c00       ??_C@_0O@OEDJDNFP@PxBoxGeometry@ 000000018013bc00     GuMetaData.obj
 0002:00002c10       ??_C@_0BC@ICOOCLFG@Gu?3?3GeometryUnion@ 000000018013bc10     GuMetaData.obj
 0002:00002c28       ??_7?$SupportLocalImpl@VBoxV@Gu@physx@@@Gu@physx@@6B@ 000000018013bc28     GuMTD.obj
 0002:00002c48       ??_7SupportLocal@Gu@physx@@6B@ 000000018013bc48     GuMTD.obj
 0002:00002c90       ??_7?$SupportLocalImpl@VConvexHullV@Gu@physx@@@Gu@physx@@6B@ 000000018013bc90     GuMTD.obj
 0002:00002cb0       ??_7?$SupportLocalImpl@VConvexHullNoScaleV@Gu@physx@@@Gu@physx@@6B@ 000000018013bcb0     GuMTD.obj
 0002:00002cd0       ?absMask@?1??FAbs@aos@shdfnd@physx@@YA?AT__m128@@T5@@Z@4QBIB 000000018013bcd0     GuMTD.obj
 0002:00002ce0       ??_7GjkConvexBase@Gu@physx@@6B@ 000000018013bce0     GuMTD.obj
 0002:00002d10       ??_7?$LocalConvex@VCapsuleV@Gu@physx@@@Gu@physx@@6B@ 000000018013bd10     GuMTD.obj
 0002:00002d40       ??_7?$LocalConvex@VConvexHullV@Gu@physx@@@Gu@physx@@6B@ 000000018013bd40     GuMTD.obj
 0002:00002d70       __real@2edbe6ff            000000018013bd70     GuMTD.obj
 0002:00002d74       __real@3ccccccd            000000018013bd74     GuMTD.obj
 0002:00002d78       __real@3dcccccd            000000018013bd78     GuMTD.obj
 0002:00002d7c       __real@ff7fffff            000000018013bd7c     GuMTD.obj
 0002:00002d80       __xmm@0000000000000000000000003f800000 000000018013bd80     GuMTD.obj
 0002:00002d90       __xmm@00000000000000003f80000000000000 000000018013bd90     GuMTD.obj
 0002:00002da0       __xmm@000000003f8000000000000000000000 000000018013bda0     GuMTD.obj
 0002:00002db0       __xmm@000000003f8000003f8000003f800000 000000018013bdb0     GuMTD.obj
 0002:00002dc0       __xmm@00000000ffffffffffffffffffffffff 000000018013bdc0     GuMTD.obj
 0002:00002dd0       __xmm@34000000340000003400000034000000 000000018013bdd0     GuMTD.obj
 0002:00002de0       __xmm@358637bd358637bd358637bd358637bd 000000018013bde0     GuMTD.obj
 0002:00002df0       __xmm@3dcccccd3dcccccd3dcccccd3dcccccd 000000018013bdf0     GuMTD.obj
 0002:00002e00       __xmm@3e4ccccd3e4ccccd3e4ccccd3e4ccccd 000000018013be00     GuMTD.obj
 0002:00002e10       __xmm@3f7ff1413f7ff1413f7ff1413f7ff141 000000018013be10     GuMTD.obj
 0002:00002e20       __xmm@3f7ff2e53f7ff2e53f7ff2e53f7ff2e5 000000018013be20     GuMTD.obj
 0002:00002e30       __xmm@3f8000003f8000003f8000003f800000 000000018013be30     GuMTD.obj
 0002:00002e40       __xmm@7f7fffff7f7fffff7f7fffff7f7fffff 000000018013be40     GuMTD.obj
 0002:00002e50       __xmm@bf000000bf000000bf000000bf000000 000000018013be50     GuMTD.obj
 0002:00002e80       ??_7?$RelativeConvex@VBoxV@Gu@physx@@@Gu@physx@@6B@ 000000018013be80     GuOverlapTests.obj
 0002:00002eb0       ??_7?$RelativeConvex@VConvexHullV@Gu@physx@@@Gu@physx@@6B@ 000000018013beb0     GuOverlapTests.obj
 0002:00002ee0       ??_C@_0EC@MLIJOGHA@Height?5Field?5Overlap?5test?5calle@ 000000018013bee0     GuOverlapTests.obj
 0002:00002f30       ??_C@_0FJ@PILGMOEG@E?3?2UnityProjects?2_Iterum?2PhysXS@ 000000018013bf30     GuOverlapTests.obj
 0002:00002f90       ??_C@_0EC@GJLDADPE@Height?5Field?5Raycast?5test?5calle@ 000000018013bf90     GuRaycastTests.obj
 0002:00002fe0       ??_C@_0FJ@LHLLJOM@E?3?2UnityProjects?2_Iterum?2PhysXS@ 000000018013bfe0     GuRaycastTests.obj
 0002:00003070       __real@1e3ce508            000000018013c070     GuRaycastTests.obj
 0002:00003074       __real@28800000            000000018013c074     GuRaycastTests.obj
 0002:00003078       __real@33d6bf95            000000018013c078     GuRaycastTests.obj
 0002:0000307c       __real@3727c5ac            000000018013c07c     GuRaycastTests.obj
 0002:00003080       __real@3f0147ae            000000018013c080     GuRaycastTests.obj
 0002:00003084       __real@3f7ffffe            000000018013c084     GuRaycastTests.obj
 0002:00003088       __real@3f800347            000000018013c088     GuRaycastTests.obj
 0002:0000308c       __real@41200000            000000018013c08c     GuRaycastTests.obj
 0002:00003090       __real@80000000            000000018013c090     GuRaycastTests.obj
 0002:00003094       __real@b3d6bf95            000000018013c094     GuRaycastTests.obj
 0002:00003098       __real@b8d1b717            000000018013c098     GuRaycastTests.obj
 0002:0000309c       __real@c1200000            000000018013c09c     GuRaycastTests.obj
 0002:000030d0       ??_7?$MeshHitCallback@UPxRaycastHit@physx@@@Gu@physx@@6B@ 000000018013c0d0     GuSweepMTD.obj
 0002:000030e0       ??_7MeshMTDGenerationCallback@@6B@ 000000018013c0e0     GuSweepMTD.obj
 0002:000030f0       ??_7MidPhaseQueryLocalReport@@6B@ 000000018013c0f0     GuSweepMTD.obj
 0002:00003100       __real@3f933333            000000018013c100     GuSweepMTD.obj
 0002:00003110       __xmm@00000000000000003f8000003f800000 000000018013c110     GuSweepMTD.obj
 0002:00003120       __xmm@3e19999a3e19999a3e19999a3e19999a 000000018013c120     GuSweepMTD.obj
 0002:00003130       __xmm@3e8000003e8000003e8000003e800000 000000018013c130     GuSweepMTD.obj
 0002:00003160       __real@3c23d70a            000000018013c160     GuSweepSharedTests.obj
 0002:00003164       __real@42c80000            000000018013c164     GuSweepSharedTests.obj
 0002:00003170       __xmm@ffffffffffffffffffffffffffffffff 000000018013c170     GuSweepSharedTests.obj
 0002:000031a0       ??_C@_0EA@GNDJNJGB@Height?5Field?5Sweep?5test?5called?5@ 000000018013c1a0     GuSweepTests.obj
 0002:000031e0       ??_C@_0FH@LEAOLLCH@E?3?2UnityProjects?2_Iterum?2PhysXS@ 000000018013c1e0     GuSweepTests.obj
 0002:00003238       ??_7?$LocalConvex@VBoxV@Gu@physx@@@Gu@physx@@6B@ 000000018013c238     GuSweepTests.obj
 0002:00003268       ??_7?$LocalConvex@VTriangleV@Gu@physx@@@Gu@physx@@6B@ 000000018013c268     GuSweepTests.obj
 0002:000032a0       __xmm@00000002000000020000000200000002 000000018013c2a0     GuSweepTests.obj
 0002:000032b0       __xmm@3eaaaa9f3eaaaa9f3eaaaa9f3eaaaa9f 000000018013c2b0     GuSweepTests.obj
 0002:000032e0       ??_C@_0FK@JOPGLGNK@E?3?2UnityProjects?2_Iterum?2PhysXS@ 000000018013c2e0     GuAABBTreeBuild.obj
 0002:00003360       ??_7PxBVHStructure@physx@@6B@ 000000018013c360     GuBVHStructure.obj
 0002:000033b0       ??_C@_0P@CDPKBIIF@PxBVHStructure@ 000000018013c3b0     GuBVHStructure.obj
 0002:000033c0       ??_7RefCountable@Cm@physx@@6B@ 000000018013c3c0     GuBVHStructure.obj
 0002:000033d0       ??_7BVHStructure@Gu@physx@@6BPxBVHStructure@2@@ 000000018013c3d0     GuBVHStructure.obj
 0002:00003420       ??_7BVHStructure@Gu@physx@@6BRefCountable@Cm@2@@ 000000018013c420     GuBVHStructure.obj
 0002:00003430       ??_C@_0FJ@HMOGDHKE@E?3?2UnityProjects?2_Iterum?2PhysXS@ 000000018013c430     GuBVHStructure.obj
 0002:00003490       ??_C@_0DF@GMOKOMPK@Gu?3?3BVHStructure?3?3release?3?5doub@ 000000018013c490     GuBVHStructure.obj
 0002:00003530       __real@00000000            000000018013c530     GuCCDSweepConvexMesh.obj
 0002:00003534       __real@3c343958            000000018013c534     GuCCDSweepConvexMesh.obj
 0002:00003538       __real@3ca3d70a            000000018013c538     GuCCDSweepConvexMesh.obj
 0002:0000353c       __real@3f0ccccd            000000018013c53c     GuCCDSweepConvexMesh.obj
 0002:00003540       __real@3f8ccccd            000000018013c540     GuCCDSweepConvexMesh.obj
 0002:00003544       __real@b58637bd            000000018013c544     GuCCDSweepConvexMesh.obj
 0002:00003550       __xmm@000000000000000000000000fe7fffff 000000018013c550     GuCCDSweepConvexMesh.obj
 0002:00003560       __xmm@fe7ffffffe7fffff7e7fffff7e7fffff 000000018013c560     GuCCDSweepConvexMesh.obj
 0002:00003590       ??_7?$RelativeConvex@VCapsuleV@Gu@physx@@@Gu@physx@@6B@ 000000018013c590     GuCCDSweepPrimitives.obj
 0002:000035c0       ??_7?$RelativeConvex@VTriangleV@Gu@physx@@@Gu@physx@@6B@ 000000018013c5c0     GuCCDSweepPrimitives.obj
 0002:000035f0       __real@3ba3d70a            000000018013c5f0     GuCCDSweepPrimitives.obj
 0002:000035f4       __real@501502f9            000000018013c5f4     GuCCDSweepPrimitives.obj
 0002:00003700       __real@3f7fbe77            000000018013c700     GuContactBoxBox.obj
 0002:00003750       __real@3a83126f            000000018013c750     GuContactCapsuleCapsule.obj
 0002:00003754       __real@3f7ff2e5            000000018013c754     GuContactCapsuleCapsule.obj
 0002:00003758       __real@40800000            000000018013c758     GuContactCapsuleCapsule.obj
 0002:000037e0       __real@358637be            000000018013c7e0     GuContactCapsuleMesh.obj
 0002:000037e4       __real@3eaaaaab            000000018013c7e4     GuContactCapsuleMesh.obj
 0002:000037e8       __real@3f8020c5            000000018013c7e8     GuContactCapsuleMesh.obj
 0002:000037ec       __real@ba83126f            000000018013c7ec     GuContactCapsuleMesh.obj
 0002:00003840       ??_7ConvexMeshContactGenerationCallback@@6B@ 000000018013c840     GuContactConvexMesh.obj
 0002:000038c0       __real@3ec90fdb            000000018013c8c0     GuContactPolygonPolygon.obj
 0002:000038c4       __real@3f490fdb            000000018013c8c4     GuContactPolygonPolygon.obj
 0002:000038c8       __real@3f96cbe4            000000018013c8c8     GuContactPolygonPolygon.obj
 0002:000038cc       __real@3fc90fdb            000000018013c8cc     GuContactPolygonPolygon.obj
 0002:000038d0       __real@3ffb53d2            000000018013c8d0     GuContactPolygonPolygon.obj
 0002:000038d4       __real@4016cbe4            000000018013c8d4     GuContactPolygonPolygon.obj
 0002:000038d8       __real@402feddf            000000018013c8d8     GuContactPolygonPolygon.obj
 0002:00003980       ??_C@_0FE@PLFLAOAG@E?3?2UnityProjects?2_Iterum?2PhysXS@ 000000018013c980     GuContactSphereMesh.obj
 0002:00003a20       __real@bf000000            000000018013ca20     GuContactSphereSphere.obj
 0002:00003a30       ??_C@_0GB@BPDNFKKM@E?3?2UnityProjects?2_Iterum?2PhysXS@ 000000018013ca30     GuBigConvexData.obj
 0002:00003ac0       ??_7PxConvexMesh@physx@@6B@ 000000018013cac0     GuConvexMesh.obj
 0002:00003b38       ??_7ConvexMesh@Gu@physx@@6BPxConvexMesh@2@@ 000000018013cb38     GuConvexMesh.obj
 0002:00003bc0       ??_7ConvexMesh@Gu@physx@@6BRefCountable@Cm@2@@ 000000018013cbc0     GuConvexMesh.obj
 0002:00003bd0       ??_C@_0FO@CCBFDJFO@E?3?2UnityProjects?2_Iterum?2PhysXS@ 000000018013cbd0     GuConvexMesh.obj
 0002:00003c30       ??_C@_0DM@NEJKOFIP@Loading?5convex?5mesh?5failed?3?5Dep@ 000000018013cc30     GuConvexMesh.obj
 0002:00003c70       ??_C@_0DD@GDAMDLJL@Gu?3?3ConvexMesh?3?3release?3?5double@ 000000018013cc70     GuConvexMesh.obj
 0002:00003cd0       __xmm@000000000000000000000000ffffffff 000000018013ccd0     GuConvexSupportTable.obj
 0002:00003ce0       __xmm@0000000000000000ffffffff00000000 000000018013cce0     GuConvexSupportTable.obj
 0002:00003cf0       __xmm@0000000000000000ffffffffffffffff 000000018013ccf0     GuConvexSupportTable.obj
 0002:00003d00       __xmm@00000000ffffffff0000000000000000 000000018013cd00     GuConvexSupportTable.obj
 0002:00003d10       __xmm@00000000ffffffff00000000ffffffff 000000018013cd10     GuConvexSupportTable.obj
 0002:00003d20       __xmm@00000000ffffffffffffffff00000000 000000018013cd20     GuConvexSupportTable.obj
 0002:00003dd0       __real@2b8cbccc            000000018013cdd0     GuDistanceSegmentTriangle.obj
 0002:00003de0       __xmm@3f8000013f8000013f8000013f800001 000000018013cde0     GuDistanceSegmentTriangle.obj
 0002:00003df0       __xmm@b4000000b4000000b4000000b4000000 000000018013cdf0     GuDistanceSegmentTriangle.obj
 0002:00003e50       __xmm@38d1b71738d1b71738d1b71738d1b717 000000018013ce50     GuGJKSimplex.obj
 0002:00003e60       __xmm@b58637bdb58637bdb58637bdb58637bd 000000018013ce60     GuGJKSimplex.obj
 0002:00003e90       ??_7PxHeightField@physx@@6B@ 000000018013ce90     GuHeightField.obj
 0002:00003f30       ??_7HeightField@Gu@physx@@6BPxHeightField@2@@ 000000018013cf30     GuHeightField.obj
 0002:00003fe0       ??_7HeightField@Gu@physx@@6BRefCountable@Cm@2@@ 000000018013cfe0     GuHeightField.obj
 0002:00003ff0       ??_C@_0DL@DNGFPCEG@Gu?3?3HeightField?3?3onRefCountZero@ 000000018013cff0     GuHeightField.obj
 0002:00004030       ??_C@_0FL@JLEBOLHF@E?3?2UnityProjects?2_Iterum?2PhysXS@ 000000018013d030     GuHeightField.obj
 0002:00004090       ??_C@_0CI@DMKEKGNK@Gu?3?3HeightField?3?3load?3?5PX_ALLOC@ 000000018013d090     GuHeightField.obj
 0002:000040c0       ??_C@_0EO@JFIMCNNF@E?3?2UnityProjects?2_Iterum?2PhysXS@ 000000018013d0c0     GuHeightField.obj
 0002:00004130       __real@3a03126f            000000018013d130     GuHeightFieldUtil.obj
 0002:00004134       __real@3f19999a            000000018013d134     GuHeightFieldUtil.obj
 0002:000041a0       ??_7HeightFieldTraceSegmentReport@@6B@ 000000018013d1a0     GuSweepsHF.obj
 0002:000041b0       ??_7CapsuleTraceSegmentReport@@6B@ 000000018013d1b0     GuSweepsHF.obj
 0002:000041c0       ??_7ConvexTraceSegmentReport@@6B@ 000000018013d1c0     GuSweepsHF.obj
 0002:000041d0       ??_7BoxTraceSegmentReport@@6B@ 000000018013d1d0     GuSweepsHF.obj
 0002:000041e0       __real@aedbe6ff            000000018013d1e0     GuSweepsHF.obj
 0002:00004210       __real@3089705f            000000018013d210     GuIntersectionRayBox.obj
 0002:00004214       __real@34000000            000000018013d214     GuIntersectionRayBox.obj
 0002:00004218       __real@b4000000            000000018013d218     GuIntersectionRayBox.obj
 0002:00004220       __xmm@000000003089705f3089705f3089705f 000000018013d220     GuIntersectionRayBox.obj
 0002:00004230       __xmm@00000000bf800000bf800000bf800000 000000018013d230     GuIntersectionRayBox.obj
 0002:00004280       ??_C@_0FF@FHKFEEEG@E?3?2UnityProjects?2_Iterum?2PhysXS@ 000000018013d280     GuBV4.obj
 0002:00004300       ??_C@_0FK@IBMOKAEG@E?3?2UnityProjects?2_Iterum?2PhysXS@ 000000018013d300     GuBV4Build.obj
 0002:0000435c       __real@38000100            000000018013d35c     GuBV4Build.obj
 0002:00004360       __real@3e93cd3a            000000018013d360     GuBV4Build.obj
 0002:00004364       __real@46fffe00            000000018013d364     GuBV4Build.obj
 0002:00004368       __real@be93cd3a            000000018013d368     GuBV4Build.obj
 0002:00004390       __xmm@0000ffff0000ffff0000ffff0000ffff 000000018013d390     GuBV4_AABBSweep.obj
 0002:000043a0       __xmm@3089705f3089705f3089705f3089705f 000000018013d3a0     GuBV4_AABBSweep.obj
 0002:000043b0       __xmm@33d6bf9533d6bf9533d6bf9533d6bf95 000000018013d3b0     GuBV4_AABBSweep.obj
 0002:000043c0       __xmm@40000000400000004000000040000000 000000018013d3c0     GuBV4_AABBSweep.obj
 0002:000044d0       __xmm@00000000000000007f7fffff00000000 000000018013d4d0     GuMidphaseBV4.obj
 0002:00004540       ??_C@_0FD@EHCCILIF@Adjacency?5information?5not?5creat@ 000000018013d540     GuMeshQuery.obj
 0002:000045a0       ??_C@_0FL@JIKJBDBO@E?3?2UnityProjects?2_Iterum?2PhysXS@ 000000018013d5a0     GuMeshQuery.obj
 0002:00004600       ??_C@_0BA@MBAFFELP@MeshQuery?4sweep@ 000000018013d600     GuMeshQuery.obj
 0002:00004610       __real@4cbebc20            000000018013d610     GuMeshQuery.obj
 0002:00004640       ??_7Callback@RTree@Gu@physx@@6B@ 000000018013d640     GuMidphaseRTree.obj
 0002:00004658       ??_7CallbackRaycast@RTree@Gu@physx@@6B@ 000000018013d658     GuMidphaseRTree.obj
 0002:00004658       ??_7CallbackRefit@RTree@Gu@physx@@6B@ 000000018013d658     GuTriangleMeshRTree.obj
 0002:00004668       ??_7?$RayRTreeCallback@$00$0A@@@6BCallbackRaycast@RTree@Gu@physx@@@ 000000018013d668     GuMidphaseRTree.obj
 0002:00004668       ??_7?$RayRTreeCallback@$0A@$0A@@@6BCallbackRaycast@RTree@Gu@physx@@@ 000000018013d668     GuMidphaseRTree.obj
 0002:00004678       ??_7?$RayRTreeCallback@$00$0A@@@6BCallback@RTree@Gu@physx@@@ 000000018013d678     GuMidphaseRTree.obj
 0002:00004678       ??_7?$RayRTreeCallback@$0A@$0A@@@6BCallback@RTree@Gu@physx@@@ 000000018013d678     GuMidphaseRTree.obj
 0002:00004690       ??_7RayMeshColliderCallback@@6B@ 000000018013d690     GuMidphaseRTree.obj
 0002:000046a0       ??_7?$RayRTreeCallback@$0A@$00@@6BCallbackRaycast@RTree@Gu@physx@@@ 000000018013d6a0     GuMidphaseRTree.obj
 0002:000046b0       ??_7?$RayRTreeCallback@$0A@$00@@6BCallback@RTree@Gu@physx@@@ 000000018013d6b0     GuMidphaseRTree.obj
 0002:000046c8       ??_7?$RayRTreeCallback@$00$00@@6BCallbackRaycast@RTree@Gu@physx@@@ 000000018013d6c8     GuMidphaseRTree.obj
 0002:000046d8       ??_7?$RayRTreeCallback@$00$00@@6BCallback@RTree@Gu@physx@@@ 000000018013d6d8     GuMidphaseRTree.obj
 0002:000047b0       ??_7ConvexVsMeshOverlapCallback@@6B@ 000000018013d7b0     GuOverlapTestsMesh.obj
 0002:000047e0       ?MN@RTreePage@Gu@physx@@2MB 000000018013d7e0     GuRTree.obj
 0002:000047e4       ?MX@RTreePage@Gu@physx@@2MB 000000018013d7e4     GuRTree.obj
 0002:000047f0       ??_C@_0FH@BPCMACEI@E?3?2UnityProjects?2_Iterum?2PhysXS@ 000000018013d7f0     GuRTree.obj
 0002:000048c0       ??_7SweepShapeMeshHitCallback@Gu@physx@@6B@ 000000018013d8c0     GuSweepsMesh.obj
 0002:000048d0       ??_7SweepCapsuleMeshHitCallback@Gu@physx@@6B@ 000000018013d8d0     GuSweepsMesh.obj
 0002:000048e0       ??_7SweepBoxMeshHitCallback@Gu@physx@@6B@ 000000018013d8e0     GuSweepsMesh.obj
 0002:000048f0       ??_7SweepConvexMeshHitCallback@Gu@physx@@6B@ 000000018013d8f0     GuSweepsMesh.obj
 0002:00004920       ??_7PxTriangleMesh@physx@@6B@ 000000018013d920     GuTriangleMesh.obj
 0002:000049a8       ??_7TriangleMesh@Gu@physx@@6BPxTriangleMesh@2@@ 000000018013d9a8     GuTriangleMesh.obj
 0002:00004a48       ??_7TriangleMesh@Gu@physx@@6BRefCountable@Cm@2@@ 000000018013da48     GuTriangleMesh.obj
 0002:00004a58       ??_C@_0DF@DNLKAHAL@Gu?3?3TriangleMesh?3?3release?3?5doub@ 000000018013da58     GuTriangleMesh.obj
 0002:00004a90       ??_C@_0FO@BMEFJGLP@E?3?2UnityProjects?2_Iterum?2PhysXS@ 000000018013da90     GuTriangleMesh.obj
 0002:00004af0       ??_C@_0GH@IGKFPLIJ@PxTriangleMesh?3?3getVerticesForM@ 000000018013daf0     GuTriangleMesh.obj
 0002:00004b60       ??_C@_0FF@LHAOBIMM@PxTriangleMesh?3?3refitBVH?$CI?$CJ?5is?5o@ 000000018013db60     GuTriangleMesh.obj
 0002:00004be0       ??_C@_0BE@CNJKIINO@PxBVH34TriangleMesh@ 000000018013dbe0     GuTriangleMeshBV4.obj
 0002:00004bf8       ??_7BV4TriangleMesh@Gu@physx@@6BPxTriangleMesh@2@@ 000000018013dbf8     GuTriangleMeshBV4.obj
 0002:00004c98       ??_7BV4TriangleMesh@Gu@physx@@6BRefCountable@Cm@2@@ 000000018013dc98     GuTriangleMeshBV4.obj
 0002:00004cd0       ??_C@_0BE@EIFHCCBO@PxBVH33TriangleMesh@ 000000018013dcd0     GuTriangleMeshRTree.obj
 0002:00004ce8       ??_7RTreeTriangleMesh@Gu@physx@@6BPxTriangleMesh@2@@ 000000018013dce8     GuTriangleMeshRTree.obj
 0002:00004d88       ??_7RTreeTriangleMesh@Gu@physx@@6BRefCountable@Cm@2@@ 000000018013dd88     GuTriangleMeshRTree.obj
 0002:00004d98       ??_7?$RefitCallback@G@physx@@6B@ 000000018013dd98     GuTriangleMeshRTree.obj
 0002:00004da8       ??_7?$RefitCallback@I@physx@@6B@ 000000018013dda8     GuTriangleMeshRTree.obj
 0002:00004dc0       __xmm@38383838383838383838383838383838 000000018013ddc0     GuTriangleMeshRTree.obj
 0002:00004dd0       ??_C@_0FG@ODKLKAPA@E?3?2UnityProjects?2_Iterum?2PhysXS@ 000000018013ddd0     GuBV32.obj
 0002:00004e50       ??_C@_0FL@MNGDMNCL@E?3?2UnityProjects?2_Iterum?2PhysXS@ 000000018013de50     GuBV32Build.obj
 0002:00004ed0       __xmm@00000000358637bd358637bd358637bd 000000018013ded0     GuPCMContactBoxBox.obj
 0002:00004ee0       __xmm@3d4ccccd3d4ccccd3d4ccccd3d4ccccd 000000018013dee0     GuPCMContactBoxBox.obj
 0002:00004ef0       __xmm@3f4ccccd3f4ccccd3f4ccccd3f4ccccd 000000018013def0     GuPCMContactBoxBox.obj
 0002:00004f00       __xmm@ffffffff00000000ffffffffffffffff 000000018013df00     GuPCMContactBoxBox.obj
 0002:00004f30       ??_7?$LocalConvex@VConvexHullNoScaleV@Gu@physx@@@Gu@physx@@6B@ 000000018013df30     GuPCMContactBoxConvex.obj
 0002:00004f60       __xmm@3f3504f33f3504f33f3504f33f3504f3 000000018013df60     GuPCMContactBoxConvex.obj
 0002:00004fb0       __xmm@ffffffffffffffffffffffff00000000 000000018013dfb0     GuPCMContactCapsuleCapsule.obj
 0002:00004fe0       __xmm@3fa000003fa000003fa000003fa00000 000000018013dfe0     GuPCMContactCapsuleConvex.obj
 0002:00005010       ??_7PCMCapsuleVsHeightfieldContactGenerationCallback@physx@@6B@ 000000018013e010     GuPCMContactCapsuleHeightField.obj
 0002:00005020       __real@3f7f3b64            000000018013e020     GuPCMContactCapsuleHeightField.obj
 0002:00005030       __xmm@3f7ef9db3f7ef9db3f7ef9db3f7ef9db 000000018013e030     GuPCMContactCapsuleHeightField.obj
 0002:00005070       ??_7PCMCapsuleVsMeshContactGenerationCallback@physx@@6B@ 000000018013e070     GuPCMContactCapsuleMesh.obj
 0002:000050a0       ??_7?$SupportLocalImpl@VTriangleV@Gu@physx@@@Gu@physx@@6B@ 000000018013e0a0     GuPCMContactConvexCommon.obj
 0002:000050c0       ??_C@_0FN@CJNFPDDD@E?3?2UnityProjects?2_Iterum?2PhysXS@ 000000018013e0c0     GuPCMContactConvexCommon.obj
 0002:00005120       __xmm@3cf5c2803cf5c2803cf5c2803cf5c280 000000018013e120     GuPCMContactConvexCommon.obj
 0002:00005130       __xmm@3f7851ec3f7851ec3f7851ec3f7851ec 000000018013e130     GuPCMContactConvexCommon.obj
 0002:00005140       __xmm@3f7ff9723f7ff9723f7ff9723f7ff972 000000018013e140     GuPCMContactConvexCommon.obj
 0002:00005150       __xmm@3f7fffef3f7fffef3f7fffef3f7fffef 000000018013e150     GuPCMContactConvexCommon.obj
 0002:00005180       ??_7?$RelativeConvex@VConvexHullNoScaleV@Gu@physx@@@Gu@physx@@6B@ 000000018013e180     GuPCMContactConvexConvex.obj
 0002:000051d0       ??_7PCMConvexVsHeightfieldContactGenerationCallback@physx@@6B@ 000000018013e1d0     GuPCMContactConvexHeightField.obj
 0002:000051e0       __xmm@3f19999a3f19999a3f19999a3f19999a 000000018013e1e0     GuPCMContactConvexHeightField.obj
 0002:00005220       ??_7PCMConvexVsMeshContactGenerationCallback@physx@@6B@ 000000018013e220     GuPCMContactConvexMesh.obj
 0002:00005250       __xmm@3f34fdf43f34fdf43f34fdf43f34fdf4 000000018013e250     GuPCMContactGenBoxConvex.obj
 0002:00005280       __xmm@3f80a3d73f80a3d73f80a3d73f80a3d7 000000018013e280     GuPCMContactGenSphereCapsule.obj
 0002:00005290       __xmm@bba3d70abba3d70abba3d70abba3d70a 000000018013e290     GuPCMContactGenSphereCapsule.obj
 0002:000052e0       __real@3b23d70b            000000018013e2e0     GuPCMContactPlaneCapsule.obj
 0002:000052f0       __xmm@3ca3d70a3ca3d70a3ca3d70a3ca3d70a 000000018013e2f0     GuPCMContactPlaneCapsule.obj
 0002:000053a0       ??_7PCMSphereVsHeightfieldContactGenerationCallback@physx@@6B@ 000000018013e3a0     GuPCMContactSphereHeightField.obj
 0002:000053e0       ??_7PCMSphereVsMeshContactGenerationCallback@physx@@6B@ 000000018013e3e0     GuPCMContactSphereMesh.obj
 0002:00005430       __xmm@3727c5ac3727c5ac3727c5ac3727c5ac 000000018013e430     GuPCMContactSphereSphere.obj
 0002:00005440       ?gPCMBoxPolygonData@Gu@physx@@3QBEB 000000018013e440     GuPCMShapeConvex.obj
 0002:000054a0       ?invalidateThresholds@Gu@physx@@3QBMB 000000018013e4a0     GuPersistentContactManifold.obj
 0002:000054b8       ?invalidateQuatThresholds@Gu@physx@@3QBMB 000000018013e4b8     GuPersistentContactManifold.obj
 0002:000054d0       ?invalidateThresholds2@Gu@physx@@3QBMB 000000018013e4d0     GuPersistentContactManifold.obj
 0002:000054e0       ?invalidateQuatThresholds2@Gu@physx@@3QBMB 000000018013e4e0     GuPersistentContactManifold.obj
 0002:00005510       __xmm@000000003f8000003f80000000000000 000000018013e510     GuPersistentContactManifold.obj
 0002:00005520       __xmm@00000000bf8000003f80000000000000 000000018013e520     GuPersistentContactManifold.obj
 0002:00005530       __xmm@ff7fffffff7fffffff7fffffff7fffff 000000018013e530     GuPersistentContactManifold.obj
 0002:00005540       __xmm@ffffffffffffffff00000000ffffffff 000000018013e540     GuPersistentContactManifold.obj
 0002:00005590       __real@b727c5ac            000000018013e590     GuSweepBoxSphere.obj
 0002:00005600       ??_C@_0GC@IFCNNIBP@E?3?2UnityProjects?2_Iterum?2PhysXS@ 000000018013e600     GuSweepCapsuleBox.obj
 0002:00005690       __real@3f7fff58            000000018013e690     GuSweepCapsuleTriangle.obj
 0002:000056e0       __sz_PhysXFoundation_64_dll 000000018013e6e0     PhysXFoundation_64:PhysXFoundation_64.dll
 0002:000056f8       ??_C@_1BK@DBDEIDLH@?$AAK?$AAE?$AAR?$AAN?$AAE?$AAL?$AA3?$AA2?$AA?4?$AAD?$AAL?$AAL@ 000000018013e6f8     Delayimp:delayhlp.obj
 0002:00005718       ??_C@_0BI@OMNLIJDB@AcquireSRWLockExclusive@ 000000018013e718     Delayimp:delayhlp.obj
 0002:00005730       ??_C@_0BI@HMIEPCNJ@ReleaseSRWLockExclusive@ 000000018013e730     Delayimp:delayhlp.obj
 0002:00005748       __pfnDliFailureHook2       000000018013e748     Delayimp:delayhk1.obj
 0002:00005758       ??_7type_info@@6B@         000000018013e758     LIBCMT:std_type_info_static.obj
 0002:000057c0       _pDefaultRawDllMain        000000018013e7c0     LIBCMT:dll_dllmain.obj
 0002:000057c0       _pRawDllMain               000000018013e7c0     LIBCMT:dll_dllmain.obj
 0002:000057d0       _load_config_used          000000018013e7d0     LIBCMT:loadcfg.obj
 0002:00005910       _pDestructExceptionObject  000000018013e910     libvcruntime:ehhelpers.obj
 0002:00006030       ??_C@_08EHJDFFNH@__based?$CI@ 000000018013f030     libvcruntime:undname.obj
 0002:00006040       ??_C@_07KOLFKCDI@__cdecl@  000000018013f040     libvcruntime:undname.obj
 0002:00006048       ??_C@_08GHMPAG@__pascal@   000000018013f048     libvcruntime:undname.obj
 0002:00006058       ??_C@_09IFJBGAPI@__stdcall@ 000000018013f058     libvcruntime:undname.obj
 0002:00006068       ??_C@_0L@NPHFGOKO@__thiscall@ 000000018013f068     libvcruntime:undname.obj
 0002:00006078       ??_C@_0L@JMKHOMEK@__fastcall@ 000000018013f078     libvcruntime:undname.obj
 0002:00006088       ??_C@_0N@BCKKPABJ@__vectorcall@ 000000018013f088     libvcruntime:undname.obj
 0002:00006098       ??_C@_09HIJEGCPM@__clrcall@ 000000018013f098     libvcruntime:undname.obj
 0002:000060a4       ??_C@_06GHPCKEAG@__eabi@   000000018013f0a4     libvcruntime:undname.obj
 0002:000060b0       ??_C@_09IOPIDJLG@__swift_1@ 000000018013f0b0     libvcruntime:undname.obj
 0002:000060c0       ??_C@_09KFNFGKHF@__swift_2@ 000000018013f0c0     libvcruntime:undname.obj
 0002:000060d0       ??_C@_09LMMOFLDE@__swift_3@ 000000018013f0d0     libvcruntime:undname.obj
 0002:000060e0       ??_C@_07JOMMBBKO@__ptr64@  000000018013f0e0     libvcruntime:undname.obj
 0002:000060e8       ??_C@_0L@PILCLIHE@__restrict@ 000000018013f0e8     libvcruntime:undname.obj
 0002:000060f8       ??_C@_0M@GFIIJFMG@__unaligned@ 000000018013f0f8     libvcruntime:undname.obj
 0002:00006108       ??_C@_09DHDLOLLB@restrict?$CI@ 000000018013f108     libvcruntime:undname.obj
 0002:00006112       ??_C@_00CNPNBAHC@@         000000018013f112     libvcruntime:undname.obj
 0002:00006114       ??_C@_04NIHEBCM@?5new@     000000018013f114     libvcruntime:undname.obj
 0002:00006120       ??_C@_07FPCDHGMM@?5delete@ 000000018013f120     libvcruntime:undname.obj
 0002:00006128       ??_C@_01NEMOKFLO@?$DN@     000000018013f128     libvcruntime:undname.obj
 0002:0000612c       ??_C@_02GPIOPFAK@?$DO?$DO@ 000000018013f12c     libvcruntime:undname.obj
 0002:00006130       ??_C@_02FODMEDOG@?$DM?$DM@ 000000018013f130     libvcruntime:undname.obj
 0002:00006134       ??_C@_01DCLJPIOD@?$CB@     000000018013f134     libvcruntime:undname.obj
 0002:00006138       ??_C@_02EGOFBIJA@?$DN?$DN@ 000000018013f138     libvcruntime:undname.obj
 0002:0000613c       ??_C@_02FDNJECIE@?$CB?$DN@ 000000018013f13c     libvcruntime:undname.obj
 0002:00006140       ??_C@_02GPECMEKF@?$FL?$FN@ 000000018013f140     libvcruntime:undname.obj
 0002:00006148       ??_C@_08LHJFAFGD@operator@ 000000018013f148     libvcruntime:undname.obj
 0002:00006154       ??_C@_02HBOOOICD@?9?$DO@   000000018013f154     libvcruntime:undname.obj
 0002:00006158       ??_C@_01NBENCBCI@?$CK@     000000018013f158     libvcruntime:undname.obj
 0002:0000615c       ??_C@_02ECNGHCIF@?$CL?$CL@ 000000018013f15c     libvcruntime:undname.obj
 0002:00006160       ??_C@_02BAABKJLB@?9?9@     000000018013f160     libvcruntime:undname.obj
 0002:00006164       ??_C@_01JOAMLHOP@?9@       000000018013f164     libvcruntime:undname.obj
 0002:00006168       ??_C@_01MIFGBAGJ@?$CL@     000000018013f168     libvcruntime:undname.obj
 0002:0000616c       ??_C@_01HNPIGOCE@?$CG@     000000018013f16c     libvcruntime:undname.obj
 0002:00006170       ??_C@_03MNHNFDLC@?9?$DO?$CK@ 000000018013f170     libvcruntime:undname.obj
 0002:00006174       ??_C@_01KMDKNFGN@?1@       000000018013f174     libvcruntime:undname.obj
 0002:00006178       ??_C@_01FGNFDNOH@?$CF@     000000018013f178     libvcruntime:undname.obj
 0002:0000617c       ??_C@_01MNNFJEPP@?$DM@     000000018013f17c     libvcruntime:undname.obj
 0002:00006180       ??_C@_02EHCHHCKH@?$DM?$DN@ 000000018013f180     libvcruntime:undname.obj
 0002:00006184       ??_C@_01PPODPGHN@?$DO@     000000018013f184     libvcruntime:undname.obj
 0002:00006188       ??_C@_02EEKDKGMJ@?$DO?$DN@ 000000018013f188     libvcruntime:undname.obj
 0002:0000618c       ??_C@_01IHBHIGKO@?0@       000000018013f18c     libvcruntime:undname.obj
 0002:00006190       ??_C@_02HCKGKOFO@?$CI?$CJ@ 000000018013f190     libvcruntime:undname.obj
 0002:00006194       ??_C@_01PJKLJHI@?$HO@      000000018013f194     libvcruntime:undname.obj
 0002:00006198       ??_C@_01JKBOJNNK@?$FO@     000000018013f198     libvcruntime:undname.obj
 0002:0000619c       ??_C@_01DNKMNLPK@?$HM@     000000018013f19c     libvcruntime:undname.obj
 0002:000061a0       ??_C@_02PPKAJPJL@?$CG?$CG@ 000000018013f1a0     libvcruntime:undname.obj
 0002:000061a4       ??_C@_02NONPIBCD@?$HM?$HM@ 000000018013f1a4     libvcruntime:undname.obj
 0002:000061a8       ??_C@_02FPIMKNGF@?$CK?$DN@ 000000018013f1a8     libvcruntime:undname.obj
 0002:000061ac       ??_C@_02FOEOMHFC@?$CL?$DN@ 000000018013f1ac     libvcruntime:undname.obj
 0002:000061b0       ??_C@_02FKMDLLOA@?9?$DN@   000000018013f1b0     libvcruntime:undname.obj
 0002:000061b4       ??_C@_02FJEHGPIO@?1?$DN@   000000018013f1b4     libvcruntime:undname.obj
 0002:000061b8       ??_C@_02FENAOKFI@?$CF?$DN@ 000000018013f1b8     libvcruntime:undname.obj
 0002:000061bc       ??_C@_03IKFCCPFF@?$DO?$DO?$DN@ 000000018013f1bc     libvcruntime:undname.obj
 0002:000061c0       ??_C@_03CDNPDDLA@?$DM?$DM?$DN@ 000000018013f1c0     libvcruntime:undname.obj
 0002:000061c4       ??_C@_02FGJGFEAB@?$CG?$DN@ 000000018013f1c4     libvcruntime:undname.obj
 0002:000061c8       ??_C@_02DHLNPPGH@?$HM?$DN@ 000000018013f1c8     libvcruntime:undname.obj
 0002:000061cc       ??_C@_02MHEGNOJ@?$FO?$DN@  000000018013f1cc     libvcruntime:undname.obj
 0002:000061d0       ??_C@_09IFPLHPGF@?$GAvftable?8@ 000000018013f1d0     libvcruntime:undname.obj
 0002:000061e0       ??_C@_09BLBHBJP@?$GAvbtable?8@ 000000018013f1e0     libvcruntime:undname.obj
 0002:000061f0       ??_C@_07FEEIOKP@?$GAvcall?8@ 000000018013f1f0     libvcruntime:undname.obj
 0002:000061f8       ??_C@_08LLFFHHDJ@?$GAtypeof?8@ 000000018013f1f8     libvcruntime:undname.obj
 0002:00006208       ??_C@_0BF@KDPPACIK@?$GAlocal?5static?5guard?8@ 000000018013f208     libvcruntime:undname.obj
 0002:00006220       ??_C@_08OBABFOLI@?$GAstring?8@ 000000018013f220     libvcruntime:undname.obj
 0002:00006230       ??_C@_0BD@JDLKDPAB@?$GAvbase?5destructor?8@ 000000018013f230     libvcruntime:undname.obj
 0002:00006248       ??_C@_0BN@DEGPLNFK@?$GAvector?5deleting?5destructor?8@ 000000018013f248     libvcruntime:undname.obj
 0002:00006268       ??_C@_0BO@OBMKPJIG@?$GAdefault?5constructor?5closure?8@ 000000018013f268     libvcruntime:undname.obj
 0002:00006288       ??_C@_0BN@IMDCHIKM@?$GAscalar?5deleting?5destructor?8@ 000000018013f288     libvcruntime:undname.obj
 0002:000062a8       ??_C@_0BO@PFGOCPJJ@?$GAvector?5constructor?5iterator?8@ 000000018013f2a8     libvcruntime:undname.obj
 0002:000062c8       ??_C@_0BN@LFPFMEDL@?$GAvector?5destructor?5iterator?8@ 000000018013f2c8     libvcruntime:undname.obj
 0002:000062e8       ??_C@_0CE@IKBNEHA@?$GAvector?5vbase?5constructor?5itera@ 000000018013f2e8     libvcruntime:undname.obj
 0002:00006310       ??_C@_0BL@NILFHHPC@?$GAvirtual?5displacement?5map?8@ 000000018013f310     libvcruntime:undname.obj
 0002:00006330       ??_C@_0CB@JONCMFFK@?$GAeh?5vector?5constructor?5iterator@ 000000018013f330     libvcruntime:undname.obj
 0002:00006358       ??_C@_0CA@GCEOPDGL@?$GAeh?5vector?5destructor?5iterator?8@ 000000018013f358     libvcruntime:undname.obj
 0002:00006378       ??_C@_0CH@OOJPLCPH@?$GAeh?5vector?5vbase?5constructor?5it@ 000000018013f378     libvcruntime:undname.obj
 0002:000063a0       ??_C@_0BL@LLKPOHJI@?$GAcopy?5constructor?5closure?8@ 000000018013f3a0     libvcruntime:undname.obj
 0002:000063c0       ??_C@_0BA@KBCDOMBN@?$GAudt?5returning?8@ 000000018013f3c0     libvcruntime:undname.obj
 0002:000063d0       ??_C@_03KLGMFNMG@?$GAEH@   000000018013f3d0     libvcruntime:undname.obj
 0002:000063d4       ??_C@_05KHLCHHI@?$GARTTI@  000000018013f3d4     libvcruntime:undname.obj
 0002:000063e0       ??_C@_0BA@KKLDJDLB@?$GAlocal?5vftable?8@ 000000018013f3e0     libvcruntime:undname.obj
 0002:000063f0       ??_C@_0CE@IIHCMGGL@?$GAlocal?5vftable?5constructor?5clos@ 000000018013f3f0     libvcruntime:undname.obj
 0002:00006414       ??_C@_06FHBGPFGH@?5new?$FL?$FN@ 000000018013f414     libvcruntime:undname.obj
 0002:00006420       ??_C@_09LBNFPBCA@?5delete?$FL?$FN@ 000000018013f420     libvcruntime:undname.obj
 0002:00006430       ??_C@_0P@HJKNJFNN@?$GAomni?5callsig?8@ 000000018013f430     libvcruntime:undname.obj
 0002:00006440       ??_C@_0BL@CNOONJFP@?$GAplacement?5delete?5closure?8@ 000000018013f440     libvcruntime:undname.obj
 0002:00006460       ??_C@_0BN@CKNJLHMB@?$GAplacement?5delete?$FL?$FN?5closure?8@ 000000018013f460     libvcruntime:undname.obj
 0002:00006480       ??_C@_0CG@CFDHKGGD@?$GAmanaged?5vector?5constructor?5ite@ 000000018013f480     libvcruntime:undname.obj
 0002:000064a8       ??_C@_0CF@IMGKMJNO@?$GAmanaged?5vector?5destructor?5iter@ 000000018013f4a8     libvcruntime:undname.obj
 0002:000064d0       ??_C@_0CG@HLDDJMAG@?$GAeh?5vector?5copy?5constructor?5ite@ 000000018013f4d0     libvcruntime:undname.obj
 0002:000064f8       ??_C@_0CM@FCBBDIGB@?$GAeh?5vector?5vbase?5copy?5construct@ 000000018013f4f8     libvcruntime:undname.obj
 0002:00006528       ??_C@_0BL@CLIPGLGB@?$GAdynamic?5initializer?5for?5?8@ 000000018013f528     libvcruntime:undname.obj
 0002:00006548       ??_C@_0CB@PDBIFEP@?$GAdynamic?5atexit?5destructor?5for?5@ 000000018013f548     libvcruntime:undname.obj
 0002:00006570       ??_C@_0CD@CGAJBKEJ@?$GAvector?5copy?5constructor?5iterat@ 000000018013f570     libvcruntime:undname.obj
 0002:00006598       ??_C@_0CJ@GJELGAMM@?$GAvector?5vbase?5copy?5constructor?5@ 000000018013f598     libvcruntime:undname.obj
 0002:000065c8       ??_C@_0CL@FGIJHLCE@?$GAmanaged?5vector?5copy?5constructo@ 000000018013f5c8     libvcruntime:undname.obj
 0002:000065f8       ??_C@_0BM@PMGGMLDN@?$GAlocal?5static?5thread?5guard?8@ 000000018013f5f8     libvcruntime:undname.obj
 0002:00006618       ??_C@_0N@BDNMDMOL@operator?5?$CC?$CC?5@ 000000018013f618     libvcruntime:undname.obj
 0002:00006628       ??_C@_0BC@GGEBGALA@operator?5co_await@ 000000018013f628     libvcruntime:undname.obj
 0002:00006640       ??_C@_0M@GAAIMMOH@operator?$DM?$DN?$DO@ 000000018013f640     libvcruntime:undname.obj
 0002:00006650       ??_C@_0BC@DAFEJGAK@?5Type?5Descriptor?8@ 000000018013f650     libvcruntime:undname.obj
 0002:00006668       ??_C@_0BM@LDKODKLH@?5Base?5Class?5Descriptor?5at?5?$CI@ 000000018013f668     libvcruntime:undname.obj
 0002:00006688       ??_C@_0BD@LGICGFMM@?5Base?5Class?5Array?8@ 000000018013f688     libvcruntime:undname.obj
 0002:000066a0       ??_C@_0BN@MECKDCOJ@?5Class?5Hierarchy?5Descriptor?8@ 000000018013f6a0     libvcruntime:undname.obj
 0002:000066c0       ??_C@_0BK@CFCOFLF@?5Complete?5Object?5Locator?8@ 000000018013f6c0     libvcruntime:undname.obj
 0002:000066e0       ??_C@_0BG@JNJLAMPM@?$GAanonymous?5namespace?8@ 000000018013f6e0     libvcruntime:undname.obj
 0002:000066f8       ??_C@_04HEJADOOB@CV?3?5@   000000018013f6f8     libvcruntime:undname.obj
 0002:00006700       ??_C@_02MOLJINC@?3?3@      000000018013f700     libvcruntime:undname.obj
 0002:00006708       ??_C@_0BE@JAEOCHPE@template?9parameter?9@ 000000018013f708     libvcruntime:undname.obj
 0002:00006720       ??_C@_0BF@LNLGBBNL@?$GAtemplate?9parameter?9@ 000000018013f720     libvcruntime:undname.obj
 0002:00006738       ??_C@_0O@KHGCOMHP@generic?9type?9@ 000000018013f738     libvcruntime:undname.obj
 0002:00006748       ??_C@_0P@ODDENDLM@?$GAgeneric?9type?9@ 000000018013f748     libvcruntime:undname.obj
 0002:00006758       ??_C@_02OHHJMEON@?8?8@     000000018013f758     libvcruntime:undname.obj
 0002:00006760       ??_C@_0BN@IBLMMFAP@?$GAnon?9type?9template?9parameter@ 000000018013f760     libvcruntime:undname.obj
 0002:00006780       ??_C@_03DLDNIBIK@?$CFlf@   000000018013f780     libvcruntime:undname.obj
 0002:00006784       ??_C@_04OFALKAJ@?$DP?$DP_C@ 000000018013f784     libvcruntime:undname.obj
 0002:0000678c       ??_C@_03KHICJKCI@?4?4?4@   000000018013f78c     libvcruntime:undname.obj
 0002:00006790       ??_C@_04HIBGFPH@NULL@      000000018013f790     libvcruntime:undname.obj
 0002:00006798       ??_C@_02DPKJAMEF@?$CFd@    000000018013f798     libvcruntime:undname.obj
 0002:000067a0       ??_C@_0BK@IHCCFNEL@?$GAtemplate?9type?9parameter?9@ 000000018013f7a0     libvcruntime:undname.obj
 0002:000067c0       ??_C@_0BK@OFCNNNKO@?$GAgeneric?9class?9parameter?9@ 000000018013f7c0     libvcruntime:undname.obj
 0002:000067e0       ??_C@_0BL@NGJBLFIL@?$GAgeneric?9method?9parameter?9@ 000000018013f7e0     libvcruntime:undname.obj
 0002:00006800       ??_C@_07OHNGEDJK@nullptr@  000000018013f800     libvcruntime:undname.obj
 0002:00006808       ??_C@_06COJIGPIB@lambda@   000000018013f808     libvcruntime:undname.obj
 0002:00006810       ??_C@_0BE@EODMJLIF@?$GAtemplate?9parameter@ 000000018013f810     libvcruntime:undname.obj
 0002:00006824       ??_C@_03OPGICMGF@?$HN?8?5@ 000000018013f824     libvcruntime:undname.obj
 0002:00006828       ??_C@_02IGFCGPIL@?$HN?8@   000000018013f828     libvcruntime:undname.obj
 0002:00006830       ??_C@_0N@CBHHHENL@?$GAvtordispex?$HL@ 000000018013f830     libvcruntime:undname.obj
 0002:00006840       ??_C@_0L@GHPFDFH@?$GAvtordisp?$HL@ 000000018013f840     libvcruntime:undname.obj
 0002:00006850       ??_C@_0L@HNGCOGAE@?$GAadjustor?$HL@ 000000018013f850     libvcruntime:undname.obj
 0002:00006860       ??_C@_0CB@KJDOOODE@?$GAlocal?5static?5destructor?5helper@ 000000018013f860     libvcruntime:undname.obj
 0002:00006888       ??_C@_0DB@ILEFOCIJ@?$GAtemplate?5static?5data?5member?5co@ 000000018013f888     libvcruntime:undname.obj
 0002:000068c0       ??_C@_0DA@HGFJFBBE@?$GAtemplate?5static?5data?5member?5de@ 000000018013f8c0     libvcruntime:undname.obj
 0002:000068f0       ??_C@_07PGOEDBHP@static?5@ 000000018013f8f0     libvcruntime:undname.obj
 0002:000068f8       ??_C@_08NIEOINHE@virtual?5@ 000000018013f8f8     libvcruntime:undname.obj
 0002:00006908       ??_C@_09LAPHOOG@private?3?5@ 000000018013f908     libvcruntime:undname.obj
 0002:00006918       ??_C@_0M@GAIFPFIP@protected?3?5@ 000000018013f918     libvcruntime:undname.obj
 0002:00006928       ??_C@_08GPDDCMKI@public?3?5@ 000000018013f928     libvcruntime:undname.obj
 0002:00006938       ??_C@_08KJLFOPNE@?$FLthunk?$FN?3@ 000000018013f938     libvcruntime:undname.obj
 0002:00006948       ??_C@_0M@DHNBOJMP@extern?5?$CCC?$CC?5@ 000000018013f948     libvcruntime:undname.obj
 0002:00006954       ??_C@_02KCKGHPCA@?$CJ?5@   000000018013f954     libvcruntime:undname.obj
 0002:00006958       ??_C@_05CIHEBHNO@char?5@   000000018013f958     libvcruntime:undname.obj
 0002:00006960       ??_C@_06EHJMALKF@short?5@  000000018013f960     libvcruntime:undname.obj
 0002:00006968       ??_C@_04LAHKHJMA@int?5@    000000018013f968     libvcruntime:undname.obj
 0002:00006970       ??_C@_05CJIMAING@long?5@   000000018013f970     libvcruntime:undname.obj
 0002:00006978       ??_C@_09EBBEKKIH@unsigned?5@ 000000018013f978     libvcruntime:undname.obj
 0002:00006984       ??_C@_05BEFAKPML@void?5@   000000018013f984     libvcruntime:undname.obj
 0002:00006990       ??_C@_09GAIEOBLP@volatile?5@ 000000018013f990     libvcruntime:undname.obj
 0002:000069a0       ??_C@_08PABEKFH@volatile@  000000018013f9a0     libvcruntime:undname.obj
 0002:000069b0       ??_C@_0BA@LKIJLKPP@std?3?3nullptr_t?5@ 000000018013f9b0     libvcruntime:undname.obj
 0002:000069c0       ??_C@_0P@GCOCNKDM@std?3?3nullptr_t@ 000000018013f9c0     libvcruntime:undname.obj
 0002:000069d0       ??_C@_0L@EGPHHEKN@?$DMellipsis?$DO@ 000000018013f9d0     libvcruntime:undname.obj
 0002:000069dc       ??_C@_04EENFHACM@?0?4?4?4@ 000000018013f9dc     libvcruntime:undname.obj
 0002:000069e8       ??_C@_0M@ELJOJFFH@?0?$DMellipsis?$DO@ 000000018013f9e8     libvcruntime:undname.obj
 0002:000069f8       ??_C@_09DNHFEOJI@?5noexcept@ 000000018013f9f8     libvcruntime:undname.obj
 0002:00006a04       ??_C@_03PBJBJNON@cpu@      000000018013fa04     libvcruntime:undname.obj
 0002:00006a08       ??_C@_03DCBBJBAA@amp@      000000018013fa08     libvcruntime:undname.obj
 0002:00006a0c       ??_C@_02KEGNLNML@?0?5@     000000018013fa0c     libvcruntime:undname.obj
 0002:00006a10       ??_C@_04ENMBGAPA@char@     000000018013fa10     libvcruntime:undname.obj
 0002:00006a18       ??_C@_05BFKKPKCG@short@    000000018013fa18     libvcruntime:undname.obj
 0002:00006a20       ??_C@_03JBIPMCLC@int@      000000018013fa20     libvcruntime:undname.obj
 0002:00006a24       ??_C@_04GOKPGOLB@long@     000000018013fa24     libvcruntime:undname.obj
 0002:00006a2c       ??_C@_06BNJCAIGJ@double@   000000018013fa2c     libvcruntime:undname.obj
 0002:00006a34       ??_C@_06EBGKOKIG@__int8@   000000018013fa34     libvcruntime:undname.obj
 0002:00006a40       ??_C@_07ICFHOGAF@__int16@  000000018013fa40     libvcruntime:undname.obj
 0002:00006a48       ??_C@_07OFLPPHGP@__int32@  000000018013fa48     libvcruntime:undname.obj
 0002:00006a50       ??_C@_07LFCOJCAC@__int64@  000000018013fa50     libvcruntime:undname.obj
 0002:00006a58       ??_C@_08GAHOLHEO@__int128@ 000000018013fa58     libvcruntime:undname.obj
 0002:00006a68       ??_C@_09EEKGDCPH@?$DMunknown?$DO@ 000000018013fa68     libvcruntime:undname.obj
 0002:00006a78       ??_C@_07CFHGOPCN@char8_t@  000000018013fa78     libvcruntime:undname.obj
 0002:00006a80       ??_C@_08HBIPOFJB@char16_t@ 000000018013fa80     libvcruntime:undname.obj
 0002:00006a90       ??_C@_08IECNCBKG@char32_t@ 000000018013fa90     libvcruntime:undname.obj
 0002:00006aa0       ??_C@_07CLGGIAMF@wchar_t@  000000018013faa0     libvcruntime:undname.obj
 0002:00006aa8       ??_C@_04HAPDLBFF@auto@     000000018013faa8     libvcruntime:undname.obj
 0002:00006ab0       ??_C@_0P@LHCGKIGK@decltype?$CIauto?$CJ@ 000000018013fab0     libvcruntime:undname.obj
 0002:00006ac0       ??_C@_05PCNBGHCF@this?5@   000000018013fac0     libvcruntime:undname.obj
 0002:00006ac8       ??_C@_06GCICPBLB@__w64?5@  000000018013fac8     libvcruntime:undname.obj
 0002:00006ad0       ??_C@_07NFANNNEC@UNKNOWN@  000000018013fad0     libvcruntime:undname.obj
 0002:00006ad8       ??_C@_07EDHNAJHC@signed?5@ 000000018013fad8     libvcruntime:undname.obj
 0002:00006ae0       ??_C@_05BNCCCJPP@const@    000000018013fae0     libvcruntime:undname.obj
 0002:00006ae8       ??_C@_09EFNPDFFP@?5volatile@ 000000018013fae8     libvcruntime:undname.obj
 0002:00006af8       ??_C@_0P@GCIFDJCJ@?$GAunknown?5ecsu?8@ 000000018013faf8     libvcruntime:undname.obj
 0002:00006b08       ??_C@_06MOJHIBMG@union?5@  000000018013fb08     libvcruntime:undname.obj
 0002:00006b10       ??_C@_07DIBCDNGL@struct?5@ 000000018013fb10     libvcruntime:undname.obj
 0002:00006b18       ??_C@_06LJBABKPM@class?5@  000000018013fb18     libvcruntime:undname.obj
 0002:00006b20       ??_C@_08KOFANOFK@coclass?5@ 000000018013fb20     libvcruntime:undname.obj
 0002:00006b30       ??_C@_0N@DLIEFKNA@cointerface?5@ 000000018013fb30     libvcruntime:undname.obj
 0002:00006b40       ??_C@_05LJGMCFOG@enum?5@   000000018013fb40     libvcruntime:undname.obj
 0002:00006b48       ??_C@_06LIJLOJAG@const?5@  000000018013fb48     libvcruntime:undname.obj
 0002:00006b50       ??_C@_02KJPKDIBN@?$CG?5@   000000018013fb50     libvcruntime:undname.obj
 0002:00006b54       ??_C@_03PCKGMOPB@?$CG?$CG?5@ 000000018013fb54     libvcruntime:undname.obj
 0002:00006b58       ??_C@_0M@EALIELKG@cli?3?3array?$DM@ 000000018013fb58     libvcruntime:undname.obj
 0002:00006b68       ??_C@_0O@GKABPPIF@cli?3?3pin_ptr?$DM@ 000000018013fb68     libvcruntime:undname.obj
 0002:00006b78       ??_C@_02GOGNNPBN@?$CJ?$FL@ 000000018013fb78     libvcruntime:undname.obj
 0002:00006b7c       ??_C@_06EEGAIFAK@?$HLflat?$HN@ 000000018013fb7c     libvcruntime:undname.obj
 0002:00006b84       ??_C@_05JIBOFOHK@?$HLfor?5@ 000000018013fb84     libvcruntime:undname.obj
 0002:00006b8c       ??_C@_02MDINNEEG@s?5@      000000018013fb8c     libvcruntime:undname.obj
 0002:00006b98       ??_7charNode@@6B@          000000018013fb98     libvcruntime:undname.obj
 0002:00006bc0       ??_7pcharNode@@6B@         000000018013fbc0     libvcruntime:undname.obj
 0002:00006be8       ??_7pDNameNode@@6B@        000000018013fbe8     libvcruntime:undname.obj
 0002:00006c10       ??_7DNameStatusNode@@6B@   000000018013fc10     libvcruntime:undname.obj
 0002:00006c38       ??_7pairNode@@6B@          000000018013fc38     libvcruntime:undname.obj
 0002:00006d60       ??_C@_04OKOHEJBO@?5?$DP?$DP?5@ 000000018013fd60     libvcruntime:undname.obj
 0002:00006d70       ?nodes@?1??make@DNameStatusNode@@SAPEBV2@W4DNameStatus@@@Z@4QBV2@B 000000018013fd70     libvcruntime:undname.obj
 0002:00006db0       ?s_negLengthTab@FH4@@3QBCB 000000018013fdb0     libvcruntime:risctrnsctrl.obj
 0002:00006dc0       ?s_shiftTab@FH4@@3QBEB     000000018013fdc0     libvcruntime:risctrnsctrl.obj
 0002:00006e80       ??_C@_1DM@KHCHBNEB@?$AAa?$AAp?$AAi?$AA?9?$AAm?$AAs?$AA?9?$AAw?$AAi?$AAn?$AA?9?$AAc?$AAo?$AAr?$AAe@ 000000018013fe80     libvcruntime:winapi_downlevel.obj
 0002:00006ec0       ??_C@_1DK@LPPGFMPP@?$AAa?$AAp?$AAi?$AA?9?$AAm?$AAs?$AA?9?$AAw?$AAi?$AAn?$AA?9?$AAc?$AAo?$AAr?$AAe@ 000000018013fec0     libvcruntime:winapi_downlevel.obj
 0002:00006f00       ??_C@_1BC@GDMECMAK@?$AAk?$AAe?$AAr?$AAn?$AAe?$AAl?$AA3?$AA2@ 000000018013ff00     libvcruntime:winapi_downlevel.obj
 0002:00006f18       ??_C@_1BA@PFFKHIOG@?$AAa?$AAp?$AAi?$AA?9?$AAm?$AAs?$AA?9@ 000000018013ff18     libvcruntime:winapi_downlevel.obj
 0002:00006f30       ??_C@_08KNHFBNJ@FlsAlloc@  000000018013ff30     libvcruntime:winapi_downlevel.obj
 0002:00006f48       ??_C@_07PEJMOBNF@FlsFree@  000000018013ff48     libvcruntime:winapi_downlevel.obj
 0002:00006f58       ??_C@_0M@GDNOONDI@FlsGetValue@ 000000018013ff58     libvcruntime:winapi_downlevel.obj
 0002:00006f70       ??_C@_0M@JCPCPOEF@FlsSetValue@ 000000018013ff70     libvcruntime:winapi_downlevel.obj
 0002:00006f88       ??_C@_0BM@HCFOFFN@InitializeCriticalSectionEx@ 000000018013ff88     libvcruntime:winapi_downlevel.obj
 0002:00006fb0       ??_7exception@std@@6B@     000000018013ffb0     libvcruntime:frame.obj
 0002:00006fc0       ??_C@_0BC@EOODALEL@Unknown?5exception@ 000000018013ffc0     libvcruntime:frame.obj
 0002:00006fe0       ??_7bad_exception@std@@6B@ 000000018013ffe0     libvcruntime:frame.obj
 0002:00006ff0       ??_C@_0O@DPKOEFFH@bad?5exception@ 000000018013fff0     libvcruntime:frame.obj
 0002:00007340       ??_C@_05FFFCHCED@acosf@    0000000180140340     libucrt:acosf.obj
 0002:00007348       __real@3b81ce6b            0000000180140348     libucrt:acosf.obj
 0002:00007350       __real@3c91a62633145c07    0000000180140350     libucrt:acosf.obj
 0002:00007358       __real@3d678bdd            0000000180140358     libucrt:acosf.obj
 0002:0000735c       __real@3e3c94dc            000000018014035c     libucrt:acosf.obj
 0002:00007360       __real@3f561f0d            0000000180140360     libucrt:acosf.obj
 0002:00007364       __real@3f8d6fa5            0000000180140364     libucrt:acosf.obj
 0002:00007368       __real@3ff921fb54442d18    0000000180140368     libucrt:acosf.obj
 0002:00007370       __real@400921fb54442d18    0000000180140370     libucrt:acosf.obj
 0002:00007378       __real@40490fdb            0000000180140378     libucrt:acosf.obj
 0002:0000737c       __real@bc5b3fe1            000000018014037c     libucrt:acosf.obj
 0002:00007380       __acrt_exception_action_table 0000000180140380     libucrt:exception_filter.obj
 0002:00007440       __acrt_signal_action_table_count 0000000180140440     libucrt:exception_filter.obj
 0002:00007448       __acrt_signal_action_first_fpe_index 0000000180140448     libucrt:exception_filter.obj
 0002:00007450       __acrt_signal_action_fpe_count 0000000180140450     libucrt:exception_filter.obj
 0002:00007458       ??_C@_1BI@BGOHAHKC@?$AAm?$AAs?$AAc?$AAo?$AAr?$AAe?$AAe?$AA?4?$AAd?$AAl?$AAl@ 0000000180140458     libucrt:exit.obj
 0002:00007470       ??_C@_0P@MIGLKIOC@CorExitProcess@ 0000000180140470     libucrt:exit.obj
 0002:00007580       ?standard_lookup_table_spectre@__crt_stdio_output@@3V?$spectre_mitigated_lookup_table@Ustate_transition_pair@__crt_stdio_output@@$0IA@@1@B 0000000180140580     libucrt:output.obj
 0002:00007980       ?format_validation_lookup_table_spectre@__crt_stdio_output@@3V?$spectre_mitigated_lookup_table@Ustate_transition_pair@__crt_stdio_output@@$0IA@@1@B 0000000180140980     libucrt:output.obj
 0002:00007d80       ??_C@_1O@CEDCILHN@?$AA?$CI?$AAn?$AAu?$AAl?$AAl?$AA?$CJ@ 0000000180140d80     libucrt:output.obj
 0002:00007d90       ??_C@_06OJHGLDPL@?$CInull?$CJ@ 0000000180140d90     libucrt:output.obj
 0002:00007f10       ??_C@_04LAGPAAHP@sinf@     0000000180140f10     libucrt:sincos_special.obj
 0002:00007f18       ??_C@_04OBBKPIAC@cosf@     0000000180140f18     libucrt:sincos_special.obj
 0002:00007f20       ??_C@_04MHPLPEIA@tanf@     0000000180140f20     libucrt:sincos_special.obj
 0002:00007f30       __Lcosfarray               0000000180140f30     libucrt:lsincosf_array.obj
 0002:00007f60       __Lsinfarray               0000000180140f60     libucrt:lsincosf_array.obj
 0002:00007f80       __L_2_by_pi_bits           0000000180140f80     libucrt:l2_by_pi_bits.obj
 0002:00008258       ??_C@_1M@HPNHIDJI@?$AAj?$AAa?$AA?9?$AAJ?$AAP@ 0000000180141258     libucrt:mbctype.obj
 0002:00008268       ??_C@_1M@BIBDDEMK@?$AAz?$AAh?$AA?9?$AAC?$AAN@ 0000000180141268     libucrt:mbctype.obj
 0002:00008278       ??_C@_1M@JLOOOEGK@?$AAk?$AAo?$AA?9?$AAK?$AAR@ 0000000180141278     libucrt:mbctype.obj
 0002:00008288       ??_C@_1M@CLNBBOPM@?$AAz?$AAh?$AA?9?$AAT?$AAW@ 0000000180141288     libucrt:mbctype.obj
 0002:00008340       ??_C@_1EA@JGEFHKEI@?$AAa?$AAp?$AAi?$AA?9?$AAm?$AAs?$AA?9?$AAw?$AAi?$AAn?$AA?9?$AAc?$AAo?$AAr?$AAe@ 0000000180141340     libucrt:winapi_thunks.obj
 0002:00008380       ??_C@_1DI@IJCEHOCB@?$AAa?$AAp?$AAi?$AA?9?$AAm?$AAs?$AA?9?$AAw?$AAi?$AAn?$AA?9?$AAc?$AAo?$AAr?$AAe@ 0000000180141380     libucrt:winapi_thunks.obj
 0002:000083c0       ??_C@_1EI@MPIAOHOC@?$AAa?$AAp?$AAi?$AA?9?$AAm?$AAs?$AA?9?$AAw?$AAi?$AAn?$AA?9?$AAc?$AAo?$AAr?$AAe@ 00000001801413c0     libucrt:winapi_thunks.obj
 0002:00008410       ??_C@_1FK@FPHCKFIE@?$AAa?$AAp?$AAi?$AA?9?$AAm?$AAs?$AA?9?$AAw?$AAi?$AAn?$AA?9?$AAc?$AAo?$AAr?$AAe@ 0000000180141410     libucrt:winapi_thunks.obj
 0002:00008470       ??_C@_1EM@DILCGIIO@?$AAa?$AAp?$AAi?$AA?9?$AAm?$AAs?$AA?9?$AAw?$AAi?$AAn?$AA?9?$AAc?$AAo?$AAr?$AAe@ 0000000180141470     libucrt:winapi_thunks.obj
 0002:000084c0       ??_C@_1DM@LNCGDDPN@?$AAa?$AAp?$AAi?$AA?9?$AAm?$AAs?$AA?9?$AAw?$AAi?$AAn?$AA?9?$AAc?$AAo?$AAr?$AAe@ 00000001801414c0     libucrt:winapi_thunks.obj
 0002:00008500       ??_C@_1DO@FPAPJEMD@?$AAa?$AAp?$AAi?$AA?9?$AAm?$AAs?$AA?9?$AAw?$AAi?$AAn?$AA?9?$AAc?$AAo?$AAr?$AAe@ 0000000180141500     libucrt:winapi_thunks.obj
 0002:00008540       ??_C@_1DK@NDHNAHIO@?$AAa?$AAp?$AAi?$AA?9?$AAm?$AAs?$AA?9?$AAw?$AAi?$AAn?$AA?9?$AAc?$AAo?$AAr?$AAe@ 0000000180141540     libucrt:winapi_thunks.obj
 0002:00008580       ??_C@_1DM@KGHDGBCM@?$AAa?$AAp?$AAi?$AA?9?$AAm?$AAs?$AA?9?$AAw?$AAi?$AAn?$AA?9?$AAc?$AAo?$AAr?$AAe@ 0000000180141580     libucrt:winapi_thunks.obj
 0002:000085c0       ??_C@_1EO@IJIOEFOH@?$AAa?$AAp?$AAi?$AA?9?$AAm?$AAs?$AA?9?$AAw?$AAi?$AAn?$AA?9?$AAr?$AAt?$AAc?$AAo@ 00000001801415c0     libucrt:winapi_thunks.obj
 0002:00008610       ??_C@_1FG@HHGEKANL@?$AAa?$AAp?$AAi?$AA?9?$AAm?$AAs?$AA?9?$AAw?$AAi?$AAn?$AA?9?$AAs?$AAe?$AAc?$AAu@ 0000000180141610     libucrt:winapi_thunks.obj
 0002:00008670       ??_C@_1EG@DBIOJECG@?$AAe?$AAx?$AAt?$AA?9?$AAm?$AAs?$AA?9?$AAw?$AAi?$AAn?$AA?9?$AAn?$AAt?$AAu?$AAs@ 0000000180141670     libucrt:winapi_thunks.obj
 0002:000086c0       ??_C@_1EO@FIHMJCLF@?$AAe?$AAx?$AAt?$AA?9?$AAm?$AAs?$AA?9?$AAw?$AAi?$AAn?$AA?9?$AAn?$AAt?$AAu?$AAs@ 00000001801416c0     libucrt:winapi_thunks.obj
 0002:00008710       ??_C@_1BC@DNHGCMLG@?$AAa?$AAd?$AAv?$AAa?$AAp?$AAi?$AA3?$AA2@ 0000000180141710     libucrt:winapi_thunks.obj
 0002:00008728       ??_C@_1M@OAIMIKLP@?$AAn?$AAt?$AAd?$AAl?$AAl@ 0000000180141728     libucrt:winapi_thunks.obj
 0002:00008740       ??_C@_1EG@DPGNFKGC@?$AAa?$AAp?$AAi?$AA?9?$AAm?$AAs?$AA?9?$AAw?$AAi?$AAn?$AA?9?$AAa?$AAp?$AAp?$AAm@ 0000000180141740     libucrt:winapi_thunks.obj
 0002:00008788       ??_C@_1O@BCCLBEOE@?$AAu?$AAs?$AAe?$AAr?$AA3?$AA2@ 0000000180141788     libucrt:winapi_thunks.obj
 0002:00008798       ??_C@_1BA@IAIFMGEF@?$AAe?$AAx?$AAt?$AA?9?$AAm?$AAs?$AA?9@ 0000000180141798     libucrt:winapi_thunks.obj
 0002:000087b0       ??_C@_0BA@FHFNEAED@AreFileApisANSI@ 00000001801417b0     libucrt:winapi_thunks.obj
 0002:000087f0       ??_C@_0O@KKBNKAPF@LCMapStringEx@ 00000001801417f0     libucrt:winapi_thunks.obj
 0002:00008808       ??_C@_0BB@HBDEELFH@LocaleNameToLCID@ 0000000180141808     libucrt:winapi_thunks.obj
 0002:00008820       ??_C@_0CF@OJOFEIGO@AppPolicyGetProcessTerminationM@ 0000000180141820     libucrt:winapi_thunks.obj
 0002:00008850       __lc_time_c                0000000180141850     libucrt:nlsdata.obj
 0002:00008b10       ??_C@_03KOEHGMDN@Sun@      0000000180141b10     libucrt:nlsdata.obj
 0002:00008b14       ??_C@_03PDAGKDH@Mon@       0000000180141b14     libucrt:nlsdata.obj
 0002:00008b18       ??_C@_03NAGEINEP@Tue@      0000000180141b18     libucrt:nlsdata.obj
 0002:00008b1c       ??_C@_03MHOMLAJA@Wed@      0000000180141b1c     libucrt:nlsdata.obj
 0002:00008b20       ??_C@_03IOFIKPDN@Thu@      0000000180141b20     libucrt:nlsdata.obj
 0002:00008b24       ??_C@_03IDIOELNC@Fri@      0000000180141b24     libucrt:nlsdata.obj
 0002:00008b28       ??_C@_03FEFJNEK@Sat@       0000000180141b28     libucrt:nlsdata.obj
 0002:00008b2c       ??_C@_06OOPIFAJ@Sunday@    0000000180141b2c     libucrt:nlsdata.obj
 0002:00008b34       ??_C@_06JLEDEDGH@Monday@   0000000180141b34     libucrt:nlsdata.obj
 0002:00008b40       ??_C@_07BAAGCFCM@Tuesday@  0000000180141b40     libucrt:nlsdata.obj
 0002:00008b48       ??_C@_09DLIGFAKA@Wednesday@ 0000000180141b48     libucrt:nlsdata.obj
 0002:00008b58       ??_C@_08HACCIKIA@Thursday@ 0000000180141b58     libucrt:nlsdata.obj
 0002:00008b64       ??_C@_06JECMNKMI@Friday@   0000000180141b64     libucrt:nlsdata.obj
 0002:00008b70       ??_C@_08INBOOONO@Saturday@ 0000000180141b70     libucrt:nlsdata.obj
 0002:00008b7c       ??_C@_03JIHJHPIE@Jan@      0000000180141b7c     libucrt:nlsdata.obj
 0002:00008b80       ??_C@_03HJBDCHOM@Feb@      0000000180141b80     libucrt:nlsdata.obj
 0002:00008b84       ??_C@_03ODNJBKGA@Mar@      0000000180141b84     libucrt:nlsdata.obj
 0002:00008b88       ??_C@_03LEOLGMJP@Apr@      0000000180141b88     libucrt:nlsdata.obj
 0002:00008b8c       ??_C@_03CNMDKL@May@        0000000180141b8c     libucrt:nlsdata.obj
 0002:00008b90       ??_C@_03IDFGHECI@Jun@      0000000180141b90     libucrt:nlsdata.obj
 0002:00008b94       ??_C@_03LBGABGKK@Jul@      0000000180141b94     libucrt:nlsdata.obj
 0002:00008b98       ??_C@_03IFJFEIGA@Aug@      0000000180141b98     libucrt:nlsdata.obj
 0002:00008b9c       ??_C@_03GGCAPAJC@Sep@      0000000180141b9c     libucrt:nlsdata.obj
 0002:00008ba0       ??_C@_03BMAOKBAD@Oct@      0000000180141ba0     libucrt:nlsdata.obj
 0002:00008ba4       ??_C@_03JPJOFNIA@Nov@      0000000180141ba4     libucrt:nlsdata.obj
 0002:00008ba8       ??_C@_03MKABNOCG@Dec@      0000000180141ba8     libucrt:nlsdata.obj
 0002:00008bb0       ??_C@_07CGJPFGJA@January@  0000000180141bb0     libucrt:nlsdata.obj
 0002:00008bb8       ??_C@_08GNJGEPFN@February@ 0000000180141bb8     libucrt:nlsdata.obj
 0002:00008bc4       ??_C@_05HPCKOFNC@March@    0000000180141bc4     libucrt:nlsdata.obj
 0002:00008bcc       ??_C@_05DMJDNLEJ@April@    0000000180141bcc     libucrt:nlsdata.obj
 0002:00008bd4       ??_C@_04CNLMGBGM@June@     0000000180141bd4     libucrt:nlsdata.obj
 0002:00008bdc       ??_C@_04MIEPOIFP@July@     0000000180141bdc     libucrt:nlsdata.obj
 0002:00008be4       ??_C@_06LBBHFDDG@August@   0000000180141be4     libucrt:nlsdata.obj
 0002:00008bf0       ??_C@_09BHHEALKD@September@ 0000000180141bf0     libucrt:nlsdata.obj
 0002:00008c00       ??_C@_07JJNFCEND@October@  0000000180141c00     libucrt:nlsdata.obj
 0002:00008c08       ??_C@_08HCHEGEOA@November@ 0000000180141c08     libucrt:nlsdata.obj
 0002:00008c18       ??_C@_08EDHMEBNP@December@ 0000000180141c18     libucrt:nlsdata.obj
 0002:00008c24       ??_C@_02DEDBPAFC@AM@       0000000180141c24     libucrt:nlsdata.obj
 0002:00008c28       ??_C@_02CJNFDJBF@PM@       0000000180141c28     libucrt:nlsdata.obj
 0002:00008c30       ??_C@_08BPBNCDIB@MM?1dd?1yy@ 0000000180141c30     libucrt:nlsdata.obj
 0002:00008c40       ??_C@_0BE@CKGJFCPC@dddd?0?5MMMM?5dd?0?5yyyy@ 0000000180141c40     libucrt:nlsdata.obj
 0002:00008c58       ??_C@_08JCCMCCIL@HH?3mm?3ss@ 0000000180141c58     libucrt:nlsdata.obj
 0002:00008c68       ??_C@_17MBGCMIPB@?$AAS?$AAu?$AAn@ 0000000180141c68     libucrt:nlsdata.obj
 0002:00008c70       ??_C@_17KBOMKBF@?$AAM?$AAo?$AAn@ 0000000180141c70     libucrt:nlsdata.obj
 0002:00008c78       ??_C@_17BMKGEGOJ@?$AAT?$AAu?$AAe@ 0000000180141c78     libucrt:nlsdata.obj
 0002:00008c80       ??_C@_17CJEDCEPE@?$AAW?$AAe?$AAd@ 0000000180141c80     libucrt:nlsdata.obj
 0002:00008c88       ??_C@_17PDPHAADD@?$AAT?$AAh?$AAu@ 0000000180141c88     libucrt:nlsdata.obj
 0002:00008c90       ??_C@_17HFOLPPLP@?$AAF?$AAr?$AAi@ 0000000180141c90     libucrt:nlsdata.obj
 0002:00008c98       ??_C@_17GGIBDPIH@?$AAS?$AAa?$AAt@ 0000000180141c98     libucrt:nlsdata.obj
 0002:00008ca0       ??_C@_1O@IHNHDHPB@?$AAS?$AAu?$AAn?$AAd?$AAa?$AAy@ 0000000180141ca0     libucrt:nlsdata.obj
 0002:00008cb0       ??_C@_1O@MMNBFLIA@?$AAM?$AAo?$AAn?$AAd?$AAa?$AAy@ 0000000180141cb0     libucrt:nlsdata.obj
 0002:00008cc0       ??_C@_1BA@ENFBFFEK@?$AAT?$AAu?$AAe?$AAs?$AAd?$AAa?$AAy@ 0000000180141cc0     libucrt:nlsdata.obj
 0002:00008cd0       ??_C@_1BE@EBOGMDOH@?$AAW?$AAe?$AAd?$AAn?$AAe?$AAs?$AAd?$AAa?$AAy@ 0000000180141cd0     libucrt:nlsdata.obj
 0002:00008ce8       ??_C@_1BC@HHMNLIHE@?$AAT?$AAh?$AAu?$AAr?$AAs?$AAd?$AAa?$AAy@ 0000000180141ce8     libucrt:nlsdata.obj
 0002:00008d00       ??_C@_1O@PDICJHAG@?$AAF?$AAr?$AAi?$AAd?$AAa?$AAy@ 0000000180141d00     libucrt:nlsdata.obj
 0002:00008d10       ??_C@_1BC@ENMNNPAJ@?$AAS?$AAa?$AAt?$AAu?$AAr?$AAd?$AAa?$AAy@ 0000000180141d10     libucrt:nlsdata.obj
 0002:00008d28       ??_C@_17DKNBKCHM@?$AAJ?$AAa?$AAn@ 0000000180141d28     libucrt:nlsdata.obj
 0002:00008d30       ??_C@_17LMDJEKJN@?$AAF?$AAe?$AAb@ 0000000180141d30     libucrt:nlsdata.obj
 0002:00008d38       ??_C@_17CKNLEDEC@?$AAM?$AAa?$AAr@ 0000000180141d38     libucrt:nlsdata.obj
 0002:00008d40       ??_C@_17LFPOIHDD@?$AAA?$AAp?$AAr@ 0000000180141d40     libucrt:nlsdata.obj
 0002:00008d48       ??_C@_17PNNKMEED@?$AAM?$AAa?$AAy@ 0000000180141d48     libucrt:nlsdata.obj
 0002:00008d50       ??_C@_17KCJGOCPB@?$AAJ?$AAu?$AAn@ 0000000180141d50     libucrt:nlsdata.obj
 0002:00008d58       ??_C@_17IJPCKHK@?$AAJ?$AAu?$AAl@ 0000000180141d58     libucrt:nlsdata.obj
 0002:00008d60       ??_C@_17ICPELBCN@?$AAA?$AAu?$AAg@ 0000000180141d60     libucrt:nlsdata.obj
 0002:00008d68       ??_C@_17HCHCOKMG@?$AAS?$AAe?$AAp@ 0000000180141d68     libucrt:nlsdata.obj
 0002:00008d70       ??_C@_17FNLKOI@?$AAO?$AAc?$AAt@ 0000000180141d70     libucrt:nlsdata.obj
 0002:00008d78       ??_C@_17BBDMLCIG@?$AAN?$AAo?$AAv@ 0000000180141d78     libucrt:nlsdata.obj
 0002:00008d80       ??_C@_17EGKACKIF@?$AAD?$AAe?$AAc@ 0000000180141d80     libucrt:nlsdata.obj
 0002:00008d88       ??_C@_1BA@EFMEIEBA@?$AAJ?$AAa?$AAn?$AAu?$AAa?$AAr?$AAy@ 0000000180141d88     libucrt:nlsdata.obj
 0002:00008d98       ??_C@_1BC@JGDDFFAM@?$AAF?$AAe?$AAb?$AAr?$AAu?$AAa?$AAr?$AAy@ 0000000180141d98     libucrt:nlsdata.obj
 0002:00008db0       ??_C@_1M@IKEENEDF@?$AAM?$AAa?$AAr?$AAc?$AAh@ 0000000180141db0     libucrt:nlsdata.obj
 0002:00008dc0       ??_C@_1M@GJNLMHFD@?$AAA?$AAp?$AAr?$AAi?$AAl@ 0000000180141dc0     libucrt:nlsdata.obj
 0002:00008dd0       ??_C@_19EPFLPGAP@?$AAJ?$AAu?$AAn?$AAe@ 0000000180141dd0     libucrt:nlsdata.obj
 0002:00008de0       ??_C@_19BIFMLPCD@?$AAJ?$AAu?$AAl?$AAy@ 0000000180141de0     libucrt:nlsdata.obj
 0002:00008df0       ??_C@_1O@PAHLKOAC@?$AAA?$AAu?$AAg?$AAu?$AAs?$AAt@ 0000000180141df0     libucrt:nlsdata.obj
 0002:00008e00       ??_C@_1BE@DKAAMBJL@?$AAS?$AAe?$AAp?$AAt?$AAe?$AAm?$AAb?$AAe?$AAr@ 0000000180141e00     libucrt:nlsdata.obj
 0002:00008e18       ??_C@_1BA@EPANDLNG@?$AAO?$AAc?$AAt?$AAo?$AAb?$AAe?$AAr@ 0000000180141e18     libucrt:nlsdata.obj
 0002:00008e28       ??_C@_1BC@BGLIFPF@?$AAN?$AAo?$AAv?$AAe?$AAm?$AAb?$AAe?$AAr@ 0000000180141e28     libucrt:nlsdata.obj
 0002:00008e40       ??_C@_1BC@FEMKIFH@?$AAD?$AAe?$AAc?$AAe?$AAm?$AAb?$AAe?$AAr@ 0000000180141e40     libucrt:nlsdata.obj
 0002:00008e54       ??_C@_15ODEHAHHF@?$AAA?$AAM@ 0000000180141e54     libucrt:nlsdata.obj
 0002:00008e5c       ??_C@_15CLMNNGEL@?$AAP?$AAM@ 0000000180141e5c     libucrt:nlsdata.obj
 0002:00008e68       ??_C@_1BC@IEBCMHCM@?$AAM?$AAM?$AA?1?$AAd?$AAd?$AA?1?$AAy?$AAy@ 0000000180141e68     libucrt:nlsdata.obj
 0002:00008e80       ??_C@_1CI@KNAKOEBC@?$AAd?$AAd?$AAd?$AAd?$AA?0?$AA?5?$AAM?$AAM?$AAM?$AAM?$AA?5?$AAd?$AAd?$AA?0?$AA?5@ 0000000180141e80     libucrt:nlsdata.obj
 0002:00008ea8       ??_C@_1BC@GDGBMEMK@?$AAH?$AAH?$AA?3?$AAm?$AAm?$AA?3?$AAs?$AAs@ 0000000180141ea8     libucrt:nlsdata.obj
 0002:00008ec0       ??_C@_1M@BMHNFIME@?$AAe?$AAn?$AA?9?$AAU?$AAS@ 0000000180141ec0     libucrt:nlsdata.obj
 0002:00008f50       ??_C@_03OEIAHPBN@INF@      0000000180141f50     libucrt:cvt.obj
 0002:00008f54       ??_C@_03OJHLLCGB@inf@      0000000180141f54     libucrt:cvt.obj
 0002:00008f58       ??_C@_03LKNCIKJB@NAN@      0000000180141f58     libucrt:cvt.obj
 0002:00008f5c       ??_C@_03LHCJEHON@nan@      0000000180141f5c     libucrt:cvt.obj
 0002:00008f60       ??_C@_09OFJJIMPC@NAN?$CISNAN?$CJ@ 0000000180141f60     libucrt:cvt.obj
 0002:00008f70       ??_C@_09IPFBKMDL@nan?$CIsnan?$CJ@ 0000000180141f70     libucrt:cvt.obj
 0002:00008f80       ??_C@_08IKHNHAJ@NAN?$CIIND?$CJ@ 0000000180141f80     libucrt:cvt.obj
 0002:00008f90       ??_C@_08OFCDMILK@nan?$CIind?$CJ@ 0000000180141f90     libucrt:cvt.obj
 0002:00008f9c       ??_C@_05KLBDPFGC@e?$CL000@ 0000000180141f9c     libucrt:cvt.obj
 0002:00008fb0       __newctype                 0000000180141fb0     libucrt:ctype.obj
 0002:000092b0       __newclmap                 00000001801422b0     libucrt:ctype.obj
 0002:00009430       __newcumap                 0000000180142430     libucrt:ctype.obj
 0002:000095c0       ??_C@_05HGHHAHAP@log10@    00000001801425c0     libucrt:fpexcept.obj
 0002:0000a410       ??_C@_15EMKDOKLE@?$AAa?$AAr@ 0000000180143410     libucrt:lcidtoname_downlevel.obj
 0002:0000a418       ??_C@_15KNPADPLH@?$AAb?$AAg@ 0000000180143418     libucrt:lcidtoname_downlevel.obj
 0002:0000a420       ??_C@_15EDMHLDMO@?$AAc?$AAa@ 0000000180143420     libucrt:lcidtoname_downlevel.obj
 0002:0000a428       ??_C@_1O@BPEAJADD@?$AAz?$AAh?$AA?9?$AAC?$AAH?$AAS@ 0000000180143428     libucrt:lcidtoname_downlevel.obj
 0002:0000a438       ??_C@_15LJNHCMNK@?$AAc?$AAs@ 0000000180143438     libucrt:lcidtoname_downlevel.obj
 0002:0000a440       ??_C@_15FOMCIDHG@?$AAd?$AAa@ 0000000180143440     libucrt:lcidtoname_downlevel.obj
 0002:0000a448       ??_C@_15NBKABECB@?$AAd?$AAe@ 0000000180143448     libucrt:lcidtoname_downlevel.obj
 0002:0000a450       ??_C@_15GHPEIIAO@?$AAe?$AAl@ 0000000180143450     libucrt:lcidtoname_downlevel.obj
 0002:0000a458       ??_C@_15MNPNEAIF@?$AAe?$AAn@ 0000000180143458     libucrt:lcidtoname_downlevel.obj
 0002:0000a460       ??_C@_15GPIOMPMH@?$AAe?$AAs@ 0000000180143460     libucrt:lcidtoname_downlevel.obj
 0002:0000a468       ??_C@_15NGLOAKJC@?$AAf?$AAi@ 0000000180143468     libucrt:lcidtoname_downlevel.obj
 0002:0000a470       ??_C@_15FBKGNKAM@?$AAf?$AAr@ 0000000180143470     libucrt:lcidtoname_downlevel.obj
 0002:0000a478       ??_C@_15KGGCNEFK@?$AAh?$AAe@ 0000000180143478     libucrt:lcidtoname_downlevel.obj
 0002:0000a480       ??_C@_15PGHLIDMF@?$AAh?$AAu@ 0000000180143480     libucrt:lcidtoname_downlevel.obj
 0002:0000a488       ??_C@_15BIEMAPLM@?$AAi?$AAs@ 0000000180143488     libucrt:lcidtoname_downlevel.obj
 0002:0000a490       ??_C@_15IFJLDHAF@?$AAi?$AAt@ 0000000180143490     libucrt:lcidtoname_downlevel.obj
 0002:0000a498       ??_C@_15GEMIOCAG@?$AAj?$AAa@ 0000000180143498     libucrt:lcidtoname_downlevel.obj
 0002:0000a4a0       ??_C@_15EPELEGJA@?$AAk?$AAo@ 00000001801434a0     libucrt:lcidtoname_downlevel.obj
 0002:0000a4a8       ??_C@_15NDDHIMN@?$AAn?$AAl@ 00000001801434a8     libucrt:lcidtoname_downlevel.obj
 0002:0000a4b0       ??_C@_15BPIGNHCD@?$AAn?$AAo@ 00000001801434b0     libucrt:lcidtoname_downlevel.obj
 0002:0000a4b8       ??_C@_15DEOPBLCG@?$AAp?$AAl@ 00000001801434b8     libucrt:lcidtoname_downlevel.obj
 0002:0000a4c0       ??_C@_15KBECGEFG@?$AAp?$AAt@ 00000001801434c0     libucrt:lcidtoname_downlevel.obj
 0002:0000a4c8       ??_C@_15GLJCBFMD@?$AAr?$AAo@ 00000001801434c8     libucrt:lcidtoname_downlevel.obj
 0002:0000a4d0       ??_C@_15FEDGKCDI@?$AAr?$AAu@ 00000001801434d0     libucrt:lcidtoname_downlevel.obj
 0002:0000a4d8       ??_C@_15GLKMLLHM@?$AAh?$AAr@ 00000001801434d8     libucrt:lcidtoname_downlevel.obj
 0002:0000a4e0       ??_C@_15CPKMFBDB@?$AAs?$AAk@ 00000001801434e0     libucrt:lcidtoname_downlevel.obj
 0002:0000a4e8       ??_C@_15BAAIOGMK@?$AAs?$AAq@ 00000001801434e8     libucrt:lcidtoname_downlevel.obj
 0002:0000a4f0       ??_C@_15INNPNOHD@?$AAs?$AAv@ 00000001801434f0     libucrt:lcidtoname_downlevel.obj
 0002:0000a4f8       ??_C@_15CABMMOGH@?$AAt?$AAh@ 00000001801434f8     libucrt:lcidtoname_downlevel.obj
 0002:0000a500       ??_C@_15BPLIHJJM@?$AAt?$AAr@ 0000000180143500     libucrt:lcidtoname_downlevel.obj
 0002:0000a508       ??_C@_15NEOEKKDJ@?$AAu?$AAr@ 0000000180143508     libucrt:lcidtoname_downlevel.obj
 0002:0000a510       ??_C@_15NFICGAJK@?$AAi?$AAd@ 0000000180143510     libucrt:lcidtoname_downlevel.obj
 0002:0000a518       ??_C@_15PJPFLCCM@?$AAu?$AAk@ 0000000180143518     libucrt:lcidtoname_downlevel.obj
 0002:0000a520       ??_C@_15HPJPHDM@?$AAb?$AAe@ 0000000180143520     libucrt:lcidtoname_downlevel.obj
 0002:0000a528       ??_C@_15LCHLGJII@?$AAs?$AAl@ 0000000180143528     libucrt:lcidtoname_downlevel.obj
 0002:0000a530       ??_C@_15PCFJPHHO@?$AAe?$AAt@ 0000000180143530     libucrt:lcidtoname_downlevel.obj
 0002:0000a538       ??_C@_15HPFPGODN@?$AAl?$AAv@ 0000000180143538     libucrt:lcidtoname_downlevel.obj
 0002:0000a540       ??_C@_15NFFGKGLG@?$AAl?$AAt@ 0000000180143540     libucrt:lcidtoname_downlevel.obj
 0002:0000a548       ??_C@_15BDAKCCHN@?$AAf?$AAa@ 0000000180143548     libucrt:lcidtoname_downlevel.obj
 0002:0000a550       ??_C@_15NFGIAIAJ@?$AAv?$AAi@ 0000000180143550     libucrt:lcidtoname_downlevel.obj
 0002:0000a558       ??_C@_15LMKNDMHN@?$AAh?$AAy@ 0000000180143558     libucrt:lcidtoname_downlevel.obj
 0002:0000a560       ??_C@_15IJBHMCFL@?$AAa?$AAz@ 0000000180143560     libucrt:lcidtoname_downlevel.obj
 0002:0000a568       ??_C@_15EKOFJABL@?$AAe?$AAu@ 0000000180143568     libucrt:lcidtoname_downlevel.obj
 0002:0000a570       ??_C@_15BGHADCNK@?$AAm?$AAk@ 0000000180143570     libucrt:lcidtoname_downlevel.obj
 0002:0000a578       ??_C@_15JDNICKHM@?$AAa?$AAf@ 0000000180143578     libucrt:lcidtoname_downlevel.obj
 0002:0000a580       ??_C@_15KPJEDBKD@?$AAk?$AAa@ 0000000180143580     libucrt:lcidtoname_downlevel.obj
 0002:0000a588       ??_C@_15PDNFFFEO@?$AAf?$AAo@ 0000000180143588     libucrt:lcidtoname_downlevel.obj
 0002:0000a590       ??_C@_15OMLEGLOC@?$AAh?$AAi@ 0000000180143590     libucrt:lcidtoname_downlevel.obj
 0002:0000a598       ??_C@_15IDNNENKK@?$AAm?$AAs@ 0000000180143598     libucrt:lcidtoname_downlevel.obj
 0002:0000a5a0       ??_C@_15MACJNBMH@?$AAk?$AAk@ 00000001801435a0     libucrt:lcidtoname_downlevel.obj
 0002:0000a5a8       ??_C@_15DKDJEOND@?$AAk?$AAy@ 00000001801435a8     libucrt:lcidtoname_downlevel.obj
 0002:0000a5b0       ??_C@_15DFGDLJBG@?$AAs?$AAw@ 00000001801435b0     libucrt:lcidtoname_downlevel.obj
 0002:0000a5b8       ??_C@_15BBFAICNG@?$AAu?$AAz@ 00000001801435b8     libucrt:lcidtoname_downlevel.obj
 0002:0000a5c0       ??_C@_15DKNDCGEA@?$AAt?$AAt@ 00000001801435c0     libucrt:lcidtoname_downlevel.obj
 0002:0000a5c8       ??_C@_15MGIFMDPL@?$AAp?$AAa@ 00000001801435c8     libucrt:lcidtoname_downlevel.obj
 0002:0000a5d0       ??_C@_15HCNDBBA@?$AAg?$AAu@ 00000001801435d0     libucrt:lcidtoname_downlevel.obj
 0002:0000a5d8       ??_C@_15FNBEIBON@?$AAt?$AAa@ 00000001801435d8     libucrt:lcidtoname_downlevel.obj
 0002:0000a5e0       ??_C@_15NCHGBGLK@?$AAt?$AAe@ 00000001801435e0     libucrt:lcidtoname_downlevel.obj
 0002:0000a5e8       ??_C@_15PHPHCBPF@?$AAk?$AAn@ 00000001801435e8     libucrt:lcidtoname_downlevel.obj
 0002:0000a5f0       ??_C@_15DLGBCKMP@?$AAm?$AAr@ 00000001801435f0     libucrt:lcidtoname_downlevel.obj
 0002:0000a5f8       ??_C@_15EABBLBFF@?$AAs?$AAa@ 00000001801435f8     libucrt:lcidtoname_downlevel.obj
 0002:0000a600       ??_C@_15CBKOMCOI@?$AAm?$AAn@ 0000000180143600     libucrt:lcidtoname_downlevel.obj
 0002:0000a608       ??_C@_15CKDMCJAF@?$AAg?$AAl@ 0000000180143608     libucrt:lcidtoname_downlevel.obj
 0002:0000a610       ??_C@_17CNJFBPG@?$AAk?$AAo?$AAk@ 0000000180143610     libucrt:lcidtoname_downlevel.obj
 0002:0000a618       ??_C@_17FFBJICPL@?$AAs?$AAy?$AAr@ 0000000180143618     libucrt:lcidtoname_downlevel.obj
 0002:0000a620       ??_C@_17KPNDCPAF@?$AAd?$AAi?$AAv@ 0000000180143620     libucrt:lcidtoname_downlevel.obj
 0002:0000a628       ??_C@_11LOCGONAA@@         0000000180143628     libucrt:lcidtoname_downlevel.obj
 0002:0000a630       ??_C@_1M@OKAHONE@?$AAa?$AAr?$AA?9?$AAS?$AAA@ 0000000180143630     libucrt:lcidtoname_downlevel.obj
 0002:0000a640       ??_C@_1M@FFFIGIGK@?$AAb?$AAg?$AA?9?$AAB?$AAG@ 0000000180143640     libucrt:lcidtoname_downlevel.obj
 0002:0000a650       ??_C@_1M@BJNKEDC@?$AAc?$AAa?$AA?9?$AAE?$AAS@ 0000000180143650     libucrt:lcidtoname_downlevel.obj
 0002:0000a660       ??_C@_1M@IJJHFJHA@?$AAc?$AAs?$AA?9?$AAC?$AAZ@ 0000000180143660     libucrt:lcidtoname_downlevel.obj
 0002:0000a670       ??_C@_1M@CLPEOBGI@?$AAd?$AAa?$AA?9?$AAD?$AAK@ 0000000180143670     libucrt:lcidtoname_downlevel.obj
 0002:0000a680       ??_C@_1M@MCMADGCB@?$AAd?$AAe?$AA?9?$AAD?$AAE@ 0000000180143680     libucrt:lcidtoname_downlevel.obj
 0002:0000a690       ??_C@_1M@OOCKEMAM@?$AAe?$AAl?$AA?9?$AAG?$AAR@ 0000000180143690     libucrt:lcidtoname_downlevel.obj
 0002:0000a6a0       ??_C@_1M@DDNJFGID@?$AAf?$AAi?$AA?9?$AAF?$AAI@ 00000001801436a0     libucrt:lcidtoname_downlevel.obj
 0002:0000a6b0       ??_C@_1M@GLIPPMAC@?$AAf?$AAr?$AA?9?$AAF?$AAR@ 00000001801436b0     libucrt:lcidtoname_downlevel.obj
 0002:0000a6c0       ??_C@_1M@GFMCHPE@?$AAh?$AAe?$AA?9?$AAI?$AAL@ 00000001801436c0     libucrt:lcidtoname_downlevel.obj
 0002:0000a6d0       ??_C@_1M@MHLPGNKM@?$AAh?$AAu?$AA?9?$AAH?$AAU@ 00000001801436d0     libucrt:lcidtoname_downlevel.obj
 0002:0000a6e0       ??_C@_1M@LPDDNNPN@?$AAi?$AAs?$AA?9?$AAI?$AAS@ 00000001801436e0     libucrt:lcidtoname_downlevel.obj
 0002:0000a6f0       ??_C@_1M@MADIPODN@?$AAi?$AAt?$AA?9?$AAI?$AAT@ 00000001801436f0     libucrt:lcidtoname_downlevel.obj
 0002:0000a700       ??_C@_1M@IHBJJGG@?$AAn?$AAl?$AA?9?$AAN?$AAL@ 0000000180143700     libucrt:lcidtoname_downlevel.obj
 0002:0000a710       ??_C@_1M@EANAGDL@?$AAn?$AAb?$AA?9?$AAN?$AAO@ 0000000180143710     libucrt:lcidtoname_downlevel.obj
 0002:0000a720       ??_C@_1M@NEIEMEGP@?$AAp?$AAl?$AA?9?$AAP?$AAL@ 0000000180143720     libucrt:lcidtoname_downlevel.obj
 0002:0000a730       ??_C@_1M@BOCFIGEP@?$AAp?$AAt?$AA?9?$AAB?$AAR@ 0000000180143730     libucrt:lcidtoname_downlevel.obj
 0002:0000a740       ??_C@_1M@IMPFOPBG@?$AAr?$AAo?$AA?9?$AAR?$AAO@ 0000000180143740     libucrt:lcidtoname_downlevel.obj
 0002:0000a750       ??_C@_1M@IDNNEJMM@?$AAr?$AAu?$AA?9?$AAR?$AAU@ 0000000180143750     libucrt:lcidtoname_downlevel.obj
 0002:0000a760       ??_C@_1M@LILEEOGM@?$AAh?$AAr?$AA?9?$AAH?$AAR@ 0000000180143760     libucrt:lcidtoname_downlevel.obj
 0002:0000a770       ??_C@_1M@FKIFEHPB@?$AAs?$AAk?$AA?9?$AAS?$AAK@ 0000000180143770     libucrt:lcidtoname_downlevel.obj
 0002:0000a780       ??_C@_1M@LJMAMNPJ@?$AAs?$AAq?$AA?9?$AAA?$AAL@ 0000000180143780     libucrt:lcidtoname_downlevel.obj
 0002:0000a790       ??_C@_1M@GIAKDKJK@?$AAs?$AAv?$AA?9?$AAS?$AAE@ 0000000180143790     libucrt:lcidtoname_downlevel.obj
 0002:0000a7a0       ??_C@_1M@MKJKIKCL@?$AAt?$AAh?$AA?9?$AAT?$AAH@ 00000001801437a0     libucrt:lcidtoname_downlevel.obj
 0002:0000a7b0       ??_C@_1M@MFLCCMPB@?$AAt?$AAr?$AA?9?$AAT?$AAR@ 00000001801437b0     libucrt:lcidtoname_downlevel.obj
 0002:0000a7c0       ??_C@_1M@OIJHDKJN@?$AAu?$AAr?$AA?9?$AAP?$AAK@ 00000001801437c0     libucrt:lcidtoname_downlevel.obj
 0002:0000a7d0       ??_C@_1M@LHIPCIEK@?$AAi?$AAd?$AA?9?$AAI?$AAD@ 00000001801437d0     libucrt:lcidtoname_downlevel.obj
 0002:0000a7e0       ??_C@_1M@MFMOBGI@?$AAu?$AAk?$AA?9?$AAU?$AAA@ 00000001801437e0     libucrt:lcidtoname_downlevel.obj
 0002:0000a7f0       ??_C@_1M@OBGLJIPL@?$AAb?$AAe?$AA?9?$AAB?$AAY@ 00000001801437f0     libucrt:lcidtoname_downlevel.obj
 0002:0000a800       ??_C@_1M@BCFAJEAD@?$AAs?$AAl?$AA?9?$AAS?$AAI@ 0000000180143800     libucrt:lcidtoname_downlevel.obj
 0002:0000a810       ??_C@_1M@FKFFEDDN@?$AAe?$AAt?$AA?9?$AAE?$AAE@ 0000000180143810     libucrt:lcidtoname_downlevel.obj
 0002:0000a820       ??_C@_1M@KGKKAACI@?$AAl?$AAv?$AA?9?$AAL?$AAV@ 0000000180143820     libucrt:lcidtoname_downlevel.obj
 0002:0000a830       ??_C@_1M@IFGBIJO@?$AAl?$AAt?$AA?9?$AAL?$AAT@ 0000000180143830     libucrt:lcidtoname_downlevel.obj
 0002:0000a840       ??_C@_1M@FGEAHEDM@?$AAf?$AAa?$AA?9?$AAI?$AAR@ 0000000180143840     libucrt:lcidtoname_downlevel.obj
 0002:0000a850       ??_C@_1M@KBMAIBFN@?$AAv?$AAi?$AA?9?$AAV?$AAN@ 0000000180143850     libucrt:lcidtoname_downlevel.obj
 0002:0000a860       ??_C@_1M@GPCBKDJK@?$AAh?$AAy?$AA?9?$AAA?$AAM@ 0000000180143860     libucrt:lcidtoname_downlevel.obj
 0002:0000a870       ??_C@_1BG@BECMDDJB@?$AAa?$AAz?$AA?9?$AAA?$AAZ?$AA?9?$AAL?$AAa?$AAt?$AAn@ 0000000180143870     libucrt:lcidtoname_downlevel.obj
 0002:0000a888       ??_C@_1M@MAOFCAEA@?$AAe?$AAu?$AA?9?$AAE?$AAS@ 0000000180143888     libucrt:lcidtoname_downlevel.obj
 0002:0000a898       ??_C@_1M@IGHABKPI@?$AAm?$AAk?$AA?9?$AAM?$AAK@ 0000000180143898     libucrt:lcidtoname_downlevel.obj
 0002:0000a8a8       ??_C@_1M@IAIGNEJG@?$AAt?$AAn?$AA?9?$AAZ?$AAA@ 00000001801438a8     libucrt:lcidtoname_downlevel.obj
 0002:0000a8b8       ??_C@_1M@IIJCOJFA@?$AAx?$AAh?$AA?9?$AAZ?$AAA@ 00000001801438b8     libucrt:lcidtoname_downlevel.obj
 0002:0000a8c8       ??_C@_1M@LGPJHNJH@?$AAz?$AAu?$AA?9?$AAZ?$AAA@ 00000001801438c8     libucrt:lcidtoname_downlevel.obj
 0002:0000a8d8       ??_C@_1M@HOKAOIO@?$AAa?$AAf?$AA?9?$AAZ?$AAA@ 00000001801438d8     libucrt:lcidtoname_downlevel.obj
 0002:0000a8e8       ??_C@_1M@DPCLHLIE@?$AAk?$AAa?$AA?9?$AAG?$AAE@ 00000001801438e8     libucrt:lcidtoname_downlevel.obj
 0002:0000a8f8       ??_C@_1M@BLKMHJBI@?$AAf?$AAo?$AA?9?$AAF?$AAO@ 00000001801438f8     libucrt:lcidtoname_downlevel.obj
 0002:0000a908       ??_C@_1M@LGGJAPPB@?$AAh?$AAi?$AA?9?$AAI?$AAN@ 0000000180143908     libucrt:lcidtoname_downlevel.obj
 0002:0000a918       ??_C@_1M@FIKPIHFE@?$AAm?$AAt?$AA?9?$AAM?$AAT@ 0000000180143918     libucrt:lcidtoname_downlevel.obj
 0002:0000a928       ??_C@_1M@HEGGPBFA@?$AAs?$AAe?$AA?9?$AAN?$AAO@ 0000000180143928     libucrt:lcidtoname_downlevel.obj
 0002:0000a938       ??_C@_1M@EIBJEEPA@?$AAm?$AAs?$AA?9?$AAM?$AAY@ 0000000180143938     libucrt:lcidtoname_downlevel.obj
 0002:0000a948       ??_C@_1M@FHLBGMPP@?$AAk?$AAk?$AA?9?$AAK?$AAZ@ 0000000180143948     libucrt:lcidtoname_downlevel.obj
 0002:0000a958       ??_C@_1M@NGJJLCGI@?$AAk?$AAy?$AA?9?$AAK?$AAG@ 0000000180143958     libucrt:lcidtoname_downlevel.obj
 0002:0000a968       ??_C@_1M@GIENNBFC@?$AAs?$AAw?$AA?9?$AAK?$AAE@ 0000000180143968     libucrt:lcidtoname_downlevel.obj
 0002:0000a978       ??_C@_1BG@NDGMJIMJ@?$AAu?$AAz?$AA?9?$AAU?$AAZ?$AA?9?$AAL?$AAa?$AAt?$AAn@ 0000000180143978     libucrt:lcidtoname_downlevel.obj
 0002:0000a990       ??_C@_1M@IDCCIHBC@?$AAt?$AAt?$AA?9?$AAR?$AAU@ 0000000180143990     libucrt:lcidtoname_downlevel.obj
 0002:0000a9a0       ??_C@_1M@LOICPMOJ@?$AAb?$AAn?$AA?9?$AAI?$AAN@ 00000001801439a0     libucrt:lcidtoname_downlevel.obj
 0002:0000a9b0       ??_C@_1M@KPKKNEAH@?$AAp?$AAa?$AA?9?$AAI?$AAN@ 00000001801439b0     libucrt:lcidtoname_downlevel.obj
 0002:0000a9c0       ??_C@_1M@PJGPPBOG@?$AAg?$AAu?$AA?9?$AAI?$AAN@ 00000001801439c0     libucrt:lcidtoname_downlevel.obj
 0002:0000a9d0       ??_C@_1M@KMKMOPHI@?$AAt?$AAa?$AA?9?$AAI?$AAN@ 00000001801439d0     libucrt:lcidtoname_downlevel.obj
 0002:0000a9e0       ??_C@_1M@KFEHEPAC@?$AAt?$AAe?$AA?9?$AAI?$AAN@ 00000001801439e0     libucrt:lcidtoname_downlevel.obj
 0002:0000a9f0       ??_C@_1M@CDCLMGHI@?$AAk?$AAn?$AA?9?$AAI?$AAN@ 00000001801439f0     libucrt:lcidtoname_downlevel.obj
 0002:0000aa00       ??_C@_1M@MIODLDKF@?$AAm?$AAl?$AA?9?$AAI?$AAN@ 0000000180143a00     libucrt:lcidtoname_downlevel.obj
 0002:0000aa10       ??_C@_1M@PBIEACPO@?$AAm?$AAr?$AA?9?$AAI?$AAN@ 0000000180143a10     libucrt:lcidtoname_downlevel.obj
 0002:0000aa20       ??_C@_1M@NIDEAGPH@?$AAs?$AAa?$AA?9?$AAI?$AAN@ 0000000180143a20     libucrt:lcidtoname_downlevel.obj
 0002:0000aa30       ??_C@_1M@FHIHCBIO@?$AAm?$AAn?$AA?9?$AAM?$AAN@ 0000000180143a30     libucrt:lcidtoname_downlevel.obj
 0002:0000aa40       ??_C@_1M@JAIJPENP@?$AAc?$AAy?$AA?9?$AAG?$AAB@ 0000000180143a40     libucrt:lcidtoname_downlevel.obj
 0002:0000aa50       ??_C@_1M@PHGFBEPN@?$AAg?$AAl?$AA?9?$AAE?$AAS@ 0000000180143a50     libucrt:lcidtoname_downlevel.obj
 0002:0000aa60       ??_C@_1O@KPIPDNCP@?$AAk?$AAo?$AAk?$AA?9?$AAI?$AAN@ 0000000180143a60     libucrt:lcidtoname_downlevel.obj
 0002:0000aa70       ??_C@_1O@KNHJLDJA@?$AAs?$AAy?$AAr?$AA?9?$AAS?$AAY@ 0000000180143a70     libucrt:lcidtoname_downlevel.obj
 0002:0000aa80       ??_C@_1O@MKEKBLAH@?$AAd?$AAi?$AAv?$AA?9?$AAM?$AAV@ 0000000180143a80     libucrt:lcidtoname_downlevel.obj
 0002:0000aa90       ??_C@_1O@OHDCKDDF@?$AAq?$AAu?$AAz?$AA?9?$AAB?$AAO@ 0000000180143a90     libucrt:lcidtoname_downlevel.obj
 0002:0000aaa0       ??_C@_1M@LEPJNLFD@?$AAn?$AAs?$AA?9?$AAZ?$AAA@ 0000000180143aa0     libucrt:lcidtoname_downlevel.obj
 0002:0000aab0       ??_C@_1M@OMLEIIJB@?$AAm?$AAi?$AA?9?$AAN?$AAZ@ 0000000180143ab0     libucrt:lcidtoname_downlevel.obj
 0002:0000aac0       ??_C@_1M@PMPEAILG@?$AAa?$AAr?$AA?9?$AAI?$AAQ@ 0000000180143ac0     libucrt:lcidtoname_downlevel.obj
 0002:0000aad0       ??_C@_1M@CNKPNOEE@?$AAd?$AAe?$AA?9?$AAC?$AAH@ 0000000180143ad0     libucrt:lcidtoname_downlevel.obj
 0002:0000aae0       ??_C@_1M@LKMGMLKO@?$AAe?$AAn?$AA?9?$AAG?$AAB@ 0000000180143ae0     libucrt:lcidtoname_downlevel.obj
 0002:0000aaf0       ??_C@_1M@PGKJFFGL@?$AAe?$AAs?$AA?9?$AAM?$AAX@ 0000000180143af0     libucrt:lcidtoname_downlevel.obj
 0002:0000ab00       ??_C@_1M@DNNANBDC@?$AAf?$AAr?$AA?9?$AAB?$AAE@ 0000000180143b00     libucrt:lcidtoname_downlevel.obj
 0002:0000ab10       ??_C@_1M@HLGMDFHM@?$AAi?$AAt?$AA?9?$AAC?$AAH@ 0000000180143b10     libucrt:lcidtoname_downlevel.obj
 0002:0000ab20       ??_C@_1M@CLLBGJH@?$AAn?$AAl?$AA?9?$AAB?$AAE@ 0000000180143b20     libucrt:lcidtoname_downlevel.obj
 0002:0000ab30       ??_C@_1M@BODBOGLF@?$AAn?$AAn?$AA?9?$AAN?$AAO@ 0000000180143b30     libucrt:lcidtoname_downlevel.obj
 0002:0000ab40       ??_C@_1M@HFFAHKAD@?$AAp?$AAt?$AA?9?$AAP?$AAT@ 0000000180143b40     libucrt:lcidtoname_downlevel.obj
 0002:0000ab50       ??_C@_1BG@LNOAKHIE@?$AAs?$AAr?$AA?9?$AAS?$AAP?$AA?9?$AAL?$AAa?$AAt?$AAn@ 0000000180143b50     libucrt:lcidtoname_downlevel.obj
 0002:0000ab68       ??_C@_1M@HBMHBGAK@?$AAs?$AAv?$AA?9?$AAF?$AAI@ 0000000180143b68     libucrt:lcidtoname_downlevel.obj
 0002:0000ab78       ??_C@_1BG@DGCJGJBE@?$AAa?$AAz?$AA?9?$AAA?$AAZ?$AA?9?$AAC?$AAy?$AAr?$AAl@ 0000000180143b78     libucrt:lcidtoname_downlevel.obj
 0002:0000ab90       ??_C@_1M@KEJDAAHB@?$AAs?$AAe?$AA?9?$AAS?$AAE@ 0000000180143b90     libucrt:lcidtoname_downlevel.obj
 0002:0000aba0       ??_C@_1M@HEIBJJAD@?$AAm?$AAs?$AA?9?$AAB?$AAN@ 0000000180143ba0     libucrt:lcidtoname_downlevel.obj
 0002:0000abb0       ??_C@_1BG@PBGJMCEM@?$AAu?$AAz?$AA?9?$AAU?$AAZ?$AA?9?$AAC?$AAy?$AAr?$AAl@ 0000000180143bb0     libucrt:lcidtoname_downlevel.obj
 0002:0000abc8       ??_C@_1O@LAOBCMDF@?$AAq?$AAu?$AAz?$AA?9?$AAE?$AAC@ 0000000180143bc8     libucrt:lcidtoname_downlevel.obj
 0002:0000abd8       ??_C@_1M@POEEMAIO@?$AAa?$AAr?$AA?9?$AAE?$AAG@ 0000000180143bd8     libucrt:lcidtoname_downlevel.obj
 0002:0000abe8       ??_C@_1M@EFAKDEDL@?$AAz?$AAh?$AA?9?$AAH?$AAK@ 0000000180143be8     libucrt:lcidtoname_downlevel.obj
 0002:0000abf8       ??_C@_1M@HKKIJHGI@?$AAd?$AAe?$AA?9?$AAA?$AAT@ 0000000180143bf8     libucrt:lcidtoname_downlevel.obj
 0002:0000ac08       ??_C@_1M@KBFBEHJF@?$AAe?$AAn?$AA?9?$AAA?$AAU@ 0000000180143c08     libucrt:lcidtoname_downlevel.obj
 0002:0000ac18       ??_C@_1M@MNPLFAAH@?$AAe?$AAs?$AA?9?$AAE?$AAS@ 0000000180143c18     libucrt:lcidtoname_downlevel.obj
 0002:0000ac28       ??_C@_1M@HJOOJFMA@?$AAf?$AAr?$AA?9?$AAC?$AAA@ 0000000180143c28     libucrt:lcidtoname_downlevel.obj
 0002:0000ac38       ??_C@_1BG@JPOFPNAB@?$AAs?$AAr?$AA?9?$AAS?$AAP?$AA?9?$AAC?$AAy?$AAr?$AAl@ 0000000180143c38     libucrt:lcidtoname_downlevel.obj
 0002:0000ac50       ??_C@_1M@LNFOCMOB@?$AAs?$AAe?$AA?9?$AAF?$AAI@ 0000000180143c50     libucrt:lcidtoname_downlevel.obj
 0002:0000ac60       ??_C@_1O@MGJBOAMB@?$AAq?$AAu?$AAz?$AA?9?$AAP?$AAE@ 0000000180143c60     libucrt:lcidtoname_downlevel.obj
 0002:0000ac70       ??_C@_1M@GJINLBOK@?$AAa?$AAr?$AA?9?$AAL?$AAY@ 0000000180143c70     libucrt:lcidtoname_downlevel.obj
 0002:0000ac80       ??_C@_1M@GGMNHJNL@?$AAz?$AAh?$AA?9?$AAS?$AAG@ 0000000180143c80     libucrt:lcidtoname_downlevel.obj
 0002:0000ac90       ??_C@_1M@HOIKODND@?$AAd?$AAe?$AA?9?$AAL?$AAU@ 0000000180143c90     libucrt:lcidtoname_downlevel.obj
 0002:0000aca0       ??_C@_1M@DDOCCGFG@?$AAe?$AAn?$AA?9?$AAC?$AAA@ 0000000180143ca0     libucrt:lcidtoname_downlevel.obj
 0002:0000acb0       ??_C@_1M@BNOEMJLF@?$AAe?$AAs?$AA?9?$AAG?$AAT@ 0000000180143cb0     libucrt:lcidtoname_downlevel.obj
 0002:0000acc0       ??_C@_1M@EOGNKEK@?$AAf?$AAr?$AA?9?$AAC?$AAH@ 0000000180143cc0     libucrt:lcidtoname_downlevel.obj
 0002:0000acd0       ??_C@_1M@FLIDJFHL@?$AAh?$AAr?$AA?9?$AAB?$AAA@ 0000000180143cd0     libucrt:lcidtoname_downlevel.obj
 0002:0000ace0       ??_C@_1O@FMCELNAJ@?$AAs?$AAm?$AAj?$AA?9?$AAN?$AAO@ 0000000180143ce0     libucrt:lcidtoname_downlevel.obj
 0002:0000acf0       ??_C@_1M@JHGLJMGJ@?$AAa?$AAr?$AA?9?$AAD?$AAZ@ 0000000180143cf0     libucrt:lcidtoname_downlevel.obj
 0002:0000ad00       ??_C@_1M@JKKFDCNP@?$AAz?$AAh?$AA?9?$AAM?$AAO@ 0000000180143d00     libucrt:lcidtoname_downlevel.obj
 0002:0000ad10       ??_C@_1M@GEEFALPE@?$AAd?$AAe?$AA?9?$AAL?$AAI@ 0000000180143d10     libucrt:lcidtoname_downlevel.obj
 0002:0000ad20       ??_C@_1M@IGEOFBG@?$AAe?$AAn?$AA?9?$AAN?$AAZ@ 0000000180143d20     libucrt:lcidtoname_downlevel.obj
 0002:0000ad30       ??_C@_1M@KDBONEHP@?$AAe?$AAs?$AA?9?$AAC?$AAR@ 0000000180143d30     libucrt:lcidtoname_downlevel.obj
 0002:0000ad40       ??_C@_1M@FHMDOHNN@?$AAf?$AAr?$AA?9?$AAL?$AAU@ 0000000180143d40     libucrt:lcidtoname_downlevel.obj
 0002:0000ad50       ??_C@_1BG@NFKKMAFG@?$AAb?$AAs?$AA?9?$AAB?$AAA?$AA?9?$AAL?$AAa?$AAt?$AAn@ 0000000180143d50     libucrt:lcidtoname_downlevel.obj
 0002:0000ad68       ??_C@_1O@IMNBEMCI@?$AAs?$AAm?$AAj?$AA?9?$AAS?$AAE@ 0000000180143d68     libucrt:lcidtoname_downlevel.obj
 0002:0000ad78       ??_C@_1M@DHHMBNDP@?$AAa?$AAr?$AA?9?$AAM?$AAA@ 0000000180143d78     libucrt:lcidtoname_downlevel.obj
 0002:0000ad88       ??_C@_1M@BNBLJCGH@?$AAe?$AAn?$AA?9?$AAI?$AAE@ 0000000180143d88     libucrt:lcidtoname_downlevel.obj
 0002:0000ad98       ??_C@_1M@GEPAFMDL@?$AAe?$AAs?$AA?9?$AAP?$AAA@ 0000000180143d98     libucrt:lcidtoname_downlevel.obj
 0002:0000ada8       ??_C@_1M@OJONDMDL@?$AAf?$AAr?$AA?9?$AAM?$AAC@ 0000000180143da8     libucrt:lcidtoname_downlevel.obj
 0002:0000adb8       ??_C@_1BG@OBCNFJB@?$AAs?$AAr?$AA?9?$AAB?$AAA?$AA?9?$AAL?$AAa?$AAt?$AAn@ 0000000180143db8     libucrt:lcidtoname_downlevel.obj
 0002:0000add0       ??_C@_1O@KEMEEGPO@?$AAs?$AAm?$AAa?$AA?9?$AAN?$AAO@ 0000000180143dd0     libucrt:lcidtoname_downlevel.obj
 0002:0000ade0       ??_C@_1M@ELMGFODK@?$AAa?$AAr?$AA?9?$AAT?$AAN@ 0000000180143de0     libucrt:lcidtoname_downlevel.obj
 0002:0000adf0       ??_C@_1M@BHDLHFAF@?$AAe?$AAn?$AA?9?$AAZ?$AAA@ 0000000180143df0     libucrt:lcidtoname_downlevel.obj
 0002:0000ae00       ??_C@_1M@BMGIGLIF@?$AAe?$AAs?$AA?9?$AAD?$AAO@ 0000000180143e00     libucrt:lcidtoname_downlevel.obj
 0002:0000ae10       ??_C@_1BG@CMBHIPBE@?$AAs?$AAr?$AA?9?$AAB?$AAA?$AA?9?$AAC?$AAy?$AAr?$AAl@ 0000000180143e10     libucrt:lcidtoname_downlevel.obj
 0002:0000ae28       ??_C@_1O@HEDBLHNP@?$AAs?$AAm?$AAa?$AA?9?$AAS?$AAE@ 0000000180143e28     libucrt:lcidtoname_downlevel.obj
 0002:0000ae38       ??_C@_1M@DAGCADIM@?$AAa?$AAr?$AA?9?$AAO?$AAM@ 0000000180143e38     libucrt:lcidtoname_downlevel.obj
 0002:0000ae48       ??_C@_1M@FODLMICG@?$AAe?$AAn?$AA?9?$AAJ?$AAM@ 0000000180143e48     libucrt:lcidtoname_downlevel.obj
 0002:0000ae58       ??_C@_1M@DNMLCIHB@?$AAe?$AAs?$AA?9?$AAV?$AAE@ 0000000180143e58     libucrt:lcidtoname_downlevel.obj
 0002:0000ae68       ??_C@_1O@EOKHMKJK@?$AAs?$AAm?$AAs?$AA?9?$AAF?$AAI@ 0000000180143e68     libucrt:lcidtoname_downlevel.obj
 0002:0000ae78       ??_C@_1M@CAFJMKOF@?$AAa?$AAr?$AA?9?$AAY?$AAE@ 0000000180143e78     libucrt:lcidtoname_downlevel.obj
 0002:0000ae88       ??_C@_1M@CBFHIJLI@?$AAe?$AAn?$AA?9?$AAC?$AAB@ 0000000180143e88     libucrt:lcidtoname_downlevel.obj
 0002:0000ae98       ??_C@_1M@BGNFLDN@?$AAe?$AAs?$AA?9?$AAC?$AAO@ 0000000180143e98     libucrt:lcidtoname_downlevel.obj
 0002:0000aea8       ??_C@_1O@JMPHMAMC@?$AAs?$AAm?$AAn?$AA?9?$AAF?$AAI@ 0000000180143ea8     libucrt:lcidtoname_downlevel.obj
 0002:0000aeb8       ??_C@_1M@JLANABKE@?$AAa?$AAr?$AA?9?$AAS?$AAY@ 0000000180143eb8     libucrt:lcidtoname_downlevel.obj
 0002:0000aec8       ??_C@_1M@HPKGCFGN@?$AAe?$AAn?$AA?9?$AAB?$AAZ@ 0000000180143ec8     libucrt:lcidtoname_downlevel.obj
 0002:0000aed8       ??_C@_1M@OLJCMLGM@?$AAe?$AAs?$AA?9?$AAP?$AAE@ 0000000180143ed8     libucrt:lcidtoname_downlevel.obj
 0002:0000aee8       ??_C@_1M@MKKGFKLE@?$AAa?$AAr?$AA?9?$AAJ?$AAO@ 0000000180143ee8     libucrt:lcidtoname_downlevel.obj
 0002:0000aef8       ??_C@_1M@EKPGLDNI@?$AAe?$AAn?$AA?9?$AAT?$AAT@ 0000000180143ef8     libucrt:lcidtoname_downlevel.obj
 0002:0000af08       ??_C@_1M@OONGHFHE@?$AAe?$AAs?$AA?9?$AAA?$AAR@ 0000000180143f08     libucrt:lcidtoname_downlevel.obj
 0002:0000af18       ??_C@_1M@OOJFGBHE@?$AAa?$AAr?$AA?9?$AAL?$AAB@ 0000000180143f18     libucrt:lcidtoname_downlevel.obj
 0002:0000af28       ??_C@_1M@GCEJHNEG@?$AAe?$AAn?$AA?9?$AAZ?$AAW@ 0000000180143f28     libucrt:lcidtoname_downlevel.obj
 0002:0000af38       ??_C@_1M@JNOCAHJI@?$AAe?$AAs?$AA?9?$AAE?$AAC@ 0000000180143f38     libucrt:lcidtoname_downlevel.obj
 0002:0000af48       ??_C@_1M@JEFHPGGB@?$AAa?$AAr?$AA?9?$AAK?$AAW@ 0000000180143f48     libucrt:lcidtoname_downlevel.obj
 0002:0000af58       ??_C@_1M@MLKIBJOJ@?$AAe?$AAn?$AA?9?$AAP?$AAH@ 0000000180143f58     libucrt:lcidtoname_downlevel.obj
 0002:0000af68       ??_C@_1M@BDNIPEND@?$AAe?$AAs?$AA?9?$AAC?$AAL@ 0000000180143f68     libucrt:lcidtoname_downlevel.obj
 0002:0000af78       ??_C@_1M@MPNMEKBD@?$AAa?$AAr?$AA?9?$AAA?$AAE@ 0000000180143f78     libucrt:lcidtoname_downlevel.obj
 0002:0000af88       ??_C@_1M@KBJALCPI@?$AAe?$AAs?$AA?9?$AAU?$AAY@ 0000000180143f88     libucrt:lcidtoname_downlevel.obj
 0002:0000af98       ??_C@_1M@LLCCOAGA@?$AAa?$AAr?$AA?9?$AAB?$AAH@ 0000000180143f98     libucrt:lcidtoname_downlevel.obj
 0002:0000afa8       ??_C@_1M@PBFNCDEL@?$AAe?$AAs?$AA?9?$AAP?$AAY@ 0000000180143fa8     libucrt:lcidtoname_downlevel.obj
 0002:0000afb8       ??_C@_1M@EDGINPNP@?$AAa?$AAr?$AA?9?$AAQ?$AAA@ 0000000180143fb8     libucrt:lcidtoname_downlevel.obj
 0002:0000afc8       ??_C@_1M@MKDBIIJI@?$AAe?$AAs?$AA?9?$AAB?$AAO@ 0000000180143fc8     libucrt:lcidtoname_downlevel.obj
 0002:0000afd8       ??_C@_1M@CPKKEBLD@?$AAe?$AAs?$AA?9?$AAS?$AAV@ 0000000180143fd8     libucrt:lcidtoname_downlevel.obj
 0002:0000afe8       ??_C@_1M@NDBGMMJL@?$AAe?$AAs?$AA?9?$AAH?$AAN@ 0000000180143fe8     libucrt:lcidtoname_downlevel.obj
 0002:0000aff8       ??_C@_1M@JIJIBHDP@?$AAe?$AAs?$AA?9?$AAN?$AAI@ 0000000180143ff8     libucrt:lcidtoname_downlevel.obj
 0002:0000b008       ??_C@_1M@CGFMKEEK@?$AAe?$AAs?$AA?9?$AAP?$AAR@ 0000000180144008     libucrt:lcidtoname_downlevel.obj
 0002:0000b018       ??_C@_1O@ICJHKIIK@?$AAz?$AAh?$AA?9?$AAC?$AAH?$AAT@ 0000000180144018     libucrt:lcidtoname_downlevel.obj
 0002:0000b028       ??_C@_15CLNEJCE@?$AAs?$AAr@ 0000000180144028     libucrt:lcidtoname_downlevel.obj
 0002:0000be70       ??_C@_1M@KAHEKEIG@?$AAa?$AAf?$AA?9?$AAz?$AAa@ 0000000180144e70     libucrt:lcidtoname_downlevel.obj
 0002:0000be80       ??_C@_1M@GIECOABL@?$AAa?$AAr?$AA?9?$AAa?$AAe@ 0000000180144e80     libucrt:lcidtoname_downlevel.obj
 0002:0000be90       ??_C@_1M@BMLMEKGI@?$AAa?$AAr?$AA?9?$AAb?$AAh@ 0000000180144e90     libucrt:lcidtoname_downlevel.obj
 0002:0000bea0       ??_C@_1M@DAPFDGGB@?$AAa?$AAr?$AA?9?$AAd?$AAz@ 0000000180144ea0     libucrt:lcidtoname_downlevel.obj
 0002:0000beb0       ??_C@_1M@FJNKGKIG@?$AAa?$AAr?$AA?9?$AAe?$AAg@ 0000000180144eb0     libucrt:lcidtoname_downlevel.obj
 0002:0000bec0       ??_C@_1M@FLGKKCLO@?$AAa?$AAr?$AA?9?$AAi?$AAq@ 0000000180144ec0     libucrt:lcidtoname_downlevel.obj
 0002:0000bed0       ??_C@_1M@GNDIPALM@?$AAa?$AAr?$AA?9?$AAj?$AAo@ 0000000180144ed0     libucrt:lcidtoname_downlevel.obj
 0002:0000bee0       ??_C@_1M@DDMJFMGJ@?$AAa?$AAr?$AA?9?$AAk?$AAw@ 0000000180144ee0     libucrt:lcidtoname_downlevel.obj
 0002:0000bef0       ??_C@_1M@EJALMLHM@?$AAa?$AAr?$AA?9?$AAl?$AAb@ 0000000180144ef0     libucrt:lcidtoname_downlevel.obj
 0002:0000bf00       ??_C@_1M@MOBDBLOC@?$AAa?$AAr?$AA?9?$AAl?$AAy@ 0000000180144f00     libucrt:lcidtoname_downlevel.obj
 0002:0000bf10       ??_C@_1M@JAOCLHDH@?$AAa?$AAr?$AA?9?$AAm?$AAa@ 0000000180144f10     libucrt:lcidtoname_downlevel.obj
 0002:0000bf20       ??_C@_1M@JHPMKJIE@?$AAa?$AAr?$AA?9?$AAo?$AAm@ 0000000180144f20     libucrt:lcidtoname_downlevel.obj
 0002:0000bf30       ??_C@_1M@OEPGHFNH@?$AAa?$AAr?$AA?9?$AAq?$AAa@ 0000000180144f30     libucrt:lcidtoname_downlevel.obj
 0002:0000bf40       ??_C@_1M@KJDONENM@?$AAa?$AAr?$AA?9?$AAs?$AAa@ 0000000180144f40     libucrt:lcidtoname_downlevel.obj
 0002:0000bf50       ??_C@_1M@DMJDKLKM@?$AAa?$AAr?$AA?9?$AAs?$AAy@ 0000000180144f50     libucrt:lcidtoname_downlevel.obj
 0002:0000bf60       ??_C@_1M@OMFIPEDC@?$AAa?$AAr?$AA?9?$AAt?$AAn@ 0000000180144f60     libucrt:lcidtoname_downlevel.obj
 0002:0000bf70       ??_C@_1M@IHMHGAON@?$AAa?$AAr?$AA?9?$AAy?$AAe@ 0000000180144f70     libucrt:lcidtoname_downlevel.obj
 0002:0000bf80       ??_C@_1BG@KDCPGJGB@?$AAa?$AAz?$AA?9?$AAa?$AAz?$AA?9?$AAc?$AAy?$AAr?$AAl@ 0000000180144f80     libucrt:lcidtoname_downlevel.obj
 0002:0000bf98       ??_C@_1BG@IBCKDDOE@?$AAa?$AAz?$AA?9?$AAa?$AAz?$AA?9?$AAl?$AAa?$AAt?$AAn@ 0000000180144f98     libucrt:lcidtoname_downlevel.obj
 0002:0000bfb0       ??_C@_1M@EGPFDCPD@?$AAb?$AAe?$AA?9?$AAb?$AAy@ 0000000180144fb0     libucrt:lcidtoname_downlevel.obj
 0002:0000bfc0       ??_C@_1M@PCMGMCGC@?$AAb?$AAg?$AA?9?$AAb?$AAg@ 0000000180144fc0     libucrt:lcidtoname_downlevel.obj
 0002:0000bfd0       ??_C@_1M@BJBMFGOB@?$AAb?$AAn?$AA?9?$AAi?$AAn@ 0000000180144fd0     libucrt:lcidtoname_downlevel.obj
 0002:0000bfe0       ??_C@_1BG@EAKMMACD@?$AAb?$AAs?$AA?9?$AAb?$AAa?$AA?9?$AAl?$AAa?$AAt?$AAn@ 0000000180144fe0     libucrt:lcidtoname_downlevel.obj
 0002:0000bff8       ??_C@_1M@KGADAODK@?$AAc?$AAa?$AA?9?$AAe?$AAs@ 0000000180144ff8     libucrt:lcidtoname_downlevel.obj
 0002:0000c008       ??_C@_1M@COAJPDHI@?$AAc?$AAs?$AA?9?$AAc?$AAz@ 0000000180145008     libucrt:lcidtoname_downlevel.obj
 0002:0000c018       ??_C@_1M@DHBHFONH@?$AAc?$AAy?$AA?9?$AAg?$AAb@ 0000000180145018     libucrt:lcidtoname_downlevel.obj
 0002:0000c028       ??_C@_1M@IMGKELGA@?$AAd?$AAa?$AA?9?$AAd?$AAk@ 0000000180145028     libucrt:lcidtoname_downlevel.obj
 0002:0000c038       ??_C@_1M@NNDGDNGA@?$AAd?$AAe?$AA?9?$AAa?$AAt@ 0000000180145038     libucrt:lcidtoname_downlevel.obj
 0002:0000c048       ??_C@_1M@IKDBHEEM@?$AAd?$AAe?$AA?9?$AAc?$AAh@ 0000000180145048     libucrt:lcidtoname_downlevel.obj
 0002:0000c058       ??_C@_1M@GFFOJMCJ@?$AAd?$AAe?$AA?9?$AAd?$AAe@ 0000000180145058     libucrt:lcidtoname_downlevel.obj
 0002:0000c068       ??_C@_1M@MDNLKBPM@?$AAd?$AAe?$AA?9?$AAl?$AAi@ 0000000180145068     libucrt:lcidtoname_downlevel.obj
 0002:0000c078       ??_C@_1M@NJBEEJNL@?$AAd?$AAe?$AA?9?$AAl?$AAu@ 0000000180145078     libucrt:lcidtoname_downlevel.obj
 0002:0000c088       ??_C@_1O@GNNELBAP@?$AAd?$AAi?$AAv?$AA?9?$AAm?$AAv@ 0000000180145088     libucrt:lcidtoname_downlevel.obj
 0002:0000c098       ??_C@_1M@EJLEOGAE@?$AAe?$AAl?$AA?9?$AAg?$AAr@ 0000000180145098     libucrt:lcidtoname_downlevel.obj
 0002:0000c0a8       ??_C@_1M@GMPONJN@?$AAe?$AAn?$AA?9?$AAa?$AAu@ 00000001801450a8     libucrt:lcidtoname_downlevel.obj
 0002:0000c0b8       ??_C@_1M@NIDIIPGF@?$AAe?$AAn?$AA?9?$AAb?$AAz@ 00000001801450b8     libucrt:lcidtoname_downlevel.obj
 0002:0000c0c8       ??_C@_1M@JEHMIMFO@?$AAe?$AAn?$AA?9?$AAc?$AAa@ 00000001801450c8     libucrt:lcidtoname_downlevel.obj
 0002:0000c0d8       ??_C@_1M@IGMJCDLA@?$AAe?$AAn?$AA?9?$AAc?$AAb@ 00000001801450d8     libucrt:lcidtoname_downlevel.obj
 0002:0000c0e8       ??_C@_1M@BNFIGBKG@?$AAe?$AAn?$AA?9?$AAg?$AAb@ 00000001801450e8     libucrt:lcidtoname_downlevel.obj
 0002:0000c0f8       ??_C@_1M@LKIFDIGP@?$AAe?$AAn?$AA?9?$AAi?$AAe@ 00000001801450f8     libucrt:lcidtoname_downlevel.obj
 0002:0000c108       ??_C@_1M@PJKFGCCO@?$AAe?$AAn?$AA?9?$AAj?$AAm@ 0000000180145108     libucrt:lcidtoname_downlevel.obj
 0002:0000c118       ??_C@_1M@KPPKEPBO@?$AAe?$AAn?$AA?9?$AAn?$AAz@ 0000000180145118     libucrt:lcidtoname_downlevel.obj
 0002:0000c128       ??_C@_1M@GMDGLDOB@?$AAe?$AAn?$AA?9?$AAp?$AAh@ 0000000180145128     libucrt:lcidtoname_downlevel.obj
 0002:0000c138       ??_C@_1M@ONGIBJNA@?$AAe?$AAn?$AA?9?$AAt?$AAt@ 0000000180145138     libucrt:lcidtoname_downlevel.obj
 0002:0000c148       ??_C@_1M@LLODPCMM@?$AAe?$AAn?$AA?9?$AAu?$AAs@ 0000000180145148     libucrt:lcidtoname_downlevel.obj
 0002:0000c158       ??_C@_1M@LAKFNPAN@?$AAe?$AAn?$AA?9?$AAz?$AAa@ 0000000180145158     libucrt:lcidtoname_downlevel.obj
 0002:0000c168       ??_C@_1M@MFNHNHEO@?$AAe?$AAn?$AA?9?$AAz?$AAw@ 0000000180145168     libucrt:lcidtoname_downlevel.obj
 0002:0000c178       ??_C@_1M@EJEINPHM@?$AAe?$AAs?$AA?9?$AAa?$AAr@ 0000000180145178     libucrt:lcidtoname_downlevel.obj
 0002:0000c188       ??_C@_1M@GNKPCCJA@?$AAe?$AAs?$AA?9?$AAb?$AAo@ 0000000180145188     libucrt:lcidtoname_downlevel.obj
 0002:0000c198       ??_C@_1M@LEEGFONL@?$AAe?$AAs?$AA?9?$AAc?$AAl@ 0000000180145198     libucrt:lcidtoname_downlevel.obj
 0002:0000c1a8       ??_C@_1M@KGPDPBDF@?$AAe?$AAs?$AA?9?$AAc?$AAo@ 00000001801451a8     libucrt:lcidtoname_downlevel.obj
 0002:0000c1b8       ??_C@_1M@EIAHOHH@?$AAe?$AAs?$AA?9?$AAc?$AAr@ 00000001801451b8     libucrt:lcidtoname_downlevel.obj
 0002:0000c1c8       ??_C@_1M@LLPGMBIN@?$AAe?$AAs?$AA?9?$AAd?$AAo@ 00000001801451c8     libucrt:lcidtoname_downlevel.obj
 0002:0000c1d8       ??_C@_1M@DKHMKNJA@?$AAe?$AAs?$AA?9?$AAe?$AAc@ 00000001801451d8     libucrt:lcidtoname_downlevel.obj
 0002:0000c1e8       ??_C@_1M@GKGFPKAP@?$AAe?$AAs?$AA?9?$AAe?$AAs@ 00000001801451e8     libucrt:lcidtoname_downlevel.obj
 0002:0000c1f8       ??_C@_1M@LKHKGDLN@?$AAe?$AAs?$AA?9?$AAg?$AAt@ 00000001801451f8     libucrt:lcidtoname_downlevel.obj
 0002:0000c208       ??_C@_1M@HEIIGGJD@?$AAe?$AAs?$AA?9?$AAh?$AAn@ 0000000180145208     libucrt:lcidtoname_downlevel.obj
 0002:0000c218       ??_C@_1M@FBDHPPGD@?$AAe?$AAs?$AA?9?$AAm?$AAx@ 0000000180145218     libucrt:lcidtoname_downlevel.obj
 0002:0000c228       ??_C@_1M@DPAGLNDH@?$AAe?$AAs?$AA?9?$AAn?$AAi@ 0000000180145228     libucrt:lcidtoname_downlevel.obj
 0002:0000c238       ??_C@_1M@MDGOPGDD@?$AAe?$AAs?$AA?9?$AAp?$AAa@ 0000000180145238     libucrt:lcidtoname_downlevel.obj
 0002:0000c248       ??_C@_1M@EMAMGBGE@?$AAe?$AAs?$AA?9?$AAp?$AAe@ 0000000180145248     libucrt:lcidtoname_downlevel.obj
 0002:0000c258       ??_C@_1M@IBMCAOEC@?$AAe?$AAs?$AA?9?$AAp?$AAr@ 0000000180145258     libucrt:lcidtoname_downlevel.obj
 0002:0000c268       ??_C@_1M@FGMDIJED@?$AAe?$AAs?$AA?9?$AAp?$AAy@ 0000000180145268     libucrt:lcidtoname_downlevel.obj
 0002:0000c278       ??_C@_1M@IIDEOLLL@?$AAe?$AAs?$AA?9?$AAs?$AAv@ 0000000180145278     libucrt:lcidtoname_downlevel.obj
 0002:0000c288       ??_C@_1M@GAOBIPA@?$AAe?$AAs?$AA?9?$AAu?$AAy@ 0000000180145288     libucrt:lcidtoname_downlevel.obj
 0002:0000c298       ??_C@_1M@JKFFICHJ@?$AAe?$AAs?$AA?9?$AAv?$AAe@ 0000000180145298     libucrt:lcidtoname_downlevel.obj
 0002:0000c2a8       ??_C@_1M@PNMLOJDF@?$AAe?$AAt?$AA?9?$AAe?$AAe@ 00000001801452a8     libucrt:lcidtoname_downlevel.obj
 0002:0000c2b8       ??_C@_1M@GHHLIKEI@?$AAe?$AAu?$AA?9?$AAe?$AAs@ 00000001801452b8     libucrt:lcidtoname_downlevel.obj
 0002:0000c2c8       ??_C@_1M@PBNONODE@?$AAf?$AAa?$AA?9?$AAi?$AAr@ 00000001801452c8     libucrt:lcidtoname_downlevel.obj
 0002:0000c2d8       ??_C@_1M@JEEHPMIL@?$AAf?$AAi?$AA?9?$AAf?$AAi@ 00000001801452d8     libucrt:lcidtoname_downlevel.obj
 0002:0000c2e8       ??_C@_1M@LMDCNDBA@?$AAf?$AAo?$AA?9?$AAf?$AAo@ 00000001801452e8     libucrt:lcidtoname_downlevel.obj
 0002:0000c2f8       ??_C@_1M@JKEOHLDK@?$AAf?$AAr?$AA?9?$AAb?$AAe@ 00000001801452f8     libucrt:lcidtoname_downlevel.obj
 0002:0000c308       ??_C@_1M@NOHADPMI@?$AAf?$AAr?$AA?9?$AAc?$AAa@ 0000000180145308     libucrt:lcidtoname_downlevel.obj
 0002:0000c318       ??_C@_1M@KDHIHAEC@?$AAf?$AAr?$AA?9?$AAc?$AAh@ 0000000180145318     libucrt:lcidtoname_downlevel.obj
 0002:0000c328       ??_C@_1M@MMBBFGAK@?$AAf?$AAr?$AA?9?$AAf?$AAr@ 0000000180145328     libucrt:lcidtoname_downlevel.obj
 0002:0000c338       ??_C@_1M@PAFNENNF@?$AAf?$AAr?$AA?9?$AAl?$AAu@ 0000000180145338     libucrt:lcidtoname_downlevel.obj
 0002:0000c348       ??_C@_1M@EOHDJGDD@?$AAf?$AAr?$AA?9?$AAm?$AAc@ 0000000180145348     libucrt:lcidtoname_downlevel.obj
 0002:0000c358       ??_C@_1M@FAPLLOPF@?$AAg?$AAl?$AA?9?$AAe?$AAs@ 0000000180145358     libucrt:lcidtoname_downlevel.obj
 0002:0000c368       ??_C@_1M@FOPBFLOO@?$AAg?$AAu?$AA?9?$AAi?$AAn@ 0000000180145368     libucrt:lcidtoname_downlevel.obj
 0002:0000c378       ??_C@_1M@KBMCINPM@?$AAh?$AAe?$AA?9?$AAi?$AAl@ 0000000180145378     libucrt:lcidtoname_downlevel.obj
 0002:0000c388       ??_C@_1M@BBPHKFPJ@?$AAh?$AAi?$AA?9?$AAi?$AAn@ 0000000180145388     libucrt:lcidtoname_downlevel.obj
 0002:0000c398       ??_C@_1M@PMBNDPHD@?$AAh?$AAr?$AA?9?$AAb?$AAa@ 0000000180145398     libucrt:lcidtoname_downlevel.obj
 0002:0000c3a8       ??_C@_1M@BPCKOEGE@?$AAh?$AAr?$AA?9?$AAh?$AAr@ 00000001801453a8     libucrt:lcidtoname_downlevel.obj
 0002:0000c3b8       ??_C@_1M@GACBMHKE@?$AAh?$AAu?$AA?9?$AAh?$AAu@ 00000001801453b8     libucrt:lcidtoname_downlevel.obj
 0002:0000c3c8       ??_C@_1M@MILPAJJC@?$AAh?$AAy?$AA?9?$AAa?$AAm@ 00000001801453c8     libucrt:lcidtoname_downlevel.obj
 0002:0000c3d8       ??_C@_1M@BABBICEC@?$AAi?$AAd?$AA?9?$AAi?$AAd@ 00000001801453d8     libucrt:lcidtoname_downlevel.obj
 0002:0000c3e8       ??_C@_1M@BIKNHHPF@?$AAi?$AAs?$AA?9?$AAi?$AAs@ 00000001801453e8     libucrt:lcidtoname_downlevel.obj
 0002:0000c3f8       ??_C@_1M@NMPCJPHE@?$AAi?$AAt?$AA?9?$AAc?$AAh@ 00000001801453f8     libucrt:lcidtoname_downlevel.obj
 0002:0000c408       ??_C@_1M@GHKGFEDF@?$AAi?$AAt?$AA?9?$AAi?$AAt@ 0000000180145408     libucrt:lcidtoname_downlevel.obj
 0002:0000c418       ??_C@_1M@NIEJCJJA@?$AAj?$AAa?$AA?9?$AAj?$AAp@ 0000000180145418     libucrt:lcidtoname_downlevel.obj
 0002:0000c428       ??_C@_1M@JILFNBIM@?$AAk?$AAa?$AA?9?$AAg?$AAe@ 0000000180145428     libucrt:lcidtoname_downlevel.obj
 0002:0000c438       ??_C@_1M@PACPMGPH@?$AAk?$AAk?$AA?9?$AAk?$AAz@ 0000000180145438     libucrt:lcidtoname_downlevel.obj
 0002:0000c448       ??_C@_1M@IELFGMHA@?$AAk?$AAn?$AA?9?$AAi?$AAn@ 0000000180145448     libucrt:lcidtoname_downlevel.obj
 0002:0000c458       ??_C@_1O@IBBJHCH@?$AAk?$AAo?$AAk?$AA?9?$AAi?$AAn@ 0000000180145458     libucrt:lcidtoname_downlevel.obj
 0002:0000c468       ??_C@_1M@DMHAEOGC@?$AAk?$AAo?$AA?9?$AAk?$AAr@ 0000000180145468     libucrt:lcidtoname_downlevel.obj
 0002:0000c478       ??_C@_1M@HBAHBIGA@?$AAk?$AAy?$AA?9?$AAk?$AAg@ 0000000180145478     libucrt:lcidtoname_downlevel.obj
 0002:0000c488       ??_C@_1M@KPMILCJG@?$AAl?$AAt?$AA?9?$AAl?$AAt@ 0000000180145488     libucrt:lcidtoname_downlevel.obj
 0002:0000c498       ??_C@_1M@BDEKKCA@?$AAl?$AAv?$AA?9?$AAl?$AAv@ 0000000180145498     libucrt:lcidtoname_downlevel.obj
 0002:0000c4a8       ??_C@_1M@ELCKCCJJ@?$AAm?$AAi?$AA?9?$AAn?$AAz@ 00000001801454a8     libucrt:lcidtoname_downlevel.obj
 0002:0000c4b8       ??_C@_1M@CBOOLAPA@?$AAm?$AAk?$AA?9?$AAm?$AAk@ 00000001801454b8     libucrt:lcidtoname_downlevel.obj
 0002:0000c4c8       ??_C@_1M@GPHNBJKN@?$AAm?$AAl?$AA?9?$AAi?$AAn@ 00000001801454c8     libucrt:lcidtoname_downlevel.obj
 0002:0000c4d8       ??_C@_1M@PABJILIG@?$AAm?$AAn?$AA?9?$AAm?$AAn@ 00000001801454d8     libucrt:lcidtoname_downlevel.obj
 0002:0000c4e8       ??_C@_1M@FGBKKIPG@?$AAm?$AAr?$AA?9?$AAi?$AAn@ 00000001801454e8     libucrt:lcidtoname_downlevel.obj
 0002:0000c4f8       ??_C@_1M@NDBPDDAL@?$AAm?$AAs?$AA?9?$AAb?$AAn@ 00000001801454f8     libucrt:lcidtoname_downlevel.obj
 0002:0000c508       ??_C@_1M@OPIHOOPI@?$AAm?$AAs?$AA?9?$AAm?$AAy@ 0000000180145508     libucrt:lcidtoname_downlevel.obj
 0002:0000c518       ??_C@_1M@PPDBCNFM@?$AAm?$AAt?$AA?9?$AAm?$AAt@ 0000000180145518     libucrt:lcidtoname_downlevel.obj
 0002:0000c528       ??_C@_1M@KDJDKMDD@?$AAn?$AAb?$AA?9?$AAn?$AAo@ 0000000180145528     libucrt:lcidtoname_downlevel.obj
 0002:0000c538       ??_C@_1M@KFCFLMJP@?$AAn?$AAl?$AA?9?$AAb?$AAe@ 0000000180145538     libucrt:lcidtoname_downlevel.obj
 0002:0000c548       ??_C@_1M@KPOPDDGO@?$AAn?$AAl?$AA?9?$AAn?$AAl@ 0000000180145548     libucrt:lcidtoname_downlevel.obj
 0002:0000c558       ??_C@_1M@LJKPEMLN@?$AAn?$AAn?$AA?9?$AAn?$AAo@ 0000000180145558     libucrt:lcidtoname_downlevel.obj
 0002:0000c568       ??_C@_1M@BDGHHBFL@?$AAn?$AAs?$AA?9?$AAz?$AAa@ 0000000180145568     libucrt:lcidtoname_downlevel.obj
 0002:0000c578       ??_C@_1M@IDEHOAP@?$AAp?$AAa?$AA?9?$AAi?$AAn@ 0000000180145578     libucrt:lcidtoname_downlevel.obj
 0002:0000c588       ??_C@_1M@HDBKGOGH@?$AAp?$AAl?$AA?9?$AAp?$AAl@ 0000000180145588     libucrt:lcidtoname_downlevel.obj
 0002:0000c598       ??_C@_1M@LJLLCMEH@?$AAp?$AAt?$AA?9?$AAb?$AAr@ 0000000180145598     libucrt:lcidtoname_downlevel.obj
 0002:0000c5a8       ??_C@_1M@NCMONAAL@?$AAp?$AAt?$AA?9?$AAp?$AAt@ 00000001801455a8     libucrt:lcidtoname_downlevel.obj
 0002:0000c5b8       ??_C@_1O@EAKMAJDN@?$AAq?$AAu?$AAz?$AA?9?$AAb?$AAo@ 00000001801455b8     libucrt:lcidtoname_downlevel.obj
 0002:0000c5c8       ??_C@_1O@BHHPIGDN@?$AAq?$AAu?$AAz?$AA?9?$AAe?$AAc@ 00000001801455c8     libucrt:lcidtoname_downlevel.obj
 0002:0000c5d8       ??_C@_1O@GBAPEKMJ@?$AAq?$AAu?$AAz?$AA?9?$AAp?$AAe@ 00000001801455d8     libucrt:lcidtoname_downlevel.obj
 0002:0000c5e8       ??_C@_1M@CLGLEFBO@?$AAr?$AAo?$AA?9?$AAr?$AAo@ 00000001801455e8     libucrt:lcidtoname_downlevel.obj
 0002:0000c5f8       ??_C@_1M@CEEDODME@?$AAr?$AAu?$AA?9?$AAr?$AAu@ 00000001801455f8     libucrt:lcidtoname_downlevel.obj
 0002:0000c608       ??_C@_1M@HPKKKMPP@?$AAs?$AAa?$AA?9?$AAi?$AAn@ 0000000180145608     libucrt:lcidtoname_downlevel.obj
 0002:0000c618       ??_C@_1M@BKMAIGOJ@?$AAs?$AAe?$AA?9?$AAf?$AAi@ 0000000180145618     libucrt:lcidtoname_downlevel.obj
 0002:0000c628       ??_C@_1M@NDPIFLFI@?$AAs?$AAe?$AA?9?$AAn?$AAo@ 0000000180145628     libucrt:lcidtoname_downlevel.obj
 0002:0000c638       ??_C@_1M@DANKKHJ@?$AAs?$AAe?$AA?9?$AAs?$AAe@ 0000000180145638     libucrt:lcidtoname_downlevel.obj
 0002:0000c648       ??_C@_1M@PNBLONPJ@?$AAs?$AAk?$AA?9?$AAs?$AAk@ 0000000180145648     libucrt:lcidtoname_downlevel.obj
 0002:0000c658       ??_C@_1M@LFMODOAL@?$AAs?$AAl?$AA?9?$AAs?$AAi@ 0000000180145658     libucrt:lcidtoname_downlevel.obj
 0002:0000c668       ??_C@_1O@DFKOMPG@?$AAs?$AAm?$AAa?$AA?9?$AAn?$AAo@ 0000000180145668     libucrt:lcidtoname_downlevel.obj
 0002:0000c678       ??_C@_1O@NDKPBNNH@?$AAs?$AAm?$AAa?$AA?9?$AAs?$AAe@ 0000000180145678     libucrt:lcidtoname_downlevel.obj
 0002:0000c688       ??_C@_1O@PLLKBHAB@?$AAs?$AAm?$AAj?$AA?9?$AAn?$AAo@ 0000000180145688     libucrt:lcidtoname_downlevel.obj
 0002:0000c698       ??_C@_1O@CLEPOGCA@?$AAs?$AAm?$AAj?$AA?9?$AAs?$AAe@ 0000000180145698     libucrt:lcidtoname_downlevel.obj
 0002:0000c6a8       ??_C@_1O@DLGJGKMK@?$AAs?$AAm?$AAn?$AA?9?$AAf?$AAi@ 00000001801456a8     libucrt:lcidtoname_downlevel.obj
 0002:0000c6b8       ??_C@_1O@OJDJGAJC@?$AAs?$AAm?$AAs?$AA?9?$AAf?$AAi@ 00000001801456b8     libucrt:lcidtoname_downlevel.obj
 0002:0000c6c8       ??_C@_1M@BOFOGHPB@?$AAs?$AAq?$AA?9?$AAa?$AAl@ 00000001801456c8     libucrt:lcidtoname_downlevel.obj
 0002:0000c6d8       ??_C@_1BG@LJBBIPGB@?$AAs?$AAr?$AA?9?$AAb?$AAa?$AA?9?$AAc?$AAy?$AAr?$AAl@ 00000001801456d8     libucrt:lcidtoname_downlevel.obj
 0002:0000c6f0       ??_C@_1BG@JLBENFOE@?$AAs?$AAr?$AA?9?$AAb?$AAa?$AA?9?$AAl?$AAa?$AAt?$AAn@ 00000001801456f0     libucrt:lcidtoname_downlevel.obj
 0002:0000c708       ??_C@_1BG@KODPNHE@?$AAs?$AAr?$AA?9?$AAs?$AAp?$AA?9?$AAc?$AAy?$AAr?$AAl@ 0000000180145708     libucrt:lcidtoname_downlevel.obj
 0002:0000c720       ??_C@_1BG@CIOGKHPB@?$AAs?$AAr?$AA?9?$AAs?$AAp?$AA?9?$AAl?$AAa?$AAt?$AAn@ 0000000180145720     libucrt:lcidtoname_downlevel.obj
 0002:0000c738       ??_C@_1M@NGFJLMAC@?$AAs?$AAv?$AA?9?$AAf?$AAi@ 0000000180145738     libucrt:lcidtoname_downlevel.obj
 0002:0000c748       ??_C@_1M@MPJEJAJC@?$AAs?$AAv?$AA?9?$AAs?$AAe@ 0000000180145748     libucrt:lcidtoname_downlevel.obj
 0002:0000c758       ??_C@_1M@MPNDHLFK@?$AAs?$AAw?$AA?9?$AAk?$AAe@ 0000000180145758     libucrt:lcidtoname_downlevel.obj
 0002:0000c768       ??_C@_1O@KOHBJJI@?$AAs?$AAy?$AAr?$AA?9?$AAs?$AAy@ 0000000180145768     libucrt:lcidtoname_downlevel.obj
 0002:0000c778       ??_C@_1M@LDCEFHA@?$AAt?$AAa?$AA?9?$AAi?$AAn@ 0000000180145778     libucrt:lcidtoname_downlevel.obj
 0002:0000c788       ??_C@_1M@CNJOFAK@?$AAt?$AAe?$AA?9?$AAi?$AAn@ 0000000180145788     libucrt:lcidtoname_downlevel.obj
 0002:0000c798       ??_C@_1M@GNAECACD@?$AAt?$AAh?$AA?9?$AAt?$AAh@ 0000000180145798     libucrt:lcidtoname_downlevel.obj
 0002:0000c7a8       ??_C@_1M@CHBIHOJO@?$AAt?$AAn?$AA?9?$AAz?$AAa@ 00000001801457a8     libucrt:lcidtoname_downlevel.obj
 0002:0000c7b8       ??_C@_1M@GCCMIGPJ@?$AAt?$AAr?$AA?9?$AAt?$AAr@ 00000001801457b8     libucrt:lcidtoname_downlevel.obj
 0002:0000c7c8       ??_C@_1M@CELMCNBK@?$AAt?$AAt?$AA?9?$AAr?$AAu@ 00000001801457c8     libucrt:lcidtoname_downlevel.obj
 0002:0000c7d8       ??_C@_1M@KLMCELGA@?$AAu?$AAk?$AA?9?$AAu?$AAa@ 00000001801457d8     libucrt:lcidtoname_downlevel.obj
 0002:0000c7e8       ??_C@_1M@EPAJJAJF@?$AAu?$AAr?$AA?9?$AAp?$AAk@ 00000001801457e8     libucrt:lcidtoname_downlevel.obj
 0002:0000c7f8       ??_C@_1BG@GEGPMCDJ@?$AAu?$AAz?$AA?9?$AAu?$AAz?$AA?9?$AAc?$AAy?$AAr?$AAl@ 00000001801457f8     libucrt:lcidtoname_downlevel.obj
 0002:0000c810       ??_C@_1BG@EGGKJILM@?$AAu?$AAz?$AA?9?$AAu?$AAz?$AA?9?$AAl?$AAa?$AAt?$AAn@ 0000000180145810     libucrt:lcidtoname_downlevel.obj
 0002:0000c828       ??_C@_1M@GFOCLFF@?$AAv?$AAi?$AA?9?$AAv?$AAn@ 0000000180145828     libucrt:lcidtoname_downlevel.obj
 0002:0000c838       ??_C@_1M@CPAMEDFI@?$AAx?$AAh?$AA?9?$AAz?$AAa@ 0000000180145838     libucrt:lcidtoname_downlevel.obj
 0002:0000c848       ??_C@_1O@EBKIFIGN@?$AAz?$AAh?$AA?9?$AAc?$AAh?$AAs@ 0000000180145848     libucrt:lcidtoname_downlevel.obj
 0002:0000c858       ??_C@_1O@NMHPGANE@?$AAz?$AAh?$AA?9?$AAc?$AAh?$AAt@ 0000000180145858     libucrt:lcidtoname_downlevel.obj
 0002:0000c868       ??_C@_1M@LPINJOMC@?$AAz?$AAh?$AA?9?$AAc?$AAn@ 0000000180145868     libucrt:lcidtoname_downlevel.obj
 0002:0000c878       ??_C@_1M@OCJEJODD@?$AAz?$AAh?$AA?9?$AAh?$AAk@ 0000000180145878     libucrt:lcidtoname_downlevel.obj
 0002:0000c888       ??_C@_1M@DNDLJINH@?$AAz?$AAh?$AA?9?$AAm?$AAo@ 0000000180145888     libucrt:lcidtoname_downlevel.obj
 0002:0000c898       ??_C@_1M@MBFDNDND@?$AAz?$AAh?$AA?9?$AAs?$AAg@ 0000000180145898     libucrt:lcidtoname_downlevel.obj
 0002:0000c8a8       ??_C@_1M@IMEPLEPE@?$AAz?$AAh?$AA?9?$AAt?$AAw@ 00000001801458a8     libucrt:lcidtoname_downlevel.obj
 0002:0000c8b8       ??_C@_1M@BBGHNHJP@?$AAz?$AAu?$AA?9?$AAz?$AAa@ 00000001801458b8     libucrt:lcidtoname_downlevel.obj
 0002:0000c8d0       ?large_power_data@?1??multiply_by_power_of_ten@__crt_strtox@@YA_NAEAUbig_integer@2@I@Z@4QBIB 00000001801458d0     libucrt:cfout.obj
 0002:0000d1e0       ?large_power_indices@?1??multiply_by_power_of_ten@__crt_strtox@@YA_NAEAUbig_integer@2@I@Z@4QBUunpack_index@?1??12@YA_N0I@Z@B 00000001801461e0     libucrt:cfout.obj
 0002:0000d278       ?small_powers_of_ten@?1??multiply_by_power_of_ten@__crt_strtox@@YA_NAEAUbig_integer@2@I@Z@4QBIB 0000000180146278     libucrt:cfout.obj
 0002:0000d29c       ??_C@_01GBGANLPD@0@        000000018014629c     libucrt:cfout.obj
 0002:0000d2a0       ??_C@_05DNEBIAHO@1?$CDINF@ 00000001801462a0     libucrt:cfout.obj
 0002:0000d2a8       ??_C@_06IMKFLFPG@1?$CDQNAN@ 00000001801462a8     libucrt:cfout.obj
 0002:0000d2b0       ??_C@_06PGGFOGJG@1?$CDSNAN@ 00000001801462b0     libucrt:cfout.obj
 0002:0000d2b8       ??_C@_05PHHOCPM@1?$CDIND@  00000001801462b8     libucrt:cfout.obj
 0002:0000d2c0       __real@3ff0000000000000    00000001801462c0     libucrt:ceil.obj
 0002:0000d520       ??_C@_1BA@BALFACEM@?$AAC?$AAO?$AAN?$AAO?$AAU?$AAT?$AA$@ 0000000180146520     libucrt:initcon.obj
 0002:0000d530       __log10_256_lead           0000000180146530     libucrt:log10_256_lead_tail_table.obj
 0002:0000dd40       __log10_256_tail           0000000180146d40     libucrt:log10_256_lead_tail_table.obj
 0002:0000e550       __log_F_inv_qword          0000000180147550     libucrt:log_f_inv_qword_table.obj
 0002:0000ee00       ??_R4type_info@@6B@        0000000180147e00     LIBCMT:std_type_info_static.obj
 0002:0000ee28       ??_R3type_info@@8          0000000180147e28     LIBCMT:std_type_info_static.obj
 0002:0000ee40       ??_R2type_info@@8          0000000180147e40     LIBCMT:std_type_info_static.obj
 0002:0000ee50       ??_R1A@?0A@EA@type_info@@8 0000000180147e50     LIBCMT:std_type_info_static.obj
 0002:0000ee78       ??_R3DNameNode@@8          0000000180147e78     libvcruntime:undname.obj
 0002:0000ee90       ??_R2DNameNode@@8          0000000180147e90     libvcruntime:undname.obj
 0002:0000eea0       ??_R1A@?0A@EA@DNameNode@@8 0000000180147ea0     libvcruntime:undname.obj
 0002:0000eec8       ??_R4charNode@@6B@         0000000180147ec8     libvcruntime:undname.obj
 0002:0000eef0       ??_R3charNode@@8           0000000180147ef0     libvcruntime:undname.obj
 0002:0000ef08       ??_R2charNode@@8           0000000180147f08     libvcruntime:undname.obj
 0002:0000ef20       ??_R1A@?0A@EA@charNode@@8  0000000180147f20     libvcruntime:undname.obj
 0002:0000ef48       ??_R4pcharNode@@6B@        0000000180147f48     libvcruntime:undname.obj
 0002:0000ef70       ??_R3pcharNode@@8          0000000180147f70     libvcruntime:undname.obj
 0002:0000ef88       ??_R2pcharNode@@8          0000000180147f88     libvcruntime:undname.obj
 0002:0000efa0       ??_R1A@?0A@EA@pcharNode@@8 0000000180147fa0     libvcruntime:undname.obj
 0002:0000efc8       ??_R4pDNameNode@@6B@       0000000180147fc8     libvcruntime:undname.obj
 0002:0000eff0       ??_R3pDNameNode@@8         0000000180147ff0     libvcruntime:undname.obj
 0002:0000f008       ??_R2pDNameNode@@8         0000000180148008     libvcruntime:undname.obj
 0002:0000f020       ??_R1A@?0A@EA@pDNameNode@@8 0000000180148020     libvcruntime:undname.obj
 0002:0000f048       ??_R4DNameStatusNode@@6B@  0000000180148048     libvcruntime:undname.obj
 0002:0000f070       ??_R3DNameStatusNode@@8    0000000180148070     libvcruntime:undname.obj
 0002:0000f088       ??_R2DNameStatusNode@@8    0000000180148088     libvcruntime:undname.obj
 0002:0000f0a0       ??_R1A@?0A@EA@DNameStatusNode@@8 00000001801480a0     libvcruntime:undname.obj
 0002:0000f0c8       ??_R4pairNode@@6B@         00000001801480c8     libvcruntime:undname.obj
 0002:0000f0f0       ??_R3pairNode@@8           00000001801480f0     libvcruntime:undname.obj
 0002:0000f108       ??_R2pairNode@@8           0000000180148108     libvcruntime:undname.obj
 0002:0000f120       ??_R1A@?0A@EA@pairNode@@8  0000000180148120     libvcruntime:undname.obj
 0002:0000f148       ??_R4exception@std@@6B@    0000000180148148     libvcruntime:frame.obj
 0002:0000f170       ??_R3exception@std@@8      0000000180148170     libvcruntime:frame.obj
 0002:0000f188       ??_R2exception@std@@8      0000000180148188     libvcruntime:frame.obj
 0002:0000f198       ??_R1A@?0A@EA@exception@std@@8 0000000180148198     libvcruntime:frame.obj
 0002:0000f1c0       ??_R4bad_exception@std@@6B@ 00000001801481c0     libvcruntime:frame.obj
 0002:0000f1e8       ??_R3bad_exception@std@@8  00000001801481e8     libvcruntime:frame.obj
 0002:0000f200       ??_R2bad_exception@std@@8  0000000180148200     libvcruntime:frame.obj
 0002:0000f218       ??_R1A@?0A@EA@bad_exception@std@@8 0000000180148218     libvcruntime:frame.obj
 0002:0000f23c       __volatile_metadata        000000018014823c     <linker-defined>
 0002:0000f810       __rtc_iaa                  0000000180148810     LIBCMT:initsect.obj
 0002:0000f818       __rtc_izz                  0000000180148818     LIBCMT:initsect.obj
 0002:0000f820       __rtc_taa                  0000000180148820     LIBCMT:initsect.obj
 0002:0000f828       __rtc_tzz                  0000000180148828     LIBCMT:initsect.obj
 0002:0001bd58       _TI2?AVbad_exception@std@@ 0000000180154d58     libvcruntime:frame.obj
 0002:0001bd78       _CTA2?AVbad_exception@std@@ 0000000180154d78     libvcruntime:frame.obj
 0002:0001bd90       _CT??_R0?AVbad_exception@std@@@8??0bad_exception@std@@QEAA@AEBV01@@Z24 0000000180154d90     libvcruntime:frame.obj
 0002:0001bdb8       _CT??_R0?AVexception@std@@@8??0exception@std@@QEAA@AEBV01@@Z24 0000000180154db8     libvcruntime:frame.obj
 0002:0001bddc       __DELAY_IMPORT_DESCRIPTOR_physxfoundation_64_dll 0000000180154ddc     PhysXFoundation_64:PhysXFoundation_64.dll
 0002:0001bdfc       __NULL_DELAY_IMPORT_DESCRIPTOR 0000000180154dfc     PhysXFoundation_64:PhysXFoundation_64.dll
 0002:0001bea8       \177PhysXFoundation_64_NULL_THUNK_DATA_DLN 0000000180154ea8     PhysXFoundation_64:PhysXFoundation_64.dll
 0002:0001c1e8       \177PhysXFoundation_64_NULL_THUNK_DATA_DLB 00000001801551e8     PhysXFoundation_64:PhysXFoundation_64.dll
 0002:0002634c       __IMPORT_DESCRIPTOR_KERNEL32 000000018015f34c     kernel32:KERNEL32.dll
 0002:00026360       __NULL_IMPORT_DESCRIPTOR   000000018015f360     kernel32:KERNEL32.dll
 0003:00000000       __pfnDliNotifyHook2        0000000180160000     CmWindowsDelayLoadHook.obj
 0003:00000020       ?gGeomMTDMethodTable@@3PAY06P6A_NAEAVPxVec3@physx@@AEAMAEBVPxGeometry@2@AEBVPxTransform@2@23@ZA 0000000180160020     GuMTD.obj
 0003:000001b0       ?gGeomOverlapMethodTable@@3PAY06P6A_NAEBVPxGeometry@physx@@AEBVPxTransform@2@01PEAUTriggerCache@Gu@2@@ZA 00000001801601b0     GuOverlapTests.obj
 0003:00000338       ?gRaycastMap@@3PAP6AIAEBVPxGeometry@physx@@AEBVPxTransform@2@AEBVPxVec3@2@2MV?$PxFlags@W4Enum@PxHitFlag@physx@@G@2@IPEIAUPxRaycastHit@2@@ZA 0000000180160338     GuRaycastTests.obj
 0003:00000370       ?gGeomSweepFuncs@@3UGeomSweepFuncs@Gu@physx@@A 0000000180160370     GuSweepTests.obj
 0003:00000490       ?g_SweepMethodTable@Gu@physx@@3PAY06P6AMAEBUCCDShape@12@0AEBVPxTransform@2@111MAEAVPxVec3@2@2MAEAIM@ZA 0000000180160490     GuCCDSweepPrimitives.obj
 0003:00000618       ?g_TriangleSweepMethodTable@Gu@physx@@3PAP6AMAEBVGeometryUnion@12@0AEBVPxTransform@2@111MAEAVPxVec3@2@2AEBVFastVertex2ShapeScaling@Cm@2@AEAVTriangleV@12@M@ZA 0000000180160618     GuCCDSweepPrimitives.obj
 0003:00000a14       _fltused                   0000000180160a14     LIBCMT:fltused.obj
 0003:00000a20       __isa_available            0000000180160a20     LIBCMT:cpu_disp.obj
 0003:00000a24       __isa_enabled              0000000180160a24     LIBCMT:cpu_disp.obj
 0003:00000a28       __memset_fast_string_threshold 0000000180160a28     LIBCMT:cpu_disp.obj
 0003:00000a30       __memset_nt_threshold      0000000180160a30     LIBCMT:cpu_disp.obj
 0003:00000a40       __scrt_native_dllmain_reason 0000000180160a40     LIBCMT:utility.obj
 0003:00000a48       __security_cookie          0000000180160a48     LIBCMT:gs_cookie.obj
 0003:00000a50       __security_cookie_complement 0000000180160a50     LIBCMT:gs_cookie.obj
 0003:00000a80       __abort_behavior           0000000180160a80     libucrt:abort.obj
 0003:00000ab0       __acrt_initial_multibyte_data 0000000180160ab0     libucrt:mbctype.obj
 0003:00000ff0       __acrt_initial_locale_data 0000000180160ff0     libucrt:nlsdata.obj
 0003:00001148       __acrt_initial_locale_pointers 0000000180161148     libucrt:nlsdata.obj
 0003:00001158       __acrt_wide_c_locale_string 0000000180161158     libucrt:nlsdata.obj
 0003:00001160       _iob                       0000000180161160     libucrt:_file.obj
 0003:00001270       __globallocalestatus       0000000180161270     libucrt:glstatus.obj
 0003:00001280       __acrt_lconv_c             0000000180161280     libucrt:localeconv.obj
 0003:00001318       __acrt_lconv_static_decimal 0000000180161318     libucrt:localeconv.obj
 0003:0000131c       __acrt_lconv_static_W_decimal 000000018016131c     libucrt:localeconv.obj
 0003:00001320       _lookuptrailbytes          0000000180161320     libucrt:read.obj
 0003:00001430       ??_R0?AVCollection@Cm@physx@@@8 0000000180161430     CmCollection.obj
 0003:00001460       ??_R0D@8                   0000000180161460     CmRenderOutput.obj
 0003:00001478       ??_R0?AUPxDebugText@physx@@@8 0000000180161478     CmRenderOutput.obj
 0003:000014a0       ??_R0?AUPxDebugTriangle@physx@@@8 00000001801614a0     CmRenderOutput.obj
 0003:000014d0       ??_R0?AUPxDebugLine@physx@@@8 00000001801614d0     CmRenderOutput.obj
 0003:000014f8       ??_R0?AUPxDebugPoint@physx@@@8 00000001801614f8     CmRenderOutput.obj
 0003:00001528       ??_R0?AVMutexImpl@shdfnd@physx@@@8 0000000180161528     GuMeshFactory.obj
 0003:00001558       ??_R0?AVBVHStructure@Gu@physx@@@8 0000000180161558     GuMeshFactory.obj
 0003:00001588       ??_R0?AVHeightField@Gu@physx@@@8 0000000180161588     GuMeshFactory.obj
 0003:000015b8       ??_R0?AVConvexMesh@Gu@physx@@@8 00000001801615b8     GuMeshFactory.obj
 0003:000015e8       ??_R0?AVBV32Tree@Gu@physx@@@8 00000001801615e8     GuMeshFactory.obj
 0003:00001610       ??_R0?AVBV4TriangleData@Gu@physx@@@8 0000000180161610     GuMeshFactory.obj
 0003:00001640       ??_R0?AVRTreeTriangleData@Gu@physx@@@8 0000000180161640     GuMeshFactory.obj
 0003:00001678       ??_R0?AVBV4TriangleMesh@Gu@physx@@@8 0000000180161678     GuMeshFactory.obj
 0003:000016a8       ??_R0?AVRTreeTriangleMesh@Gu@physx@@@8 00000001801616a8     GuMeshFactory.obj
 0003:000016e0       ??_R0E@8                   00000001801616e0     GuMeshFactory.obj
 0003:000016f8       ??_R0G@8                   00000001801616f8     GuMeshFactory.obj
 0003:00001710       ??_R0I@8                   0000000180161710     GuMeshFactory.obj
 0003:00001728       ??_R0PEAVGuMeshFactoryListener@physx@@@8 0000000180161728     GuMeshFactory.obj
 0003:00001760       ??_R0?AVAABBTreeBuildNode@Gu@physx@@@8 0000000180161760     GuAABBTreeBuild.obj
 0003:00001798       ??_R0?AUSlab@NodeAllocator@Gu@physx@@@8 0000000180161798     GuAABBTreeBuild.obj
 0003:000017d0       ??_R0PEBUBVHNode@Gu@physx@@@8 00000001801617d0     GuBVHStructure.obj
 0003:000017f8       ??_R0?AVBigConvexData@physx@@@8 00000001801617f8     GuConvexMesh.obj
 0003:00001828       ??_R0?AVIndTri16@Gu@physx@@@8 0000000180161828     GuBV4.obj
 0003:00001850       ??_R0?AVIndTri32@Gu@physx@@@8 0000000180161850     GuBV4.obj
 0003:00001880       ??_R0?AU?$BVDataPackedT@VQuantizedAABB@Gu@physx@@@Gu@physx@@@8 0000000180161880     GuBV4Build.obj
 0003:000018d0       ??_R0?AUSlab@BV4BuildParams@@@8 00000001801618d0     GuBV4Build.obj
 0003:00001900       ??_R0?AVAABBTreeNode@Gu@physx@@@8 0000000180161900     GuBV4Build.obj
 0003:00001930       ??_R0?AUBV32Data@Gu@physx@@@8 0000000180161930     GuBV32Build.obj
 0003:00001958       ??_R0?AUBV32Node@@@8       0000000180161958     GuBV32Build.obj
 0003:00001978       ??_R0?AUSortedTriangle@Gu@physx@@@8 0000000180161978     GuPCMContactConvexCommon.obj
 0003:000019a8       ??_R0?AVbad_exception@std@@@8 00000001801619a8     libvcruntime:frame.obj
 0003:000019d0       ??_R0?AVexception@std@@@8  00000001801619d0     libvcruntime:frame.obj
 0003:000019f8       ??_R0?AVtype_info@@@8      00000001801619f8     LIBCMT:std_type_info_static.obj
 0003:00001a18       ??_R0?AVDNameNode@@@8      0000000180161a18     libvcruntime:undname.obj
 0003:00001a38       ??_R0?AVcharNode@@@8       0000000180161a38     libvcruntime:undname.obj
 0003:00001a58       ??_R0?AVpcharNode@@@8      0000000180161a58     libvcruntime:undname.obj
 0003:00001a78       ??_R0?AVpDNameNode@@@8     0000000180161a78     libvcruntime:undname.obj
 0003:00001aa0       ??_R0?AVDNameStatusNode@@@8 0000000180161aa0     libvcruntime:undname.obj
 0003:00001ac8       ??_R0?AVpairNode@@@8       0000000180161ac8     libvcruntime:undname.obj
 0003:00001ae8       __imp_PxGetFoundation      0000000180161ae8     PhysXFoundation_64:PhysXFoundation_64.dll
 0003:00001af0       __imp_?atomicIncrement@shdfnd@physx@@YAHPECH@Z 0000000180161af0     PhysXFoundation_64:PhysXFoundation_64.dll
 0003:00001af8       __imp_?getAllocator@shdfnd@physx@@YAAEAVPxAllocatorCallback@2@XZ 0000000180161af8     PhysXFoundation_64:PhysXFoundation_64.dll
 0003:00001b00       __imp_?getInstance@Foundation@shdfnd@physx@@SAAEAV123@XZ 0000000180161b00     PhysXFoundation_64:PhysXFoundation_64.dll
 0003:00001b08       __imp_?error@Foundation@shdfnd@physx@@QEAAXW4Enum@PxErrorCode@3@PEBDH1ZZ 0000000180161b08     PhysXFoundation_64:PhysXFoundation_64.dll
 0003:00001b10       __imp_?vsnprintf@shdfnd@physx@@YAHPEAD_KPEBD0@Z 0000000180161b10     PhysXFoundation_64:PhysXFoundation_64.dll
 0003:00001b18       __imp_??0MutexImpl@shdfnd@physx@@QEAA@XZ 0000000180161b18     PhysXFoundation_64:PhysXFoundation_64.dll
 0003:00001b20       __imp_??1MutexImpl@shdfnd@physx@@QEAA@XZ 0000000180161b20     PhysXFoundation_64:PhysXFoundation_64.dll
 0003:00001b28       __imp_?lock@MutexImpl@shdfnd@physx@@QEAAXXZ 0000000180161b28     PhysXFoundation_64:PhysXFoundation_64.dll
 0003:00001b30       __imp_?unlock@MutexImpl@shdfnd@physx@@QEAAXXZ 0000000180161b30     PhysXFoundation_64:PhysXFoundation_64.dll
 0003:00001b38       __imp_?getSize@MutexImpl@shdfnd@physx@@SAIXZ 0000000180161b38     PhysXFoundation_64:PhysXFoundation_64.dll
 0003:00001b40       __imp_?atomicDecrement@shdfnd@physx@@YAHPECH@Z 0000000180161b40     PhysXFoundation_64:PhysXFoundation_64.dll
 0003:00001b48       __imp_?PxTransformFromSegment@physx@@YA?AVPxTransform@1@AEBVPxVec3@1@0PEAM@Z 0000000180161b48     PhysXFoundation_64:PhysXFoundation_64.dll
 0003:00001b50       __imp_?optimizeBoundingBox@shdfnd@physx@@YA?AVPxVec3@2@AEAVPxMat33@2@@Z 0000000180161b50     PhysXFoundation_64:PhysXFoundation_64.dll
 0003:00001b58       __imp_?allocate@TempAllocator@shdfnd@physx@@QEAAPEAX_KPEBDH@Z 0000000180161b58     PhysXFoundation_64:PhysXFoundation_64.dll
 0003:00001b60       __imp_?deallocate@TempAllocator@shdfnd@physx@@QEAAXPEAX@Z 0000000180161b60     PhysXFoundation_64:PhysXFoundation_64.dll
 0003:00001b68       __imp_PxGetProfilerCallback 0000000180161b68     PhysXFoundation_64:PhysXFoundation_64.dll
 0003:00001b70       \177PhysXFoundation_64_NULL_THUNK_DATA_DLA 0000000180161b70     PhysXFoundation_64:PhysXFoundation_64.dll
 0003:00002910       ?boxVertexTable@physx@@3QBT__m128@@B 0000000180162910     GuConvexSupportTable.obj
 0003:00004460       __hmod__PhysXFoundation_64_dll 0000000180164460     PhysXFoundation_64:PhysXFoundation_64.dll
 0003:00004468       ?DloadKernel32@@3PEAUHINSTANCE__@@EA 0000000180164468     Delayimp:delayhlp.obj
 0003:00004470       ?DloadAcquireSRWLockExclusive@@3P6AXPEA_K@ZEA 0000000180164470     Delayimp:delayhlp.obj
 0003:00004478       ?DloadReleaseSRWLockExclusive@@3P6AXPEA_K@ZEA 0000000180164478     Delayimp:delayhlp.obj
 0003:00004480       ?DloadSrwLock@@3_KA        0000000180164480     Delayimp:delayhlp.obj
 0003:00004488       ?DloadSectionLockCount@@3KA 0000000180164488     Delayimp:delayhlp.obj
 0003:0000448c       ?DloadSectionOldProtection@@3KA 000000018016448c     Delayimp:delayhlp.obj
 0003:00004490       ?DloadSectionCommitPermanent@@3KA 0000000180164490     Delayimp:delayhlp.obj
 0003:000044a0       ?__type_info_root_node@@3U__type_info_node@@A 00000001801644a0     LIBCMT:tncleanup.obj
 0003:000044b4       __favor                    00000001801644b4     LIBCMT:cpu_disp.obj
 0003:000044b8       ?_OptionsStorage@?1??__local_stdio_printf_options@@9@4_KA 00000001801644b8     LIBCMT:default_local_stdio_options.obj
 0003:000044c0       ?_OptionsStorage@?1??__local_stdio_scanf_options@@9@4_KA 00000001801644c0     LIBCMT:default_local_stdio_options.obj
 0003:000044c8       __scrt_current_native_startup_state 00000001801644c8     LIBCMT:utility.obj
 0003:000044d0       __scrt_native_startup_lock 00000001801644d0     LIBCMT:utility.obj
 0003:00004510       __scrt_debugger_hook_flag  0000000180164510     LIBCMT:utility_desktop.obj
 0003:00004518       ?__WinRTOutOfMemoryExceptionCallback@@3P6APEAXXZEA 0000000180164518     libvcruntime:ehhelpers.obj
 0003:00004520       __pPurecall                0000000180164520     libvcruntime:purevirt_data.obj
 0003:00004528       ?pArgList@UnDecorator@@0PEAVReplicator@@EA 0000000180164528     libvcruntime:undname.obj
 0003:00004530       ?pZNameList@UnDecorator@@0PEAVReplicator@@EA 0000000180164530     libvcruntime:undname.obj
 0003:00004538       ?pTemplateArgList@UnDecorator@@0PEAVReplicator@@EA 0000000180164538     libvcruntime:undname.obj
 0003:00004540       ?gName@UnDecorator@@0PEBDEB 0000000180164540     libvcruntime:undname.obj
 0003:00004548       ?name@UnDecorator@@0PEBDEB 0000000180164548     libvcruntime:undname.obj
 0003:00004550       ?disableFlags@UnDecorator@@0KA 0000000180164550     libvcruntime:undname.obj
 0003:00004554       ?fExplicitTemplateParams@UnDecorator@@0_NA 0000000180164554     libvcruntime:undname.obj
 0003:00004555       ?fGetTemplateArgumentList@UnDecorator@@0_NA 0000000180164555     libvcruntime:undname.obj
 0003:00004558       ?m_pGetParameter@UnDecorator@@0P6APEADJ@ZEA 0000000180164558     libvcruntime:undname.obj
 0003:00004560       ?m_CHPENameOffset@UnDecorator@@0KA 0000000180164560     libvcruntime:undname.obj
 0003:00004564       ?m_recursionLevel@UnDecorator@@0KA 0000000180164564     libvcruntime:undname.obj
 0003:00004690       ?c_exit_complete@?1???R<lambda_6e4b09c48022b2350581041d5f6b0c4c>@@QEBA@XZ@4_NA 0000000180164690     libucrt:exit.obj
 0003:000047a8       _environ_table             00000001801647a8     libucrt:environment_initialization.obj
 0003:000047b0       _wenviron_table            00000001801647b0     libucrt:environment_initialization.obj
 0003:000047b8       __dcrt_initial_wide_environment 00000001801647b8     libucrt:environment_initialization.obj
 0003:000047c0       __dcrt_initial_narrow_environment 00000001801647c0     libucrt:environment_initialization.obj
 0003:000047c8       __acrt_atexit_table        00000001801647c8     libucrt:onexit.obj
 0003:000047e0       __acrt_at_quick_exit_table 00000001801647e0     libucrt:onexit.obj
 0003:000047f8       __fma3_is_available        00000001801647f8     libucrt:fma3_available.obj
 0003:000047fc       __use_fma3_lib             00000001801647fc     libucrt:fma3_available.obj
 0003:00004a40       _mbctype                   0000000180164a40     libucrt:mbctype.obj
 0003:00004a48       _mbcasemap                 0000000180164a48     libucrt:mbctype.obj
 0003:00004a50       __acrt_current_multibyte_data 0000000180164a50     libucrt:mbctype.obj
 0003:00004a60       _pgmptr                    0000000180164a60     libucrt:argv_data.obj
 0003:00004a68       __argc                     0000000180164a68     libucrt:argv_data.obj
 0003:00004a70       __argv                     0000000180164a70     libucrt:argv_data.obj
 0003:00004a78       __wargv                    0000000180164a78     libucrt:argv_data.obj
 0003:00004a80       _acmdln                    0000000180164a80     libucrt:argv_data.obj
 0003:00004a88       _wcmdln                    0000000180164a88     libucrt:argv_data.obj
 0003:00004c40       __acrt_heap                0000000180164c40     libucrt:heap_handle.obj
 0003:00004c50       __pioinfo                  0000000180164c50     libucrt:ioinit.obj
 0003:00005050       _nhandle                   0000000180165050     libucrt:ioinit.obj
 0003:00005088       __acrt_current_locale_data 0000000180165088     libucrt:nlsdata.obj
 0003:00005090       _nstream                   0000000180165090     libucrt:_file.obj
 0003:00005098       __piob                     0000000180165098     libucrt:_file.obj
 0003:000050a0       __acrt_stdout_buffer       00000001801650a0     libucrt:_sftbuf.obj
 0003:000050a8       __acrt_stderr_buffer       00000001801650a8     libucrt:_sftbuf.obj
 0003:000050c0       __acrt_locale_changed_data 00000001801650c0     libucrt:wsetlocale.obj
 0003:000050c8       __acrt_lconv_static_null   00000001801650c8     libucrt:localeconv.obj
 0003:000050cc       __acrt_lconv_static_W_null 00000001801650cc     libucrt:localeconv.obj
 0003:00005650       __scrt_ucrt_dll_is_in_use  0000000180165650     <common>
 0003:00005658       __dyn_tls_init_callback    0000000180165658     <common>
 0005:00000100       __common_ssin_reduction_data 000000018016d100     LIBCMT:svml_s_sin_data.obj
 0005:00000d00       __common_ssin_data         000000018016dd00     LIBCMT:svml_s_sin_data.obj

 entry point at        0001:001196e8

 Static symbols

 0000:ffe8d000       .debug$S                   0000000180000000     PhysXCommon_64.exp
 0000:ffe8d000       .debug$S                   0000000180000000     kernel32:KERNEL32.dll
 0000:ffe8d000       .debug$S                   0000000180000000     kernel32:KERNEL32.dll
 0000:ffe8d000       .debug$S                   0000000180000000     kernel32:KERNEL32.dll
 0000:ffe8d000       .debug$S                   0000000180000000     kernel32:KERNEL32.dll
 0000:ffe8d000       .debug$S                   0000000180000000     kernel32:KERNEL32.dll
 0000:ffe8d000       .debug$S                   0000000180000000     kernel32:KERNEL32.dll
 0000:ffe8d000       .debug$S                   0000000180000000     kernel32:KERNEL32.dll
 0000:ffe8d000       .debug$S                   0000000180000000     kernel32:KERNEL32.dll
 0000:ffe8d000       .debug$S                   0000000180000000     kernel32:KERNEL32.dll
 0000:ffe8d000       .debug$S                   0000000180000000     kernel32:KERNEL32.dll
 0000:ffe8d000       .debug$S                   0000000180000000     kernel32:KERNEL32.dll
 0000:ffe8d000       .debug$S                   0000000180000000     kernel32:KERNEL32.dll
 0000:ffe8d000       .debug$S                   0000000180000000     kernel32:KERNEL32.dll
 0000:ffe8d000       .debug$S                   0000000180000000     kernel32:KERNEL32.dll
 0000:ffe8d000       .debug$S                   0000000180000000     kernel32:KERNEL32.dll
 0000:ffe8d000       .debug$S                   0000000180000000     kernel32:KERNEL32.dll
 0000:ffe8d000       .debug$S                   0000000180000000     kernel32:KERNEL32.dll
 0000:ffe8d000       .debug$S                   0000000180000000     kernel32:KERNEL32.dll
 0000:ffe8d000       .debug$S                   0000000180000000     kernel32:KERNEL32.dll
 0000:ffe8d000       .debug$S                   0000000180000000     kernel32:KERNEL32.dll
 0000:ffe8d000       .debug$S                   0000000180000000     kernel32:KERNEL32.dll
 0000:ffe8d000       .debug$S                   0000000180000000     kernel32:KERNEL32.dll
 0000:ffe8d000       .debug$S                   0000000180000000     kernel32:KERNEL32.dll
 0000:ffe8d000       .debug$S                   0000000180000000     kernel32:KERNEL32.dll
 0000:ffe8d000       .debug$S                   0000000180000000     kernel32:KERNEL32.dll
 0000:ffe8d000       .debug$S                   0000000180000000     kernel32:KERNEL32.dll
 0000:ffe8d000       .debug$S                   0000000180000000     kernel32:KERNEL32.dll
 0000:ffe8d000       .debug$S                   0000000180000000     kernel32:KERNEL32.dll
 0000:ffe8d000       .debug$S                   0000000180000000     kernel32:KERNEL32.dll
 0000:ffe8d000       .debug$S                   0000000180000000     kernel32:KERNEL32.dll
 0000:ffe8d000       .debug$S                   0000000180000000     kernel32:KERNEL32.dll
 0000:ffe8d000       .debug$S                   0000000180000000     kernel32:KERNEL32.dll
 0000:ffe8d000       .debug$S                   0000000180000000     kernel32:KERNEL32.dll
 0000:ffe8d000       .debug$S                   0000000180000000     kernel32:KERNEL32.dll
 0000:ffe8d000       .debug$S                   0000000180000000     kernel32:KERNEL32.dll
 0000:ffe8d000       .debug$S                   0000000180000000     kernel32:KERNEL32.dll
 0000:ffe8d000       .debug$S                   0000000180000000     kernel32:KERNEL32.dll
 0000:ffe8d000       .debug$S                   0000000180000000     kernel32:KERNEL32.dll
 0000:ffe8d000       .debug$S                   0000000180000000     kernel32:KERNEL32.dll
 0000:ffe8d000       .debug$S                   0000000180000000     kernel32:KERNEL32.dll
 0000:ffe8d000       .debug$S                   0000000180000000     kernel32:KERNEL32.dll
 0000:ffe8d000       .debug$S                   0000000180000000     kernel32:KERNEL32.dll
 0000:ffe8d000       .debug$S                   0000000180000000     kernel32:KERNEL32.dll
 0000:ffe8d000       .debug$S                   0000000180000000     kernel32:KERNEL32.dll
 0000:ffe8d000       .debug$S                   0000000180000000     kernel32:KERNEL32.dll
 0000:ffe8d000       .debug$S                   0000000180000000     kernel32:KERNEL32.dll
 0000:ffe8d000       .debug$S                   0000000180000000     kernel32:KERNEL32.dll
 0000:ffe8d000       .debug$S                   0000000180000000     kernel32:KERNEL32.dll
 0000:ffe8d000       .debug$S                   0000000180000000     kernel32:KERNEL32.dll
 0000:ffe8d000       .debug$S                   0000000180000000     kernel32:KERNEL32.dll
 0000:ffe8d000       .debug$S                   0000000180000000     kernel32:KERNEL32.dll
 0000:ffe8d000       .debug$S                   0000000180000000     kernel32:KERNEL32.dll
 0000:ffe8d000       .debug$S                   0000000180000000     kernel32:KERNEL32.dll
 0000:ffe8d000       .debug$S                   0000000180000000     kernel32:KERNEL32.dll
 0000:ffe8d000       .debug$S                   0000000180000000     kernel32:KERNEL32.dll
 0000:ffe8d000       .debug$S                   0000000180000000     kernel32:KERNEL32.dll
 0000:ffe8d000       .debug$S                   0000000180000000     kernel32:KERNEL32.dll
 0000:ffe8d000       .debug$S                   0000000180000000     kernel32:KERNEL32.dll
 0000:ffe8d000       .debug$S                   0000000180000000     kernel32:KERNEL32.dll
 0000:ffe8d000       .debug$S                   0000000180000000     kernel32:KERNEL32.dll
 0000:ffe8d000       .debug$S                   0000000180000000     kernel32:KERNEL32.dll
 0000:ffe8d000       .debug$S                   0000000180000000     kernel32:KERNEL32.dll
 0000:ffe8d000       .debug$S                   0000000180000000     kernel32:KERNEL32.dll
 0000:ffe8d000       .debug$S                   0000000180000000     kernel32:KERNEL32.dll
 0000:ffe8d000       .debug$S                   0000000180000000     kernel32:KERNEL32.dll
 0000:ffe8d000       .debug$S                   0000000180000000     kernel32:KERNEL32.dll
 0000:ffe8d000       .debug$S                   0000000180000000     kernel32:KERNEL32.dll
 0000:ffe8d000       .debug$S                   0000000180000000     kernel32:KERNEL32.dll
 0000:ffe8d000       .debug$S                   0000000180000000     kernel32:KERNEL32.dll
 0000:ffe8d000       .debug$S                   0000000180000000     kernel32:KERNEL32.dll
 0000:ffe8d000       .debug$S                   0000000180000000     kernel32:KERNEL32.dll
 0000:ffe8d000       .debug$S                   0000000180000000     kernel32:KERNEL32.dll
 0000:ffe8d000       .debug$S                   0000000180000000     kernel32:KERNEL32.dll
 0000:ffe8d000       .debug$S                   0000000180000000     kernel32:KERNEL32.dll
 0000:ffe8d000       .debug$S                   0000000180000000     kernel32:KERNEL32.dll
 0000:ffe8d000       .debug$S                   0000000180000000     kernel32:KERNEL32.dll
 0000:ffe8d000       .debug$S                   0000000180000000     kernel32:KERNEL32.dll
 0000:ffe8d000       .debug$S                   0000000180000000     kernel32:KERNEL32.dll
 0000:ffe8d000       .debug$S                   0000000180000000     kernel32:KERNEL32.dll
 0000:ffe8d000       .debug$S                   0000000180000000     kernel32:KERNEL32.dll
 0000:ffe8d000       .debug$S                   0000000180000000     kernel32:KERNEL32.dll
 0000:ffe8d000       .debug$S                   0000000180000000     kernel32:KERNEL32.dll
 0000:ffe8d000       .debug$S                   0000000180000000     kernel32:KERNEL32.dll
 0000:ffe8d000       .debug$S                   0000000180000000     kernel32:KERNEL32.dll
 0000:ffe8d000       .debug$S                   0000000180000000     kernel32:KERNEL32.dll
 0000:ffe8d000       .debug$S                   0000000180000000     kernel32:KERNEL32.dll
 0000:ffe8d000       .debug$S                   0000000180000000     kernel32:KERNEL32.dll
 0000:ffe8d000       .debug$S                   0000000180000000     kernel32:KERNEL32.dll
 0000:ffe8d000       .debug$S                   0000000180000000     kernel32:KERNEL32.dll
 0000:ffe8d000       .debug$S                   0000000180000000     PhysXFoundation_64:PhysXFoundation_64.dll
 0000:ffe8d000       .debug$S                   0000000180000000     PhysXFoundation_64:PhysXFoundation_64.dll
 0000:ffe8d000       .debug$S                   0000000180000000     PhysXFoundation_64:PhysXFoundation_64.dll
 0000:ffe8d000       .debug$S                   0000000180000000     PhysXFoundation_64:PhysXFoundation_64.dll
 0000:ffe8d000       .debug$S                   0000000180000000     PhysXFoundation_64:PhysXFoundation_64.dll
 0000:ffe8d000       .debug$S                   0000000180000000     PhysXFoundation_64:PhysXFoundation_64.dll
 0000:ffe8d000       .debug$S                   0000000180000000     PhysXFoundation_64:PhysXFoundation_64.dll
 0000:ffe8d000       .debug$S                   0000000180000000     PhysXFoundation_64:PhysXFoundation_64.dll
 0000:ffe8d000       .debug$S                   0000000180000000     PhysXFoundation_64:PhysXFoundation_64.dll
 0000:ffe8d000       .debug$S                   0000000180000000     PhysXFoundation_64:PhysXFoundation_64.dll
 0000:ffe8d000       .debug$S                   0000000180000000     PhysXFoundation_64:PhysXFoundation_64.dll
 0000:ffe8d000       .debug$S                   0000000180000000     PhysXFoundation_64:PhysXFoundation_64.dll
 0000:ffe8d000       .debug$S                   0000000180000000     PhysXFoundation_64:PhysXFoundation_64.dll
 0000:ffe8d000       .debug$S                   0000000180000000     PhysXFoundation_64:PhysXFoundation_64.dll
 0000:ffe8d000       .debug$S                   0000000180000000     PhysXFoundation_64:PhysXFoundation_64.dll
 0000:ffe8d000       .debug$S                   0000000180000000     PhysXFoundation_64:PhysXFoundation_64.dll
 0000:ffe8d000       .debug$S                   0000000180000000     PhysXFoundation_64:PhysXFoundation_64.dll
 0001:00000000       ??__EmaxFError@_VecMathTests@aos@shdfnd@physx@@YAXXZ 0000000180001000 f   GuBounds.obj
 0001:00000010       ??__EmaxV3Error@_VecMathTests@aos@shdfnd@physx@@YAXXZ 0000000180001010 f   GuBounds.obj
 0001:00000020       ??__EmaxV4Error@_VecMathTests@aos@shdfnd@physx@@YAXXZ 0000000180001020 f   GuBounds.obj
 0001:00000030       ??__EminFError@_VecMathTests@aos@shdfnd@physx@@YAXXZ 0000000180001030 f   GuBounds.obj
 0001:00000040       ??__EminV3Error@_VecMathTests@aos@shdfnd@physx@@YAXXZ 0000000180001040 f   GuBounds.obj
 0001:00000050       ??__EminV4Error@_VecMathTests@aos@shdfnd@physx@@YAXXZ 0000000180001050 f   GuBounds.obj
 0001:00000060       ??__EmaxFError@_VecMathTests@aos@shdfnd@physx@@YAXXZ 0000000180001060 f   GuBox.obj
 0001:00000070       ??__EmaxV3Error@_VecMathTests@aos@shdfnd@physx@@YAXXZ 0000000180001070 f   GuBox.obj
 0001:00000080       ??__EmaxV4Error@_VecMathTests@aos@shdfnd@physx@@YAXXZ 0000000180001080 f   GuBox.obj
 0001:00000090       ??__EminFError@_VecMathTests@aos@shdfnd@physx@@YAXXZ 0000000180001090 f   GuBox.obj
 0001:000000a0       ??__EminV3Error@_VecMathTests@aos@shdfnd@physx@@YAXXZ 00000001800010a0 f   GuBox.obj
 0001:000000b0       ??__EminV4Error@_VecMathTests@aos@shdfnd@physx@@YAXXZ 00000001800010b0 f   GuBox.obj
 0001:000000c0       ??__EmaxFError@_VecMathTests@aos@shdfnd@physx@@YAXXZ 00000001800010c0 f   GuCCTSweepTests.obj
 0001:000000d0       ??__EmaxV3Error@_VecMathTests@aos@shdfnd@physx@@YAXXZ 00000001800010d0 f   GuCCTSweepTests.obj
 0001:000000e0       ??__EmaxV4Error@_VecMathTests@aos@shdfnd@physx@@YAXXZ 00000001800010e0 f   GuCCTSweepTests.obj
 0001:000000f0       ??__EminFError@_VecMathTests@aos@shdfnd@physx@@YAXXZ 00000001800010f0 f   GuCCTSweepTests.obj
 0001:00000100       ??__EminV3Error@_VecMathTests@aos@shdfnd@physx@@YAXXZ 0000000180001100 f   GuCCTSweepTests.obj
 0001:00000110       ??__EminV4Error@_VecMathTests@aos@shdfnd@physx@@YAXXZ 0000000180001110 f   GuCCTSweepTests.obj
 0001:00000120       ??__EmaxFError@_VecMathTests@aos@shdfnd@physx@@YAXXZ 0000000180001120 f   GuGeometryQuery.obj
 0001:00000130       ??__EmaxV3Error@_VecMathTests@aos@shdfnd@physx@@YAXXZ 0000000180001130 f   GuGeometryQuery.obj
 0001:00000140       ??__EmaxV4Error@_VecMathTests@aos@shdfnd@physx@@YAXXZ 0000000180001140 f   GuGeometryQuery.obj
 0001:00000150       ??__EminFError@_VecMathTests@aos@shdfnd@physx@@YAXXZ 0000000180001150 f   GuGeometryQuery.obj
 0001:00000160       ??__EminV3Error@_VecMathTests@aos@shdfnd@physx@@YAXXZ 0000000180001160 f   GuGeometryQuery.obj
 0001:00000170       ??__EminV4Error@_VecMathTests@aos@shdfnd@physx@@YAXXZ 0000000180001170 f   GuGeometryQuery.obj
 0001:00000180       ??__EmaxFError@_VecMathTests@aos@shdfnd@physx@@YAXXZ 0000000180001180 f   GuGeometryUnion.obj
 0001:00000190       ??__EmaxV3Error@_VecMathTests@aos@shdfnd@physx@@YAXXZ 0000000180001190 f   GuGeometryUnion.obj
 0001:000001a0       ??__EmaxV4Error@_VecMathTests@aos@shdfnd@physx@@YAXXZ 00000001800011a0 f   GuGeometryUnion.obj
 0001:000001b0       ??__EminFError@_VecMathTests@aos@shdfnd@physx@@YAXXZ 00000001800011b0 f   GuGeometryUnion.obj
 0001:000001c0       ??__EminV3Error@_VecMathTests@aos@shdfnd@physx@@YAXXZ 00000001800011c0 f   GuGeometryUnion.obj
 0001:000001d0       ??__EminV4Error@_VecMathTests@aos@shdfnd@physx@@YAXXZ 00000001800011d0 f   GuGeometryUnion.obj
 0001:000001e0       ??__EmaxFError@_VecMathTests@aos@shdfnd@physx@@YAXXZ 00000001800011e0 f   GuInternal.obj
 0001:000001f0       ??__EmaxV3Error@_VecMathTests@aos@shdfnd@physx@@YAXXZ 00000001800011f0 f   GuInternal.obj
 0001:00000200       ??__EmaxV4Error@_VecMathTests@aos@shdfnd@physx@@YAXXZ 0000000180001200 f   GuInternal.obj
 0001:00000210       ??__EminFError@_VecMathTests@aos@shdfnd@physx@@YAXXZ 0000000180001210 f   GuInternal.obj
 0001:00000220       ??__EminV3Error@_VecMathTests@aos@shdfnd@physx@@YAXXZ 0000000180001220 f   GuInternal.obj
 0001:00000230       ??__EminV4Error@_VecMathTests@aos@shdfnd@physx@@YAXXZ 0000000180001230 f   GuInternal.obj
 0001:00000240       ??__EmaxFError@_VecMathTests@aos@shdfnd@physx@@YAXXZ 0000000180001240 f   GuMeshFactory.obj
 0001:00000250       ??__EmaxV3Error@_VecMathTests@aos@shdfnd@physx@@YAXXZ 0000000180001250 f   GuMeshFactory.obj
 0001:00000260       ??__EmaxV4Error@_VecMathTests@aos@shdfnd@physx@@YAXXZ 0000000180001260 f   GuMeshFactory.obj
 0001:00000270       ??__EminFError@_VecMathTests@aos@shdfnd@physx@@YAXXZ 0000000180001270 f   GuMeshFactory.obj
 0001:00000280       ??__EminV3Error@_VecMathTests@aos@shdfnd@physx@@YAXXZ 0000000180001280 f   GuMeshFactory.obj
 0001:00000290       ??__EminV4Error@_VecMathTests@aos@shdfnd@physx@@YAXXZ 0000000180001290 f   GuMeshFactory.obj
 0001:000002a0       ??__EmaxFError@_VecMathTests@aos@shdfnd@physx@@YAXXZ 00000001800012a0 f   GuMetaData.obj
 0001:000002b0       ??__EmaxV3Error@_VecMathTests@aos@shdfnd@physx@@YAXXZ 00000001800012b0 f   GuMetaData.obj
 0001:000002c0       ??__EmaxV4Error@_VecMathTests@aos@shdfnd@physx@@YAXXZ 00000001800012c0 f   GuMetaData.obj
 0001:000002d0       ??__EminFError@_VecMathTests@aos@shdfnd@physx@@YAXXZ 00000001800012d0 f   GuMetaData.obj
 0001:000002e0       ??__EminV3Error@_VecMathTests@aos@shdfnd@physx@@YAXXZ 00000001800012e0 f   GuMetaData.obj
 0001:000002f0       ??__EminV4Error@_VecMathTests@aos@shdfnd@physx@@YAXXZ 00000001800012f0 f   GuMetaData.obj
 0001:00000300       ??__EmaxFError@_VecMathTests@aos@shdfnd@physx@@YAXXZ 0000000180001300 f   GuMTD.obj
 0001:00000310       ??__EmaxV3Error@_VecMathTests@aos@shdfnd@physx@@YAXXZ 0000000180001310 f   GuMTD.obj
 0001:00000320       ??__EmaxV4Error@_VecMathTests@aos@shdfnd@physx@@YAXXZ 0000000180001320 f   GuMTD.obj
 0001:00000330       ??__EminFError@_VecMathTests@aos@shdfnd@physx@@YAXXZ 0000000180001330 f   GuMTD.obj
 0001:00000340       ??__EminV3Error@_VecMathTests@aos@shdfnd@physx@@YAXXZ 0000000180001340 f   GuMTD.obj
 0001:00000350       ??__EminV4Error@_VecMathTests@aos@shdfnd@physx@@YAXXZ 0000000180001350 f   GuMTD.obj
 0001:00000360       ??__EmaxFError@_VecMathTests@aos@shdfnd@physx@@YAXXZ 0000000180001360 f   GuOverlapTests.obj
 0001:00000370       ??__EmaxV3Error@_VecMathTests@aos@shdfnd@physx@@YAXXZ 0000000180001370 f   GuOverlapTests.obj
 0001:00000380       ??__EmaxV4Error@_VecMathTests@aos@shdfnd@physx@@YAXXZ 0000000180001380 f   GuOverlapTests.obj
 0001:00000390       ??__EminFError@_VecMathTests@aos@shdfnd@physx@@YAXXZ 0000000180001390 f   GuOverlapTests.obj
 0001:000003a0       ??__EminV3Error@_VecMathTests@aos@shdfnd@physx@@YAXXZ 00000001800013a0 f   GuOverlapTests.obj
 0001:000003b0       ??__EminV4Error@_VecMathTests@aos@shdfnd@physx@@YAXXZ 00000001800013b0 f   GuOverlapTests.obj
 0001:000003c0       ??__EmaxFError@_VecMathTests@aos@shdfnd@physx@@YAXXZ 00000001800013c0 f   GuRaycastTests.obj
 0001:000003d0       ??__EmaxV3Error@_VecMathTests@aos@shdfnd@physx@@YAXXZ 00000001800013d0 f   GuRaycastTests.obj
 0001:000003e0       ??__EmaxV4Error@_VecMathTests@aos@shdfnd@physx@@YAXXZ 00000001800013e0 f   GuRaycastTests.obj
 0001:000003f0       ??__EminFError@_VecMathTests@aos@shdfnd@physx@@YAXXZ 00000001800013f0 f   GuRaycastTests.obj
 0001:00000400       ??__EminV3Error@_VecMathTests@aos@shdfnd@physx@@YAXXZ 0000000180001400 f   GuRaycastTests.obj
 0001:00000410       ??__EminV4Error@_VecMathTests@aos@shdfnd@physx@@YAXXZ 0000000180001410 f   GuRaycastTests.obj
 0001:00000420       ??__EmaxFError@_VecMathTests@aos@shdfnd@physx@@YAXXZ 0000000180001420 f   GuSweepMTD.obj
 0001:00000430       ??__EmaxV3Error@_VecMathTests@aos@shdfnd@physx@@YAXXZ 0000000180001430 f   GuSweepMTD.obj
 0001:00000440       ??__EmaxV4Error@_VecMathTests@aos@shdfnd@physx@@YAXXZ 0000000180001440 f   GuSweepMTD.obj
 0001:00000450       ??__EminFError@_VecMathTests@aos@shdfnd@physx@@YAXXZ 0000000180001450 f   GuSweepMTD.obj
 0001:00000460       ??__EminV3Error@_VecMathTests@aos@shdfnd@physx@@YAXXZ 0000000180001460 f   GuSweepMTD.obj
 0001:00000470       ??__EminV4Error@_VecMathTests@aos@shdfnd@physx@@YAXXZ 0000000180001470 f   GuSweepMTD.obj
 0001:00000480       ??__EmaxFError@_VecMathTests@aos@shdfnd@physx@@YAXXZ 0000000180001480 f   GuSweepSharedTests.obj
 0001:00000490       ??__EmaxV3Error@_VecMathTests@aos@shdfnd@physx@@YAXXZ 0000000180001490 f   GuSweepSharedTests.obj
 0001:000004a0       ??__EmaxV4Error@_VecMathTests@aos@shdfnd@physx@@YAXXZ 00000001800014a0 f   GuSweepSharedTests.obj
 0001:000004b0       ??__EminFError@_VecMathTests@aos@shdfnd@physx@@YAXXZ 00000001800014b0 f   GuSweepSharedTests.obj
 0001:000004c0       ??__EminV3Error@_VecMathTests@aos@shdfnd@physx@@YAXXZ 00000001800014c0 f   GuSweepSharedTests.obj
 0001:000004d0       ??__EminV4Error@_VecMathTests@aos@shdfnd@physx@@YAXXZ 00000001800014d0 f   GuSweepSharedTests.obj
 0001:000004e0       ??__EmaxFError@_VecMathTests@aos@shdfnd@physx@@YAXXZ 00000001800014e0 f   GuSweepTests.obj
 0001:000004f0       ??__EmaxV3Error@_VecMathTests@aos@shdfnd@physx@@YAXXZ 00000001800014f0 f   GuSweepTests.obj
 0001:00000500       ??__EmaxV4Error@_VecMathTests@aos@shdfnd@physx@@YAXXZ 0000000180001500 f   GuSweepTests.obj
 0001:00000510       ??__EminFError@_VecMathTests@aos@shdfnd@physx@@YAXXZ 0000000180001510 f   GuSweepTests.obj
 0001:00000520       ??__EminV3Error@_VecMathTests@aos@shdfnd@physx@@YAXXZ 0000000180001520 f   GuSweepTests.obj
 0001:00000530       ??__EminV4Error@_VecMathTests@aos@shdfnd@physx@@YAXXZ 0000000180001530 f   GuSweepTests.obj
 0001:00000540       ??__EmaxFError@_VecMathTests@aos@shdfnd@physx@@YAXXZ 0000000180001540 f   GuAABBTreeBuild.obj
 0001:00000550       ??__EmaxV3Error@_VecMathTests@aos@shdfnd@physx@@YAXXZ 0000000180001550 f   GuAABBTreeBuild.obj
 0001:00000560       ??__EmaxV4Error@_VecMathTests@aos@shdfnd@physx@@YAXXZ 0000000180001560 f   GuAABBTreeBuild.obj
 0001:00000570       ??__EminFError@_VecMathTests@aos@shdfnd@physx@@YAXXZ 0000000180001570 f   GuAABBTreeBuild.obj
 0001:00000580       ??__EminV3Error@_VecMathTests@aos@shdfnd@physx@@YAXXZ 0000000180001580 f   GuAABBTreeBuild.obj
 0001:00000590       ??__EminV4Error@_VecMathTests@aos@shdfnd@physx@@YAXXZ 0000000180001590 f   GuAABBTreeBuild.obj
 0001:000005a0       ??__EmaxFError@_VecMathTests@aos@shdfnd@physx@@YAXXZ 00000001800015a0 f   GuBVHStructure.obj
 0001:000005b0       ??__EmaxV3Error@_VecMathTests@aos@shdfnd@physx@@YAXXZ 00000001800015b0 f   GuBVHStructure.obj
 0001:000005c0       ??__EmaxV4Error@_VecMathTests@aos@shdfnd@physx@@YAXXZ 00000001800015c0 f   GuBVHStructure.obj
 0001:000005d0       ??__EminFError@_VecMathTests@aos@shdfnd@physx@@YAXXZ 00000001800015d0 f   GuBVHStructure.obj
 0001:000005e0       ??__EminV3Error@_VecMathTests@aos@shdfnd@physx@@YAXXZ 00000001800015e0 f   GuBVHStructure.obj
 0001:000005f0       ??__EminV4Error@_VecMathTests@aos@shdfnd@physx@@YAXXZ 00000001800015f0 f   GuBVHStructure.obj
 0001:00000600       ??__EmaxFError@_VecMathTests@aos@shdfnd@physx@@YAXXZ 0000000180001600 f   GuCCDSweepConvexMesh.obj
 0001:00000610       ??__EmaxV3Error@_VecMathTests@aos@shdfnd@physx@@YAXXZ 0000000180001610 f   GuCCDSweepConvexMesh.obj
 0001:00000620       ??__EmaxV4Error@_VecMathTests@aos@shdfnd@physx@@YAXXZ 0000000180001620 f   GuCCDSweepConvexMesh.obj
 0001:00000630       ??__EminFError@_VecMathTests@aos@shdfnd@physx@@YAXXZ 0000000180001630 f   GuCCDSweepConvexMesh.obj
 0001:00000640       ??__EminV3Error@_VecMathTests@aos@shdfnd@physx@@YAXXZ 0000000180001640 f   GuCCDSweepConvexMesh.obj
 0001:00000650       ??__EminV4Error@_VecMathTests@aos@shdfnd@physx@@YAXXZ 0000000180001650 f   GuCCDSweepConvexMesh.obj
 0001:00000660       ??__EmaxFError@_VecMathTests@aos@shdfnd@physx@@YAXXZ 0000000180001660 f   GuCCDSweepPrimitives.obj
 0001:00000670       ??__EmaxV3Error@_VecMathTests@aos@shdfnd@physx@@YAXXZ 0000000180001670 f   GuCCDSweepPrimitives.obj
 0001:00000680       ??__EmaxV4Error@_VecMathTests@aos@shdfnd@physx@@YAXXZ 0000000180001680 f   GuCCDSweepPrimitives.obj
 0001:00000690       ??__EminFError@_VecMathTests@aos@shdfnd@physx@@YAXXZ 0000000180001690 f   GuCCDSweepPrimitives.obj
 0001:000006a0       ??__EminV3Error@_VecMathTests@aos@shdfnd@physx@@YAXXZ 00000001800016a0 f   GuCCDSweepPrimitives.obj
 0001:000006b0       ??__EminV4Error@_VecMathTests@aos@shdfnd@physx@@YAXXZ 00000001800016b0 f   GuCCDSweepPrimitives.obj
 0001:000006c0       ??__EmaxFError@_VecMathTests@aos@shdfnd@physx@@YAXXZ 00000001800016c0 f   GuBarycentricCoordinates.obj
 0001:000006d0       ??__EmaxV3Error@_VecMathTests@aos@shdfnd@physx@@YAXXZ 00000001800016d0 f   GuBarycentricCoordinates.obj
 0001:000006e0       ??__EmaxV4Error@_VecMathTests@aos@shdfnd@physx@@YAXXZ 00000001800016e0 f   GuBarycentricCoordinates.obj
 0001:000006f0       ??__EminFError@_VecMathTests@aos@shdfnd@physx@@YAXXZ 00000001800016f0 f   GuBarycentricCoordinates.obj
 0001:00000700       ??__EminV3Error@_VecMathTests@aos@shdfnd@physx@@YAXXZ 0000000180001700 f   GuBarycentricCoordinates.obj
 0001:00000710       ??__EminV4Error@_VecMathTests@aos@shdfnd@physx@@YAXXZ 0000000180001710 f   GuBarycentricCoordinates.obj
 0001:00000720       ??__EmaxFError@_VecMathTests@aos@shdfnd@physx@@YAXXZ 0000000180001720 f   GuContactBoxBox.obj
 0001:00000730       ??__EmaxV3Error@_VecMathTests@aos@shdfnd@physx@@YAXXZ 0000000180001730 f   GuContactBoxBox.obj
 0001:00000740       ??__EmaxV4Error@_VecMathTests@aos@shdfnd@physx@@YAXXZ 0000000180001740 f   GuContactBoxBox.obj
 0001:00000750       ??__EminFError@_VecMathTests@aos@shdfnd@physx@@YAXXZ 0000000180001750 f   GuContactBoxBox.obj
 0001:00000760       ??__EminV3Error@_VecMathTests@aos@shdfnd@physx@@YAXXZ 0000000180001760 f   GuContactBoxBox.obj
 0001:00000770       ??__EminV4Error@_VecMathTests@aos@shdfnd@physx@@YAXXZ 0000000180001770 f   GuContactBoxBox.obj
 0001:00000780       ??__EmaxFError@_VecMathTests@aos@shdfnd@physx@@YAXXZ 0000000180001780 f   GuContactCapsuleBox.obj
 0001:00000790       ??__EmaxV3Error@_VecMathTests@aos@shdfnd@physx@@YAXXZ 0000000180001790 f   GuContactCapsuleBox.obj
 0001:000007a0       ??__EmaxV4Error@_VecMathTests@aos@shdfnd@physx@@YAXXZ 00000001800017a0 f   GuContactCapsuleBox.obj
 0001:000007b0       ??__EminFError@_VecMathTests@aos@shdfnd@physx@@YAXXZ 00000001800017b0 f   GuContactCapsuleBox.obj
 0001:000007c0       ??__EminV3Error@_VecMathTests@aos@shdfnd@physx@@YAXXZ 00000001800017c0 f   GuContactCapsuleBox.obj
 0001:000007d0       ??__EminV4Error@_VecMathTests@aos@shdfnd@physx@@YAXXZ 00000001800017d0 f   GuContactCapsuleBox.obj
 0001:000007e0       ??__EmaxFError@_VecMathTests@aos@shdfnd@physx@@YAXXZ 00000001800017e0 f   GuContactCapsuleCapsule.obj
 0001:000007f0       ??__EmaxV3Error@_VecMathTests@aos@shdfnd@physx@@YAXXZ 00000001800017f0 f   GuContactCapsuleCapsule.obj
 0001:00000800       ??__EmaxV4Error@_VecMathTests@aos@shdfnd@physx@@YAXXZ 0000000180001800 f   GuContactCapsuleCapsule.obj
 0001:00000810       ??__EminFError@_VecMathTests@aos@shdfnd@physx@@YAXXZ 0000000180001810 f   GuContactCapsuleCapsule.obj
 0001:00000820       ??__EminV3Error@_VecMathTests@aos@shdfnd@physx@@YAXXZ 0000000180001820 f   GuContactCapsuleCapsule.obj
 0001:00000830       ??__EminV4Error@_VecMathTests@aos@shdfnd@physx@@YAXXZ 0000000180001830 f   GuContactCapsuleCapsule.obj
 0001:00000840       ??__EmaxFError@_VecMathTests@aos@shdfnd@physx@@YAXXZ 0000000180001840 f   GuContactCapsuleConvex.obj
 0001:00000850       ??__EmaxV3Error@_VecMathTests@aos@shdfnd@physx@@YAXXZ 0000000180001850 f   GuContactCapsuleConvex.obj
 0001:00000860       ??__EmaxV4Error@_VecMathTests@aos@shdfnd@physx@@YAXXZ 0000000180001860 f   GuContactCapsuleConvex.obj
 0001:00000870       ??__EminFError@_VecMathTests@aos@shdfnd@physx@@YAXXZ 0000000180001870 f   GuContactCapsuleConvex.obj
 0001:00000880       ??__EminV3Error@_VecMathTests@aos@shdfnd@physx@@YAXXZ 0000000180001880 f   GuContactCapsuleConvex.obj
 0001:00000890       ??__EminV4Error@_VecMathTests@aos@shdfnd@physx@@YAXXZ 0000000180001890 f   GuContactCapsuleConvex.obj
 0001:000008a0       ??__EmaxFError@_VecMathTests@aos@shdfnd@physx@@YAXXZ 00000001800018a0 f   GuContactCapsuleMesh.obj
 0001:000008b0       ??__EmaxV3Error@_VecMathTests@aos@shdfnd@physx@@YAXXZ 00000001800018b0 f   GuContactCapsuleMesh.obj
 0001:000008c0       ??__EmaxV4Error@_VecMathTests@aos@shdfnd@physx@@YAXXZ 00000001800018c0 f   GuContactCapsuleMesh.obj
 0001:000008d0       ??__EminFError@_VecMathTests@aos@shdfnd@physx@@YAXXZ 00000001800018d0 f   GuContactCapsuleMesh.obj
 0001:000008e0       ??__EminV3Error@_VecMathTests@aos@shdfnd@physx@@YAXXZ 00000001800018e0 f   GuContactCapsuleMesh.obj
 0001:000008f0       ??__EminV4Error@_VecMathTests@aos@shdfnd@physx@@YAXXZ 00000001800018f0 f   GuContactCapsuleMesh.obj
 0001:00000900       ??__EmaxFError@_VecMathTests@aos@shdfnd@physx@@YAXXZ 0000000180001900 f   GuContactConvexConvex.obj
 0001:00000910       ??__EmaxV3Error@_VecMathTests@aos@shdfnd@physx@@YAXXZ 0000000180001910 f   GuContactConvexConvex.obj
 0001:00000920       ??__EmaxV4Error@_VecMathTests@aos@shdfnd@physx@@YAXXZ 0000000180001920 f   GuContactConvexConvex.obj
 0001:00000930       ??__EminFError@_VecMathTests@aos@shdfnd@physx@@YAXXZ 0000000180001930 f   GuContactConvexConvex.obj
 0001:00000940       ??__EminV3Error@_VecMathTests@aos@shdfnd@physx@@YAXXZ 0000000180001940 f   GuContactConvexConvex.obj
 0001:00000950       ??__EminV4Error@_VecMathTests@aos@shdfnd@physx@@YAXXZ 0000000180001950 f   GuContactConvexConvex.obj
 0001:00000960       ??__EmaxFError@_VecMathTests@aos@shdfnd@physx@@YAXXZ 0000000180001960 f   GuContactConvexMesh.obj
 0001:00000970       ??__EmaxV3Error@_VecMathTests@aos@shdfnd@physx@@YAXXZ 0000000180001970 f   GuContactConvexMesh.obj
 0001:00000980       ??__EmaxV4Error@_VecMathTests@aos@shdfnd@physx@@YAXXZ 0000000180001980 f   GuContactConvexMesh.obj
 0001:00000990       ??__EminFError@_VecMathTests@aos@shdfnd@physx@@YAXXZ 0000000180001990 f   GuContactConvexMesh.obj
 0001:000009a0       ??__EminV3Error@_VecMathTests@aos@shdfnd@physx@@YAXXZ 00000001800019a0 f   GuContactConvexMesh.obj
 0001:000009b0       ??__EminV4Error@_VecMathTests@aos@shdfnd@physx@@YAXXZ 00000001800019b0 f   GuContactConvexMesh.obj
 0001:000009c0       ??__EmaxFError@_VecMathTests@aos@shdfnd@physx@@YAXXZ 00000001800019c0 f   GuContactPlaneBox.obj
 0001:000009d0       ??__EmaxV3Error@_VecMathTests@aos@shdfnd@physx@@YAXXZ 00000001800019d0 f   GuContactPlaneBox.obj
 0001:000009e0       ??__EmaxV4Error@_VecMathTests@aos@shdfnd@physx@@YAXXZ 00000001800019e0 f   GuContactPlaneBox.obj
 0001:000009f0       ??__EminFError@_VecMathTests@aos@shdfnd@physx@@YAXXZ 00000001800019f0 f   GuContactPlaneBox.obj
 0001:00000a00       ??__EminV3Error@_VecMathTests@aos@shdfnd@physx@@YAXXZ 0000000180001a00 f   GuContactPlaneBox.obj
 0001:00000a10       ??__EminV4Error@_VecMathTests@aos@shdfnd@physx@@YAXXZ 0000000180001a10 f   GuContactPlaneBox.obj
 0001:00000a20       ??__EmaxFError@_VecMathTests@aos@shdfnd@physx@@YAXXZ 0000000180001a20 f   GuContactPlaneCapsule.obj
 0001:00000a30       ??__EmaxV3Error@_VecMathTests@aos@shdfnd@physx@@YAXXZ 0000000180001a30 f   GuContactPlaneCapsule.obj
 0001:00000a40       ??__EmaxV4Error@_VecMathTests@aos@shdfnd@physx@@YAXXZ 0000000180001a40 f   GuContactPlaneCapsule.obj
 0001:00000a50       ??__EminFError@_VecMathTests@aos@shdfnd@physx@@YAXXZ 0000000180001a50 f   GuContactPlaneCapsule.obj
 0001:00000a60       ??__EminV3Error@_VecMathTests@aos@shdfnd@physx@@YAXXZ 0000000180001a60 f   GuContactPlaneCapsule.obj
 0001:00000a70       ??__EminV4Error@_VecMathTests@aos@shdfnd@physx@@YAXXZ 0000000180001a70 f   GuContactPlaneCapsule.obj
 0001:00000a80       ??__EmaxFError@_VecMathTests@aos@shdfnd@physx@@YAXXZ 0000000180001a80 f   GuContactPlaneConvex.obj
 0001:00000a90       ??__EmaxV3Error@_VecMathTests@aos@shdfnd@physx@@YAXXZ 0000000180001a90 f   GuContactPlaneConvex.obj
 0001:00000aa0       ??__EmaxV4Error@_VecMathTests@aos@shdfnd@physx@@YAXXZ 0000000180001aa0 f   GuContactPlaneConvex.obj
 0001:00000ab0       ??__EminFError@_VecMathTests@aos@shdfnd@physx@@YAXXZ 0000000180001ab0 f   GuContactPlaneConvex.obj
 0001:00000ac0       ??__EminV3Error@_VecMathTests@aos@shdfnd@physx@@YAXXZ 0000000180001ac0 f   GuContactPlaneConvex.obj
 0001:00000ad0       ??__EminV4Error@_VecMathTests@aos@shdfnd@physx@@YAXXZ 0000000180001ad0 f   GuContactPlaneConvex.obj
 0001:00000ae0       ??__EmaxFError@_VecMathTests@aos@shdfnd@physx@@YAXXZ 0000000180001ae0 f   GuContactSphereBox.obj
 0001:00000af0       ??__EmaxV3Error@_VecMathTests@aos@shdfnd@physx@@YAXXZ 0000000180001af0 f   GuContactSphereBox.obj
 0001:00000b00       ??__EmaxV4Error@_VecMathTests@aos@shdfnd@physx@@YAXXZ 0000000180001b00 f   GuContactSphereBox.obj
 0001:00000b10       ??__EminFError@_VecMathTests@aos@shdfnd@physx@@YAXXZ 0000000180001b10 f   GuContactSphereBox.obj
 0001:00000b20       ??__EminV3Error@_VecMathTests@aos@shdfnd@physx@@YAXXZ 0000000180001b20 f   GuContactSphereBox.obj
 0001:00000b30       ??__EminV4Error@_VecMathTests@aos@shdfnd@physx@@YAXXZ 0000000180001b30 f   GuContactSphereBox.obj
 0001:00000b40       ??__EmaxFError@_VecMathTests@aos@shdfnd@physx@@YAXXZ 0000000180001b40 f   GuContactSphereCapsule.obj
 0001:00000b50       ??__EmaxV3Error@_VecMathTests@aos@shdfnd@physx@@YAXXZ 0000000180001b50 f   GuContactSphereCapsule.obj
 0001:00000b60       ??__EmaxV4Error@_VecMathTests@aos@shdfnd@physx@@YAXXZ 0000000180001b60 f   GuContactSphereCapsule.obj
 0001:00000b70       ??__EminFError@_VecMathTests@aos@shdfnd@physx@@YAXXZ 0000000180001b70 f   GuContactSphereCapsule.obj
 0001:00000b80       ??__EminV3Error@_VecMathTests@aos@shdfnd@physx@@YAXXZ 0000000180001b80 f   GuContactSphereCapsule.obj
 0001:00000b90       ??__EminV4Error@_VecMathTests@aos@shdfnd@physx@@YAXXZ 0000000180001b90 f   GuContactSphereCapsule.obj
 0001:00000ba0       ??__EmaxFError@_VecMathTests@aos@shdfnd@physx@@YAXXZ 0000000180001ba0 f   GuContactSphereMesh.obj
 0001:00000bb0       ??__EmaxV3Error@_VecMathTests@aos@shdfnd@physx@@YAXXZ 0000000180001bb0 f   GuContactSphereMesh.obj
 0001:00000bc0       ??__EmaxV4Error@_VecMathTests@aos@shdfnd@physx@@YAXXZ 0000000180001bc0 f   GuContactSphereMesh.obj
 0001:00000bd0       ??__EminFError@_VecMathTests@aos@shdfnd@physx@@YAXXZ 0000000180001bd0 f   GuContactSphereMesh.obj
 0001:00000be0       ??__EminV3Error@_VecMathTests@aos@shdfnd@physx@@YAXXZ 0000000180001be0 f   GuContactSphereMesh.obj
 0001:00000bf0       ??__EminV4Error@_VecMathTests@aos@shdfnd@physx@@YAXXZ 0000000180001bf0 f   GuContactSphereMesh.obj
 0001:00000c00       ??__EmaxFError@_VecMathTests@aos@shdfnd@physx@@YAXXZ 0000000180001c00 f   GuContactSpherePlane.obj
 0001:00000c10       ??__EmaxV3Error@_VecMathTests@aos@shdfnd@physx@@YAXXZ 0000000180001c10 f   GuContactSpherePlane.obj
 0001:00000c20       ??__EmaxV4Error@_VecMathTests@aos@shdfnd@physx@@YAXXZ 0000000180001c20 f   GuContactSpherePlane.obj
 0001:00000c30       ??__EminFError@_VecMathTests@aos@shdfnd@physx@@YAXXZ 0000000180001c30 f   GuContactSpherePlane.obj
 0001:00000c40       ??__EminV3Error@_VecMathTests@aos@shdfnd@physx@@YAXXZ 0000000180001c40 f   GuContactSpherePlane.obj
 0001:00000c50       ??__EminV4Error@_VecMathTests@aos@shdfnd@physx@@YAXXZ 0000000180001c50 f   GuContactSpherePlane.obj
 0001:00000c60       ??__EmaxFError@_VecMathTests@aos@shdfnd@physx@@YAXXZ 0000000180001c60 f   GuContactSphereSphere.obj
 0001:00000c70       ??__EmaxV3Error@_VecMathTests@aos@shdfnd@physx@@YAXXZ 0000000180001c70 f   GuContactSphereSphere.obj
 0001:00000c80       ??__EmaxV4Error@_VecMathTests@aos@shdfnd@physx@@YAXXZ 0000000180001c80 f   GuContactSphereSphere.obj
 0001:00000c90       ??__EminFError@_VecMathTests@aos@shdfnd@physx@@YAXXZ 0000000180001c90 f   GuContactSphereSphere.obj
 0001:00000ca0       ??__EminV3Error@_VecMathTests@aos@shdfnd@physx@@YAXXZ 0000000180001ca0 f   GuContactSphereSphere.obj
 0001:00000cb0       ??__EminV4Error@_VecMathTests@aos@shdfnd@physx@@YAXXZ 0000000180001cb0 f   GuContactSphereSphere.obj
 0001:00000cc0       ??__EmaxFError@_VecMathTests@aos@shdfnd@physx@@YAXXZ 0000000180001cc0 f   GuConvexHelper.obj
 0001:00000cd0       ??__EmaxV3Error@_VecMathTests@aos@shdfnd@physx@@YAXXZ 0000000180001cd0 f   GuConvexHelper.obj
 0001:00000ce0       ??__EmaxV4Error@_VecMathTests@aos@shdfnd@physx@@YAXXZ 0000000180001ce0 f   GuConvexHelper.obj
 0001:00000cf0       ??__EminFError@_VecMathTests@aos@shdfnd@physx@@YAXXZ 0000000180001cf0 f   GuConvexHelper.obj
 0001:00000d00       ??__EminV3Error@_VecMathTests@aos@shdfnd@physx@@YAXXZ 0000000180001d00 f   GuConvexHelper.obj
 0001:00000d10       ??__EminV4Error@_VecMathTests@aos@shdfnd@physx@@YAXXZ 0000000180001d10 f   GuConvexHelper.obj
 0001:00000d20       ??__EboxVertexTable@physx@@YAXXZ 0000000180001d20 f   GuConvexSupportTable.obj
 0001:00000da0       ??__EmaxFError@_VecMathTests@aos@shdfnd@physx@@YAXXZ 0000000180001da0 f   GuConvexSupportTable.obj
 0001:00000db0       ??__EmaxV3Error@_VecMathTests@aos@shdfnd@physx@@YAXXZ 0000000180001db0 f   GuConvexSupportTable.obj
 0001:00000dc0       ??__EmaxV4Error@_VecMathTests@aos@shdfnd@physx@@YAXXZ 0000000180001dc0 f   GuConvexSupportTable.obj
 0001:00000dd0       ??__EminFError@_VecMathTests@aos@shdfnd@physx@@YAXXZ 0000000180001dd0 f   GuConvexSupportTable.obj
 0001:00000de0       ??__EminV3Error@_VecMathTests@aos@shdfnd@physx@@YAXXZ 0000000180001de0 f   GuConvexSupportTable.obj
 0001:00000df0       ??__EminV4Error@_VecMathTests@aos@shdfnd@physx@@YAXXZ 0000000180001df0 f   GuConvexSupportTable.obj
 0001:00000e00       ??__EmaxFError@_VecMathTests@aos@shdfnd@physx@@YAXXZ 0000000180001e00 f   GuConvexUtilsInternal.obj
 0001:00000e10       ??__EmaxV3Error@_VecMathTests@aos@shdfnd@physx@@YAXXZ 0000000180001e10 f   GuConvexUtilsInternal.obj
 0001:00000e20       ??__EmaxV4Error@_VecMathTests@aos@shdfnd@physx@@YAXXZ 0000000180001e20 f   GuConvexUtilsInternal.obj
 0001:00000e30       ??__EminFError@_VecMathTests@aos@shdfnd@physx@@YAXXZ 0000000180001e30 f   GuConvexUtilsInternal.obj
 0001:00000e40       ??__EminV3Error@_VecMathTests@aos@shdfnd@physx@@YAXXZ 0000000180001e40 f   GuConvexUtilsInternal.obj
 0001:00000e50       ??__EminV4Error@_VecMathTests@aos@shdfnd@physx@@YAXXZ 0000000180001e50 f   GuConvexUtilsInternal.obj
 0001:00000e60       ??__EmaxFError@_VecMathTests@aos@shdfnd@physx@@YAXXZ 0000000180001e60 f   GuDistancePointTriangle.obj
 0001:00000e70       ??__EmaxV3Error@_VecMathTests@aos@shdfnd@physx@@YAXXZ 0000000180001e70 f   GuDistancePointTriangle.obj
 0001:00000e80       ??__EmaxV4Error@_VecMathTests@aos@shdfnd@physx@@YAXXZ 0000000180001e80 f   GuDistancePointTriangle.obj
 0001:00000e90       ??__EminFError@_VecMathTests@aos@shdfnd@physx@@YAXXZ 0000000180001e90 f   GuDistancePointTriangle.obj
 0001:00000ea0       ??__EminV3Error@_VecMathTests@aos@shdfnd@physx@@YAXXZ 0000000180001ea0 f   GuDistancePointTriangle.obj
 0001:00000eb0       ??__EminV4Error@_VecMathTests@aos@shdfnd@physx@@YAXXZ 0000000180001eb0 f   GuDistancePointTriangle.obj
 0001:00000ec0       ??__EmaxFError@_VecMathTests@aos@shdfnd@physx@@YAXXZ 0000000180001ec0 f   GuDistanceSegmentSegment.obj
 0001:00000ed0       ??__EmaxV3Error@_VecMathTests@aos@shdfnd@physx@@YAXXZ 0000000180001ed0 f   GuDistanceSegmentSegment.obj
 0001:00000ee0       ??__EmaxV4Error@_VecMathTests@aos@shdfnd@physx@@YAXXZ 0000000180001ee0 f   GuDistanceSegmentSegment.obj
 0001:00000ef0       ??__EminFError@_VecMathTests@aos@shdfnd@physx@@YAXXZ 0000000180001ef0 f   GuDistanceSegmentSegment.obj
 0001:00000f00       ??__EminV3Error@_VecMathTests@aos@shdfnd@physx@@YAXXZ 0000000180001f00 f   GuDistanceSegmentSegment.obj
 0001:00000f10       ??__EminV4Error@_VecMathTests@aos@shdfnd@physx@@YAXXZ 0000000180001f10 f   GuDistanceSegmentSegment.obj
 0001:00000f20       ??__EmaxFError@_VecMathTests@aos@shdfnd@physx@@YAXXZ 0000000180001f20 f   GuDistanceSegmentTriangle.obj
 0001:00000f30       ??__EmaxV3Error@_VecMathTests@aos@shdfnd@physx@@YAXXZ 0000000180001f30 f   GuDistanceSegmentTriangle.obj
 0001:00000f40       ??__EmaxV4Error@_VecMathTests@aos@shdfnd@physx@@YAXXZ 0000000180001f40 f   GuDistanceSegmentTriangle.obj
 0001:00000f50       ??__EminFError@_VecMathTests@aos@shdfnd@physx@@YAXXZ 0000000180001f50 f   GuDistanceSegmentTriangle.obj
 0001:00000f60       ??__EminV3Error@_VecMathTests@aos@shdfnd@physx@@YAXXZ 0000000180001f60 f   GuDistanceSegmentTriangle.obj
 0001:00000f70       ??__EminV4Error@_VecMathTests@aos@shdfnd@physx@@YAXXZ 0000000180001f70 f   GuDistanceSegmentTriangle.obj
 0001:00000f80       ??__EmaxFError@_VecMathTests@aos@shdfnd@physx@@YAXXZ 0000000180001f80 f   GuEPA.obj
 0001:00000f90       ??__EmaxV3Error@_VecMathTests@aos@shdfnd@physx@@YAXXZ 0000000180001f90 f   GuEPA.obj
 0001:00000fa0       ??__EmaxV4Error@_VecMathTests@aos@shdfnd@physx@@YAXXZ 0000000180001fa0 f   GuEPA.obj
 0001:00000fb0       ??__EminFError@_VecMathTests@aos@shdfnd@physx@@YAXXZ 0000000180001fb0 f   GuEPA.obj
 0001:00000fc0       ??__EminV3Error@_VecMathTests@aos@shdfnd@physx@@YAXXZ 0000000180001fc0 f   GuEPA.obj
 0001:00000fd0       ??__EminV4Error@_VecMathTests@aos@shdfnd@physx@@YAXXZ 0000000180001fd0 f   GuEPA.obj
 0001:00000fe0       ??__EmaxFError@_VecMathTests@aos@shdfnd@physx@@YAXXZ 0000000180001fe0 f   GuGJKSimplex.obj
 0001:00000ff0       ??__EmaxV3Error@_VecMathTests@aos@shdfnd@physx@@YAXXZ 0000000180001ff0 f   GuGJKSimplex.obj
 0001:00001000       ??__EmaxV4Error@_VecMathTests@aos@shdfnd@physx@@YAXXZ 0000000180002000 f   GuGJKSimplex.obj
 0001:00001010       ??__EminFError@_VecMathTests@aos@shdfnd@physx@@YAXXZ 0000000180002010 f   GuGJKSimplex.obj
 0001:00001020       ??__EminV3Error@_VecMathTests@aos@shdfnd@physx@@YAXXZ 0000000180002020 f   GuGJKSimplex.obj
 0001:00001030       ??__EminV4Error@_VecMathTests@aos@shdfnd@physx@@YAXXZ 0000000180002030 f   GuGJKSimplex.obj
 0001:00001040       ??__EmaxFError@_VecMathTests@aos@shdfnd@physx@@YAXXZ 0000000180002040 f   GuGJKTest.obj
 0001:00001050       ??__EmaxV3Error@_VecMathTests@aos@shdfnd@physx@@YAXXZ 0000000180002050 f   GuGJKTest.obj
 0001:00001060       ??__EmaxV4Error@_VecMathTests@aos@shdfnd@physx@@YAXXZ 0000000180002060 f   GuGJKTest.obj
 0001:00001070       ??__EminFError@_VecMathTests@aos@shdfnd@physx@@YAXXZ 0000000180002070 f   GuGJKTest.obj
 0001:00001080       ??__EminV3Error@_VecMathTests@aos@shdfnd@physx@@YAXXZ 0000000180002080 f   GuGJKTest.obj
 0001:00001090       ??__EminV4Error@_VecMathTests@aos@shdfnd@physx@@YAXXZ 0000000180002090 f   GuGJKTest.obj
 0001:000010a0       ??__EmaxFError@_VecMathTests@aos@shdfnd@physx@@YAXXZ 00000001800020a0 f   GuHeightFieldUtil.obj
 0001:000010b0       ??__EmaxV3Error@_VecMathTests@aos@shdfnd@physx@@YAXXZ 00000001800020b0 f   GuHeightFieldUtil.obj
 0001:000010c0       ??__EmaxV4Error@_VecMathTests@aos@shdfnd@physx@@YAXXZ 00000001800020c0 f   GuHeightFieldUtil.obj
 0001:000010d0       ??__EminFError@_VecMathTests@aos@shdfnd@physx@@YAXXZ 00000001800020d0 f   GuHeightFieldUtil.obj
 0001:000010e0       ??__EminV3Error@_VecMathTests@aos@shdfnd@physx@@YAXXZ 00000001800020e0 f   GuHeightFieldUtil.obj
 0001:000010f0       ??__EminV4Error@_VecMathTests@aos@shdfnd@physx@@YAXXZ 00000001800020f0 f   GuHeightFieldUtil.obj
 0001:00001100       ??__EmaxFError@_VecMathTests@aos@shdfnd@physx@@YAXXZ 0000000180002100 f   GuOverlapTestsHF.obj
 0001:00001110       ??__EmaxV3Error@_VecMathTests@aos@shdfnd@physx@@YAXXZ 0000000180002110 f   GuOverlapTestsHF.obj
 0001:00001120       ??__EmaxV4Error@_VecMathTests@aos@shdfnd@physx@@YAXXZ 0000000180002120 f   GuOverlapTestsHF.obj
 0001:00001130       ??__EminFError@_VecMathTests@aos@shdfnd@physx@@YAXXZ 0000000180002130 f   GuOverlapTestsHF.obj
 0001:00001140       ??__EminV3Error@_VecMathTests@aos@shdfnd@physx@@YAXXZ 0000000180002140 f   GuOverlapTestsHF.obj
 0001:00001150       ??__EminV4Error@_VecMathTests@aos@shdfnd@physx@@YAXXZ 0000000180002150 f   GuOverlapTestsHF.obj
 0001:00001160       ??__EmaxFError@_VecMathTests@aos@shdfnd@physx@@YAXXZ 0000000180002160 f   GuSweepsHF.obj
 0001:00001170       ??__EmaxV3Error@_VecMathTests@aos@shdfnd@physx@@YAXXZ 0000000180002170 f   GuSweepsHF.obj
 0001:00001180       ??__EmaxV4Error@_VecMathTests@aos@shdfnd@physx@@YAXXZ 0000000180002180 f   GuSweepsHF.obj
 0001:00001190       ??__EminFError@_VecMathTests@aos@shdfnd@physx@@YAXXZ 0000000180002190 f   GuSweepsHF.obj
 0001:000011a0       ??__EminV3Error@_VecMathTests@aos@shdfnd@physx@@YAXXZ 00000001800021a0 f   GuSweepsHF.obj
 0001:000011b0       ??__EminV4Error@_VecMathTests@aos@shdfnd@physx@@YAXXZ 00000001800021b0 f   GuSweepsHF.obj
 0001:000011c0       ??__EmaxFError@_VecMathTests@aos@shdfnd@physx@@YAXXZ 00000001800021c0 f   GuIntersectionRayBox.obj
 0001:000011d0       ??__EmaxV3Error@_VecMathTests@aos@shdfnd@physx@@YAXXZ 00000001800021d0 f   GuIntersectionRayBox.obj
 0001:000011e0       ??__EmaxV4Error@_VecMathTests@aos@shdfnd@physx@@YAXXZ 00000001800021e0 f   GuIntersectionRayBox.obj
 0001:000011f0       ??__EminFError@_VecMathTests@aos@shdfnd@physx@@YAXXZ 00000001800021f0 f   GuIntersectionRayBox.obj
 0001:00001200       ??__EminV3Error@_VecMathTests@aos@shdfnd@physx@@YAXXZ 0000000180002200 f   GuIntersectionRayBox.obj
 0001:00001210       ??__EminV4Error@_VecMathTests@aos@shdfnd@physx@@YAXXZ 0000000180002210 f   GuIntersectionRayBox.obj
 0001:00001220       ??__EmaxFError@_VecMathTests@aos@shdfnd@physx@@YAXXZ 0000000180002220 f   GuIntersectionTriangleBox.obj
 0001:00001230       ??__EmaxV3Error@_VecMathTests@aos@shdfnd@physx@@YAXXZ 0000000180002230 f   GuIntersectionTriangleBox.obj
 0001:00001240       ??__EmaxV4Error@_VecMathTests@aos@shdfnd@physx@@YAXXZ 0000000180002240 f   GuIntersectionTriangleBox.obj
 0001:00001250       ??__EminFError@_VecMathTests@aos@shdfnd@physx@@YAXXZ 0000000180002250 f   GuIntersectionTriangleBox.obj
 0001:00001260       ??__EminV3Error@_VecMathTests@aos@shdfnd@physx@@YAXXZ 0000000180002260 f   GuIntersectionTriangleBox.obj
 0001:00001270       ??__EminV4Error@_VecMathTests@aos@shdfnd@physx@@YAXXZ 0000000180002270 f   GuIntersectionTriangleBox.obj
 0001:00001280       ??__EsignV@@YAXXZ          0000000180002280 f   GuIntersectionTriangleBox.obj
 0001:000012c0       ??__EmaxFError@_VecMathTests@aos@shdfnd@physx@@YAXXZ 00000001800022c0 f   GuBV4.obj
 0001:000012d0       ??__EmaxV3Error@_VecMathTests@aos@shdfnd@physx@@YAXXZ 00000001800022d0 f   GuBV4.obj
 0001:000012e0       ??__EmaxV4Error@_VecMathTests@aos@shdfnd@physx@@YAXXZ 00000001800022e0 f   GuBV4.obj
 0001:000012f0       ??__EminFError@_VecMathTests@aos@shdfnd@physx@@YAXXZ 00000001800022f0 f   GuBV4.obj
 0001:00001300       ??__EminV3Error@_VecMathTests@aos@shdfnd@physx@@YAXXZ 0000000180002300 f   GuBV4.obj
 0001:00001310       ??__EminV4Error@_VecMathTests@aos@shdfnd@physx@@YAXXZ 0000000180002310 f   GuBV4.obj
 0001:00001320       ??__EmaxFError@_VecMathTests@aos@shdfnd@physx@@YAXXZ 0000000180002320 f   GuBV4Build.obj
 0001:00001330       ??__EmaxV3Error@_VecMathTests@aos@shdfnd@physx@@YAXXZ 0000000180002330 f   GuBV4Build.obj
 0001:00001340       ??__EmaxV4Error@_VecMathTests@aos@shdfnd@physx@@YAXXZ 0000000180002340 f   GuBV4Build.obj
 0001:00001350       ??__EminFError@_VecMathTests@aos@shdfnd@physx@@YAXXZ 0000000180002350 f   GuBV4Build.obj
 0001:00001360       ??__EminV3Error@_VecMathTests@aos@shdfnd@physx@@YAXXZ 0000000180002360 f   GuBV4Build.obj
 0001:00001370       ??__EminV4Error@_VecMathTests@aos@shdfnd@physx@@YAXXZ 0000000180002370 f   GuBV4Build.obj
 0001:00001380       ??__EepsFloat4@?A0x06055adb@@YAXXZ 0000000180002380 f   GuBV4_AABBSweep.obj
 0001:00001390       ??__EepsInflateFloat4@?A0x06055adb@@YAXXZ 0000000180002390 f   GuBV4_AABBSweep.obj
 0001:000013a0       ??__EmaxFError@_VecMathTests@aos@shdfnd@physx@@YAXXZ 00000001800023a0 f   GuBV4_AABBSweep.obj
 0001:000013b0       ??__EmaxV3Error@_VecMathTests@aos@shdfnd@physx@@YAXXZ 00000001800023b0 f   GuBV4_AABBSweep.obj
 0001:000013c0       ??__EmaxV4Error@_VecMathTests@aos@shdfnd@physx@@YAXXZ 00000001800023c0 f   GuBV4_AABBSweep.obj
 0001:000013d0       ??__EminFError@_VecMathTests@aos@shdfnd@physx@@YAXXZ 00000001800023d0 f   GuBV4_AABBSweep.obj
 0001:000013e0       ??__EminV3Error@_VecMathTests@aos@shdfnd@physx@@YAXXZ 00000001800023e0 f   GuBV4_AABBSweep.obj
 0001:000013f0       ??__EminV4Error@_VecMathTests@aos@shdfnd@physx@@YAXXZ 00000001800023f0 f   GuBV4_AABBSweep.obj
 0001:00001400       ??__EsignMask@?A0x06055adb@@YAXXZ 0000000180002400 f   GuBV4_AABBSweep.obj
 0001:00001440       ??__Etwos@?A0x06055adb@@YAXXZ 0000000180002440 f   GuBV4_AABBSweep.obj
 0001:00001450       ??__Ezeroes@?A0x06055adb@@YAXXZ 0000000180002450 f   GuBV4_AABBSweep.obj
 0001:00001460       ??__EmaxFError@_VecMathTests@aos@shdfnd@physx@@YAXXZ 0000000180002460 f   GuBV4_BoxOverlap.obj
 0001:00001470       ??__EmaxV3Error@_VecMathTests@aos@shdfnd@physx@@YAXXZ 0000000180002470 f   GuBV4_BoxOverlap.obj
 0001:00001480       ??__EmaxV4Error@_VecMathTests@aos@shdfnd@physx@@YAXXZ 0000000180002480 f   GuBV4_BoxOverlap.obj
 0001:00001490       ??__EminFError@_VecMathTests@aos@shdfnd@physx@@YAXXZ 0000000180002490 f   GuBV4_BoxOverlap.obj
 0001:000014a0       ??__EminV3Error@_VecMathTests@aos@shdfnd@physx@@YAXXZ 00000001800024a0 f   GuBV4_BoxOverlap.obj
 0001:000014b0       ??__EminV4Error@_VecMathTests@aos@shdfnd@physx@@YAXXZ 00000001800024b0 f   GuBV4_BoxOverlap.obj
 0001:000014c0       ??__EmaxFError@_VecMathTests@aos@shdfnd@physx@@YAXXZ 00000001800024c0 f   GuBV4_CapsuleSweep.obj
 0001:000014d0       ??__EmaxV3Error@_VecMathTests@aos@shdfnd@physx@@YAXXZ 00000001800024d0 f   GuBV4_CapsuleSweep.obj
 0001:000014e0       ??__EmaxV4Error@_VecMathTests@aos@shdfnd@physx@@YAXXZ 00000001800024e0 f   GuBV4_CapsuleSweep.obj
 0001:000014f0       ??__EminFError@_VecMathTests@aos@shdfnd@physx@@YAXXZ 00000001800024f0 f   GuBV4_CapsuleSweep.obj
 0001:00001500       ??__EminV3Error@_VecMathTests@aos@shdfnd@physx@@YAXXZ 0000000180002500 f   GuBV4_CapsuleSweep.obj
 0001:00001510       ??__EminV4Error@_VecMathTests@aos@shdfnd@physx@@YAXXZ 0000000180002510 f   GuBV4_CapsuleSweep.obj
 0001:00001520       ??__EepsFloat4@?A0x0f11fc3d@@YAXXZ 0000000180002520 f   GuBV4_CapsuleSweepAA.obj
 0001:00001530       ??__EepsInflateFloat4@?A0x0f11fc3d@@YAXXZ 0000000180002530 f   GuBV4_CapsuleSweepAA.obj
 0001:00001540       ??__EmaxFError@_VecMathTests@aos@shdfnd@physx@@YAXXZ 0000000180002540 f   GuBV4_CapsuleSweepAA.obj
 0001:00001550       ??__EmaxV3Error@_VecMathTests@aos@shdfnd@physx@@YAXXZ 0000000180002550 f   GuBV4_CapsuleSweepAA.obj
 0001:00001560       ??__EmaxV4Error@_VecMathTests@aos@shdfnd@physx@@YAXXZ 0000000180002560 f   GuBV4_CapsuleSweepAA.obj
 0001:00001570       ??__EminFError@_VecMathTests@aos@shdfnd@physx@@YAXXZ 0000000180002570 f   GuBV4_CapsuleSweepAA.obj
 0001:00001580       ??__EminV3Error@_VecMathTests@aos@shdfnd@physx@@YAXXZ 0000000180002580 f   GuBV4_CapsuleSweepAA.obj
 0001:00001590       ??__EminV4Error@_VecMathTests@aos@shdfnd@physx@@YAXXZ 0000000180002590 f   GuBV4_CapsuleSweepAA.obj
 0001:000015a0       ??__EsignMask@?A0x0f11fc3d@@YAXXZ 00000001800025a0 f   GuBV4_CapsuleSweepAA.obj
 0001:000015e0       ??__Etwos@?A0x0f11fc3d@@YAXXZ 00000001800025e0 f   GuBV4_CapsuleSweepAA.obj
 0001:000015f0       ??__Ezeroes@?A0x0f11fc3d@@YAXXZ 00000001800025f0 f   GuBV4_CapsuleSweepAA.obj
 0001:00001600       ??__EmaxFError@_VecMathTests@aos@shdfnd@physx@@YAXXZ 0000000180002600 f   GuBV4_OBBSweep.obj
 0001:00001610       ??__EmaxV3Error@_VecMathTests@aos@shdfnd@physx@@YAXXZ 0000000180002610 f   GuBV4_OBBSweep.obj
 0001:00001620       ??__EmaxV4Error@_VecMathTests@aos@shdfnd@physx@@YAXXZ 0000000180002620 f   GuBV4_OBBSweep.obj
 0001:00001630       ??__EminFError@_VecMathTests@aos@shdfnd@physx@@YAXXZ 0000000180002630 f   GuBV4_OBBSweep.obj
 0001:00001640       ??__EminV3Error@_VecMathTests@aos@shdfnd@physx@@YAXXZ 0000000180002640 f   GuBV4_OBBSweep.obj
 0001:00001650       ??__EminV4Error@_VecMathTests@aos@shdfnd@physx@@YAXXZ 0000000180002650 f   GuBV4_OBBSweep.obj
 0001:00001660       ??__EepsFloat4@?A0x02115b9e@@YAXXZ 0000000180002660 f   GuBV4_Raycast.obj
 0001:00001670       ??__EepsInflateFloat4@?A0x02115b9e@@YAXXZ 0000000180002670 f   GuBV4_Raycast.obj
 0001:00001680       ??__EmaxFError@_VecMathTests@aos@shdfnd@physx@@YAXXZ 0000000180002680 f   GuBV4_Raycast.obj
 0001:00001690       ??__EmaxV3Error@_VecMathTests@aos@shdfnd@physx@@YAXXZ 0000000180002690 f   GuBV4_Raycast.obj
 0001:000016a0       ??__EmaxV4Error@_VecMathTests@aos@shdfnd@physx@@YAXXZ 00000001800026a0 f   GuBV4_Raycast.obj
 0001:000016b0       ??__EminFError@_VecMathTests@aos@shdfnd@physx@@YAXXZ 00000001800026b0 f   GuBV4_Raycast.obj
 0001:000016c0       ??__EminV3Error@_VecMathTests@aos@shdfnd@physx@@YAXXZ 00000001800026c0 f   GuBV4_Raycast.obj
 0001:000016d0       ??__EminV4Error@_VecMathTests@aos@shdfnd@physx@@YAXXZ 00000001800026d0 f   GuBV4_Raycast.obj
 0001:000016e0       ??__EsignMask@?A0x02115b9e@@YAXXZ 00000001800026e0 f   GuBV4_Raycast.obj
 0001:00001720       ??__Etwos@?A0x02115b9e@@YAXXZ 0000000180002720 f   GuBV4_Raycast.obj
 0001:00001730       ??__Ezeroes@?A0x02115b9e@@YAXXZ 0000000180002730 f   GuBV4_Raycast.obj
 0001:00001740       ??__EmaxFError@_VecMathTests@aos@shdfnd@physx@@YAXXZ 0000000180002740 f   GuBV4_SphereOverlap.obj
 0001:00001750       ??__EmaxV3Error@_VecMathTests@aos@shdfnd@physx@@YAXXZ 0000000180002750 f   GuBV4_SphereOverlap.obj
 0001:00001760       ??__EmaxV4Error@_VecMathTests@aos@shdfnd@physx@@YAXXZ 0000000180002760 f   GuBV4_SphereOverlap.obj
 0001:00001770       ??__EminFError@_VecMathTests@aos@shdfnd@physx@@YAXXZ 0000000180002770 f   GuBV4_SphereOverlap.obj
 0001:00001780       ??__EminV3Error@_VecMathTests@aos@shdfnd@physx@@YAXXZ 0000000180002780 f   GuBV4_SphereOverlap.obj
 0001:00001790       ??__EminV4Error@_VecMathTests@aos@shdfnd@physx@@YAXXZ 0000000180002790 f   GuBV4_SphereOverlap.obj
 0001:000017a0       ??__EepsFloat4@?A0x56c57d1b@@YAXXZ 00000001800027a0 f   GuBV4_SphereSweep.obj
 0001:000017b0       ??__EepsInflateFloat4@?A0x56c57d1b@@YAXXZ 00000001800027b0 f   GuBV4_SphereSweep.obj
 0001:000017c0       ??__EmaxFError@_VecMathTests@aos@shdfnd@physx@@YAXXZ 00000001800027c0 f   GuBV4_SphereSweep.obj
 0001:000017d0       ??__EmaxV3Error@_VecMathTests@aos@shdfnd@physx@@YAXXZ 00000001800027d0 f   GuBV4_SphereSweep.obj
 0001:000017e0       ??__EmaxV4Error@_VecMathTests@aos@shdfnd@physx@@YAXXZ 00000001800027e0 f   GuBV4_SphereSweep.obj
 0001:000017f0       ??__EminFError@_VecMathTests@aos@shdfnd@physx@@YAXXZ 00000001800027f0 f   GuBV4_SphereSweep.obj
 0001:00001800       ??__EminV3Error@_VecMathTests@aos@shdfnd@physx@@YAXXZ 0000000180002800 f   GuBV4_SphereSweep.obj
 0001:00001810       ??__EminV4Error@_VecMathTests@aos@shdfnd@physx@@YAXXZ 0000000180002810 f   GuBV4_SphereSweep.obj
 0001:00001820       ??__EsignMask@?A0x56c57d1b@@YAXXZ 0000000180002820 f   GuBV4_SphereSweep.obj
 0001:00001860       ??__Etwos@?A0x56c57d1b@@YAXXZ 0000000180002860 f   GuBV4_SphereSweep.obj
 0001:00001870       ??__Ezeroes@?A0x56c57d1b@@YAXXZ 0000000180002870 f   GuBV4_SphereSweep.obj
 0001:00001880       ??__EmaxFError@_VecMathTests@aos@shdfnd@physx@@YAXXZ 0000000180002880 f   GuMidphaseBV4.obj
 0001:00001890       ??__EmaxV3Error@_VecMathTests@aos@shdfnd@physx@@YAXXZ 0000000180002890 f   GuMidphaseBV4.obj
 0001:000018a0       ??__EmaxV4Error@_VecMathTests@aos@shdfnd@physx@@YAXXZ 00000001800028a0 f   GuMidphaseBV4.obj
 0001:000018b0       ??__EminFError@_VecMathTests@aos@shdfnd@physx@@YAXXZ 00000001800028b0 f   GuMidphaseBV4.obj
 0001:000018c0       ??__EminV3Error@_VecMathTests@aos@shdfnd@physx@@YAXXZ 00000001800028c0 f   GuMidphaseBV4.obj
 0001:000018d0       ??__EminV4Error@_VecMathTests@aos@shdfnd@physx@@YAXXZ 00000001800028d0 f   GuMidphaseBV4.obj
 0001:000018e0       ??__EmaxFError@_VecMathTests@aos@shdfnd@physx@@YAXXZ 00000001800028e0 f   GuMeshQuery.obj
 0001:000018f0       ??__EmaxV3Error@_VecMathTests@aos@shdfnd@physx@@YAXXZ 00000001800028f0 f   GuMeshQuery.obj
 0001:00001900       ??__EmaxV4Error@_VecMathTests@aos@shdfnd@physx@@YAXXZ 0000000180002900 f   GuMeshQuery.obj
 0001:00001910       ??__EminFError@_VecMathTests@aos@shdfnd@physx@@YAXXZ 0000000180002910 f   GuMeshQuery.obj
 0001:00001920       ??__EminV3Error@_VecMathTests@aos@shdfnd@physx@@YAXXZ 0000000180002920 f   GuMeshQuery.obj
 0001:00001930       ??__EminV4Error@_VecMathTests@aos@shdfnd@physx@@YAXXZ 0000000180002930 f   GuMeshQuery.obj
 0001:00001940       ??__EmaxFError@_VecMathTests@aos@shdfnd@physx@@YAXXZ 0000000180002940 f   GuMidphaseRTree.obj
 0001:00001950       ??__EmaxV3Error@_VecMathTests@aos@shdfnd@physx@@YAXXZ 0000000180002950 f   GuMidphaseRTree.obj
 0001:00001960       ??__EmaxV4Error@_VecMathTests@aos@shdfnd@physx@@YAXXZ 0000000180002960 f   GuMidphaseRTree.obj
 0001:00001970       ??__EminFError@_VecMathTests@aos@shdfnd@physx@@YAXXZ 0000000180002970 f   GuMidphaseRTree.obj
 0001:00001980       ??__EminV3Error@_VecMathTests@aos@shdfnd@physx@@YAXXZ 0000000180002980 f   GuMidphaseRTree.obj
 0001:00001990       ??__EminV4Error@_VecMathTests@aos@shdfnd@physx@@YAXXZ 0000000180002990 f   GuMidphaseRTree.obj
 0001:000019a0       ??__EmaxFError@_VecMathTests@aos@shdfnd@physx@@YAXXZ 00000001800029a0 f   GuOverlapTestsMesh.obj
 0001:000019b0       ??__EmaxV3Error@_VecMathTests@aos@shdfnd@physx@@YAXXZ 00000001800029b0 f   GuOverlapTestsMesh.obj
 0001:000019c0       ??__EmaxV4Error@_VecMathTests@aos@shdfnd@physx@@YAXXZ 00000001800029c0 f   GuOverlapTestsMesh.obj
 0001:000019d0       ??__EminFError@_VecMathTests@aos@shdfnd@physx@@YAXXZ 00000001800029d0 f   GuOverlapTestsMesh.obj
 0001:000019e0       ??__EminV3Error@_VecMathTests@aos@shdfnd@physx@@YAXXZ 00000001800029e0 f   GuOverlapTestsMesh.obj
 0001:000019f0       ??__EminV4Error@_VecMathTests@aos@shdfnd@physx@@YAXXZ 00000001800029f0 f   GuOverlapTestsMesh.obj
 0001:00001a00       ??__EmaxFError@_VecMathTests@aos@shdfnd@physx@@YAXXZ 0000000180002a00 f   GuRTree.obj
 0001:00001a10       ??__EmaxV3Error@_VecMathTests@aos@shdfnd@physx@@YAXXZ 0000000180002a10 f   GuRTree.obj
 0001:00001a20       ??__EmaxV4Error@_VecMathTests@aos@shdfnd@physx@@YAXXZ 0000000180002a20 f   GuRTree.obj
 0001:00001a30       ??__EminFError@_VecMathTests@aos@shdfnd@physx@@YAXXZ 0000000180002a30 f   GuRTree.obj
 0001:00001a40       ??__EminV3Error@_VecMathTests@aos@shdfnd@physx@@YAXXZ 0000000180002a40 f   GuRTree.obj
 0001:00001a50       ??__EminV4Error@_VecMathTests@aos@shdfnd@physx@@YAXXZ 0000000180002a50 f   GuRTree.obj
 0001:00001a60       ??__EepsFloat4@?A0x10b34f23@@YAXXZ 0000000180002a60 f   GuRTreeQueries.obj
 0001:00001a70       ??__EepsInflateFloat4@?A0x10b34f23@@YAXXZ 0000000180002a70 f   GuRTreeQueries.obj
 0001:00001a80       ??__EmaxFError@_VecMathTests@aos@shdfnd@physx@@YAXXZ 0000000180002a80 f   GuRTreeQueries.obj
 0001:00001a90       ??__EmaxV3Error@_VecMathTests@aos@shdfnd@physx@@YAXXZ 0000000180002a90 f   GuRTreeQueries.obj
 0001:00001aa0       ??__EmaxV4Error@_VecMathTests@aos@shdfnd@physx@@YAXXZ 0000000180002aa0 f   GuRTreeQueries.obj
 0001:00001ab0       ??__EminFError@_VecMathTests@aos@shdfnd@physx@@YAXXZ 0000000180002ab0 f   GuRTreeQueries.obj
 0001:00001ac0       ??__EminV3Error@_VecMathTests@aos@shdfnd@physx@@YAXXZ 0000000180002ac0 f   GuRTreeQueries.obj
 0001:00001ad0       ??__EminV4Error@_VecMathTests@aos@shdfnd@physx@@YAXXZ 0000000180002ad0 f   GuRTreeQueries.obj
 0001:00001ae0       ??__EsignMask@?A0x10b34f23@@YAXXZ 0000000180002ae0 f   GuRTreeQueries.obj
 0001:00001b20       ??__Etwos@?A0x10b34f23@@YAXXZ 0000000180002b20 f   GuRTreeQueries.obj
 0001:00001b30       ??__Ezeroes@?A0x10b34f23@@YAXXZ 0000000180002b30 f   GuRTreeQueries.obj
 0001:00001b40       ??__EmaxFError@_VecMathTests@aos@shdfnd@physx@@YAXXZ 0000000180002b40 f   GuSweepsMesh.obj
 0001:00001b50       ??__EmaxV3Error@_VecMathTests@aos@shdfnd@physx@@YAXXZ 0000000180002b50 f   GuSweepsMesh.obj
 0001:00001b60       ??__EmaxV4Error@_VecMathTests@aos@shdfnd@physx@@YAXXZ 0000000180002b60 f   GuSweepsMesh.obj
 0001:00001b70       ??__EminFError@_VecMathTests@aos@shdfnd@physx@@YAXXZ 0000000180002b70 f   GuSweepsMesh.obj
 0001:00001b80       ??__EminV3Error@_VecMathTests@aos@shdfnd@physx@@YAXXZ 0000000180002b80 f   GuSweepsMesh.obj
 0001:00001b90       ??__EminV4Error@_VecMathTests@aos@shdfnd@physx@@YAXXZ 0000000180002b90 f   GuSweepsMesh.obj
 0001:00001ba0       ??__EmaxFError@_VecMathTests@aos@shdfnd@physx@@YAXXZ 0000000180002ba0 f   GuTriangleMesh.obj
 0001:00001bb0       ??__EmaxV3Error@_VecMathTests@aos@shdfnd@physx@@YAXXZ 0000000180002bb0 f   GuTriangleMesh.obj
 0001:00001bc0       ??__EmaxV4Error@_VecMathTests@aos@shdfnd@physx@@YAXXZ 0000000180002bc0 f   GuTriangleMesh.obj
 0001:00001bd0       ??__EminFError@_VecMathTests@aos@shdfnd@physx@@YAXXZ 0000000180002bd0 f   GuTriangleMesh.obj
 0001:00001be0       ??__EminV3Error@_VecMathTests@aos@shdfnd@physx@@YAXXZ 0000000180002be0 f   GuTriangleMesh.obj
 0001:00001bf0       ??__EminV4Error@_VecMathTests@aos@shdfnd@physx@@YAXXZ 0000000180002bf0 f   GuTriangleMesh.obj
 0001:00001c00       ??__EmaxFError@_VecMathTests@aos@shdfnd@physx@@YAXXZ 0000000180002c00 f   GuTriangleMeshBV4.obj
 0001:00001c10       ??__EmaxV3Error@_VecMathTests@aos@shdfnd@physx@@YAXXZ 0000000180002c10 f   GuTriangleMeshBV4.obj
 0001:00001c20       ??__EmaxV4Error@_VecMathTests@aos@shdfnd@physx@@YAXXZ 0000000180002c20 f   GuTriangleMeshBV4.obj
 0001:00001c30       ??__EminFError@_VecMathTests@aos@shdfnd@physx@@YAXXZ 0000000180002c30 f   GuTriangleMeshBV4.obj
 0001:00001c40       ??__EminV3Error@_VecMathTests@aos@shdfnd@physx@@YAXXZ 0000000180002c40 f   GuTriangleMeshBV4.obj
 0001:00001c50       ??__EminV4Error@_VecMathTests@aos@shdfnd@physx@@YAXXZ 0000000180002c50 f   GuTriangleMeshBV4.obj
 0001:00001c60       ??__EmaxFError@_VecMathTests@aos@shdfnd@physx@@YAXXZ 0000000180002c60 f   GuTriangleMeshRTree.obj
 0001:00001c70       ??__EmaxV3Error@_VecMathTests@aos@shdfnd@physx@@YAXXZ 0000000180002c70 f   GuTriangleMeshRTree.obj
 0001:00001c80       ??__EmaxV4Error@_VecMathTests@aos@shdfnd@physx@@YAXXZ 0000000180002c80 f   GuTriangleMeshRTree.obj
 0001:00001c90       ??__EminFError@_VecMathTests@aos@shdfnd@physx@@YAXXZ 0000000180002c90 f   GuTriangleMeshRTree.obj
 0001:00001ca0       ??__EminV3Error@_VecMathTests@aos@shdfnd@physx@@YAXXZ 0000000180002ca0 f   GuTriangleMeshRTree.obj
 0001:00001cb0       ??__EminV4Error@_VecMathTests@aos@shdfnd@physx@@YAXXZ 0000000180002cb0 f   GuTriangleMeshRTree.obj
 0001:00001cc0       ??__EmaxFError@_VecMathTests@aos@shdfnd@physx@@YAXXZ 0000000180002cc0 f   GuBV32Build.obj
 0001:00001cd0       ??__EmaxV3Error@_VecMathTests@aos@shdfnd@physx@@YAXXZ 0000000180002cd0 f   GuBV32Build.obj
 0001:00001ce0       ??__EmaxV4Error@_VecMathTests@aos@shdfnd@physx@@YAXXZ 0000000180002ce0 f   GuBV32Build.obj
 0001:00001cf0       ??__EminFError@_VecMathTests@aos@shdfnd@physx@@YAXXZ 0000000180002cf0 f   GuBV32Build.obj
 0001:00001d00       ??__EminV3Error@_VecMathTests@aos@shdfnd@physx@@YAXXZ 0000000180002d00 f   GuBV32Build.obj
 0001:00001d10       ??__EminV4Error@_VecMathTests@aos@shdfnd@physx@@YAXXZ 0000000180002d10 f   GuBV32Build.obj
 0001:00001d20       ??__EmaxFError@_VecMathTests@aos@shdfnd@physx@@YAXXZ 0000000180002d20 f   GuPCMContactBoxBox.obj
 0001:00001d30       ??__EmaxV3Error@_VecMathTests@aos@shdfnd@physx@@YAXXZ 0000000180002d30 f   GuPCMContactBoxBox.obj
 0001:00001d40       ??__EmaxV4Error@_VecMathTests@aos@shdfnd@physx@@YAXXZ 0000000180002d40 f   GuPCMContactBoxBox.obj
 0001:00001d50       ??__EminFError@_VecMathTests@aos@shdfnd@physx@@YAXXZ 0000000180002d50 f   GuPCMContactBoxBox.obj
 0001:00001d60       ??__EminV3Error@_VecMathTests@aos@shdfnd@physx@@YAXXZ 0000000180002d60 f   GuPCMContactBoxBox.obj
 0001:00001d70       ??__EminV4Error@_VecMathTests@aos@shdfnd@physx@@YAXXZ 0000000180002d70 f   GuPCMContactBoxBox.obj
 0001:00001d80       ??__EmaxFError@_VecMathTests@aos@shdfnd@physx@@YAXXZ 0000000180002d80 f   GuPCMContactBoxConvex.obj
 0001:00001d90       ??__EmaxV3Error@_VecMathTests@aos@shdfnd@physx@@YAXXZ 0000000180002d90 f   GuPCMContactBoxConvex.obj
 0001:00001da0       ??__EmaxV4Error@_VecMathTests@aos@shdfnd@physx@@YAXXZ 0000000180002da0 f   GuPCMContactBoxConvex.obj
 0001:00001db0       ??__EminFError@_VecMathTests@aos@shdfnd@physx@@YAXXZ 0000000180002db0 f   GuPCMContactBoxConvex.obj
 0001:00001dc0       ??__EminV3Error@_VecMathTests@aos@shdfnd@physx@@YAXXZ 0000000180002dc0 f   GuPCMContactBoxConvex.obj
 0001:00001dd0       ??__EminV4Error@_VecMathTests@aos@shdfnd@physx@@YAXXZ 0000000180002dd0 f   GuPCMContactBoxConvex.obj
 0001:00001de0       ??__EmaxFError@_VecMathTests@aos@shdfnd@physx@@YAXXZ 0000000180002de0 f   GuPCMContactCapsuleBox.obj
 0001:00001df0       ??__EmaxV3Error@_VecMathTests@aos@shdfnd@physx@@YAXXZ 0000000180002df0 f   GuPCMContactCapsuleBox.obj
 0001:00001e00       ??__EmaxV4Error@_VecMathTests@aos@shdfnd@physx@@YAXXZ 0000000180002e00 f   GuPCMContactCapsuleBox.obj
 0001:00001e10       ??__EminFError@_VecMathTests@aos@shdfnd@physx@@YAXXZ 0000000180002e10 f   GuPCMContactCapsuleBox.obj
 0001:00001e20       ??__EminV3Error@_VecMathTests@aos@shdfnd@physx@@YAXXZ 0000000180002e20 f   GuPCMContactCapsuleBox.obj
 0001:00001e30       ??__EminV4Error@_VecMathTests@aos@shdfnd@physx@@YAXXZ 0000000180002e30 f   GuPCMContactCapsuleBox.obj
 0001:00001e40       ??__EmaxFError@_VecMathTests@aos@shdfnd@physx@@YAXXZ 0000000180002e40 f   GuPCMContactCapsuleCapsule.obj
 0001:00001e50       ??__EmaxV3Error@_VecMathTests@aos@shdfnd@physx@@YAXXZ 0000000180002e50 f   GuPCMContactCapsuleCapsule.obj
 0001:00001e60       ??__EmaxV4Error@_VecMathTests@aos@shdfnd@physx@@YAXXZ 0000000180002e60 f   GuPCMContactCapsuleCapsule.obj
 0001:00001e70       ??__EminFError@_VecMathTests@aos@shdfnd@physx@@YAXXZ 0000000180002e70 f   GuPCMContactCapsuleCapsule.obj
 0001:00001e80       ??__EminV3Error@_VecMathTests@aos@shdfnd@physx@@YAXXZ 0000000180002e80 f   GuPCMContactCapsuleCapsule.obj
 0001:00001e90       ??__EminV4Error@_VecMathTests@aos@shdfnd@physx@@YAXXZ 0000000180002e90 f   GuPCMContactCapsuleCapsule.obj
 0001:00001ea0       ??__EmaxFError@_VecMathTests@aos@shdfnd@physx@@YAXXZ 0000000180002ea0 f   GuPCMContactCapsuleConvex.obj
 0001:00001eb0       ??__EmaxV3Error@_VecMathTests@aos@shdfnd@physx@@YAXXZ 0000000180002eb0 f   GuPCMContactCapsuleConvex.obj
 0001:00001ec0       ??__EmaxV4Error@_VecMathTests@aos@shdfnd@physx@@YAXXZ 0000000180002ec0 f   GuPCMContactCapsuleConvex.obj
 0001:00001ed0       ??__EminFError@_VecMathTests@aos@shdfnd@physx@@YAXXZ 0000000180002ed0 f   GuPCMContactCapsuleConvex.obj
 0001:00001ee0       ??__EminV3Error@_VecMathTests@aos@shdfnd@physx@@YAXXZ 0000000180002ee0 f   GuPCMContactCapsuleConvex.obj
 0001:00001ef0       ??__EminV4Error@_VecMathTests@aos@shdfnd@physx@@YAXXZ 0000000180002ef0 f   GuPCMContactCapsuleConvex.obj
 0001:00001f00       ??__EmaxFError@_VecMathTests@aos@shdfnd@physx@@YAXXZ 0000000180002f00 f   GuPCMContactCapsuleHeightField.obj
 0001:00001f10       ??__EmaxV3Error@_VecMathTests@aos@shdfnd@physx@@YAXXZ 0000000180002f10 f   GuPCMContactCapsuleHeightField.obj
 0001:00001f20       ??__EmaxV4Error@_VecMathTests@aos@shdfnd@physx@@YAXXZ 0000000180002f20 f   GuPCMContactCapsuleHeightField.obj
 0001:00001f30       ??__EminFError@_VecMathTests@aos@shdfnd@physx@@YAXXZ 0000000180002f30 f   GuPCMContactCapsuleHeightField.obj
 0001:00001f40       ??__EminV3Error@_VecMathTests@aos@shdfnd@physx@@YAXXZ 0000000180002f40 f   GuPCMContactCapsuleHeightField.obj
 0001:00001f50       ??__EminV4Error@_VecMathTests@aos@shdfnd@physx@@YAXXZ 0000000180002f50 f   GuPCMContactCapsuleHeightField.obj
 0001:00001f60       ??__EmaxFError@_VecMathTests@aos@shdfnd@physx@@YAXXZ 0000000180002f60 f   GuPCMContactCapsuleMesh.obj
 0001:00001f70       ??__EmaxV3Error@_VecMathTests@aos@shdfnd@physx@@YAXXZ 0000000180002f70 f   GuPCMContactCapsuleMesh.obj
 0001:00001f80       ??__EmaxV4Error@_VecMathTests@aos@shdfnd@physx@@YAXXZ 0000000180002f80 f   GuPCMContactCapsuleMesh.obj
 0001:00001f90       ??__EminFError@_VecMathTests@aos@shdfnd@physx@@YAXXZ 0000000180002f90 f   GuPCMContactCapsuleMesh.obj
 0001:00001fa0       ??__EminV3Error@_VecMathTests@aos@shdfnd@physx@@YAXXZ 0000000180002fa0 f   GuPCMContactCapsuleMesh.obj
 0001:00001fb0       ??__EminV4Error@_VecMathTests@aos@shdfnd@physx@@YAXXZ 0000000180002fb0 f   GuPCMContactCapsuleMesh.obj
 0001:00001fc0       ??__EmaxFError@_VecMathTests@aos@shdfnd@physx@@YAXXZ 0000000180002fc0 f   GuPCMContactConvexCommon.obj
 0001:00001fd0       ??__EmaxV3Error@_VecMathTests@aos@shdfnd@physx@@YAXXZ 0000000180002fd0 f   GuPCMContactConvexCommon.obj
 0001:00001fe0       ??__EmaxV4Error@_VecMathTests@aos@shdfnd@physx@@YAXXZ 0000000180002fe0 f   GuPCMContactConvexCommon.obj
 0001:00001ff0       ??__EminFError@_VecMathTests@aos@shdfnd@physx@@YAXXZ 0000000180002ff0 f   GuPCMContactConvexCommon.obj
 0001:00002000       ??__EminV3Error@_VecMathTests@aos@shdfnd@physx@@YAXXZ 0000000180003000 f   GuPCMContactConvexCommon.obj
 0001:00002010       ??__EminV4Error@_VecMathTests@aos@shdfnd@physx@@YAXXZ 0000000180003010 f   GuPCMContactConvexCommon.obj
 0001:00002020       ??__EmaxFError@_VecMathTests@aos@shdfnd@physx@@YAXXZ 0000000180003020 f   GuPCMContactConvexConvex.obj
 0001:00002030       ??__EmaxV3Error@_VecMathTests@aos@shdfnd@physx@@YAXXZ 0000000180003030 f   GuPCMContactConvexConvex.obj
 0001:00002040       ??__EmaxV4Error@_VecMathTests@aos@shdfnd@physx@@YAXXZ 0000000180003040 f   GuPCMContactConvexConvex.obj
 0001:00002050       ??__EminFError@_VecMathTests@aos@shdfnd@physx@@YAXXZ 0000000180003050 f   GuPCMContactConvexConvex.obj
 0001:00002060       ??__EminV3Error@_VecMathTests@aos@shdfnd@physx@@YAXXZ 0000000180003060 f   GuPCMContactConvexConvex.obj
 0001:00002070       ??__EminV4Error@_VecMathTests@aos@shdfnd@physx@@YAXXZ 0000000180003070 f   GuPCMContactConvexConvex.obj
 0001:00002080       ??__EmaxFError@_VecMathTests@aos@shdfnd@physx@@YAXXZ 0000000180003080 f   GuPCMContactConvexHeightField.obj
 0001:00002090       ??__EmaxV3Error@_VecMathTests@aos@shdfnd@physx@@YAXXZ 0000000180003090 f   GuPCMContactConvexHeightField.obj
 0001:000020a0       ??__EmaxV4Error@_VecMathTests@aos@shdfnd@physx@@YAXXZ 00000001800030a0 f   GuPCMContactConvexHeightField.obj
 0001:000020b0       ??__EminFError@_VecMathTests@aos@shdfnd@physx@@YAXXZ 00000001800030b0 f   GuPCMContactConvexHeightField.obj
 0001:000020c0       ??__EminV3Error@_VecMathTests@aos@shdfnd@physx@@YAXXZ 00000001800030c0 f   GuPCMContactConvexHeightField.obj
 0001:000020d0       ??__EminV4Error@_VecMathTests@aos@shdfnd@physx@@YAXXZ 00000001800030d0 f   GuPCMContactConvexHeightField.obj
 0001:000020e0       ??__EmaxFError@_VecMathTests@aos@shdfnd@physx@@YAXXZ 00000001800030e0 f   GuPCMContactConvexMesh.obj
 0001:000020f0       ??__EmaxV3Error@_VecMathTests@aos@shdfnd@physx@@YAXXZ 00000001800030f0 f   GuPCMContactConvexMesh.obj
 0001:00002100       ??__EmaxV4Error@_VecMathTests@aos@shdfnd@physx@@YAXXZ 0000000180003100 f   GuPCMContactConvexMesh.obj
 0001:00002110       ??__EminFError@_VecMathTests@aos@shdfnd@physx@@YAXXZ 0000000180003110 f   GuPCMContactConvexMesh.obj
 0001:00002120       ??__EminV3Error@_VecMathTests@aos@shdfnd@physx@@YAXXZ 0000000180003120 f   GuPCMContactConvexMesh.obj
 0001:00002130       ??__EminV4Error@_VecMathTests@aos@shdfnd@physx@@YAXXZ 0000000180003130 f   GuPCMContactConvexMesh.obj
 0001:00002140       ??__EmaxFError@_VecMathTests@aos@shdfnd@physx@@YAXXZ 0000000180003140 f   GuPCMContactGenBoxConvex.obj
 0001:00002150       ??__EmaxV3Error@_VecMathTests@aos@shdfnd@physx@@YAXXZ 0000000180003150 f   GuPCMContactGenBoxConvex.obj
 0001:00002160       ??__EmaxV4Error@_VecMathTests@aos@shdfnd@physx@@YAXXZ 0000000180003160 f   GuPCMContactGenBoxConvex.obj
 0001:00002170       ??__EminFError@_VecMathTests@aos@shdfnd@physx@@YAXXZ 0000000180003170 f   GuPCMContactGenBoxConvex.obj
 0001:00002180       ??__EminV3Error@_VecMathTests@aos@shdfnd@physx@@YAXXZ 0000000180003180 f   GuPCMContactGenBoxConvex.obj
 0001:00002190       ??__EminV4Error@_VecMathTests@aos@shdfnd@physx@@YAXXZ 0000000180003190 f   GuPCMContactGenBoxConvex.obj
 0001:000021a0       ??__EmaxFError@_VecMathTests@aos@shdfnd@physx@@YAXXZ 00000001800031a0 f   GuPCMContactGenSphereCapsule.obj
 0001:000021b0       ??__EmaxV3Error@_VecMathTests@aos@shdfnd@physx@@YAXXZ 00000001800031b0 f   GuPCMContactGenSphereCapsule.obj
 0001:000021c0       ??__EmaxV4Error@_VecMathTests@aos@shdfnd@physx@@YAXXZ 00000001800031c0 f   GuPCMContactGenSphereCapsule.obj
 0001:000021d0       ??__EminFError@_VecMathTests@aos@shdfnd@physx@@YAXXZ 00000001800031d0 f   GuPCMContactGenSphereCapsule.obj
 0001:000021e0       ??__EminV3Error@_VecMathTests@aos@shdfnd@physx@@YAXXZ 00000001800031e0 f   GuPCMContactGenSphereCapsule.obj
 0001:000021f0       ??__EminV4Error@_VecMathTests@aos@shdfnd@physx@@YAXXZ 00000001800031f0 f   GuPCMContactGenSphereCapsule.obj
 0001:00002200       ??__EmaxFError@_VecMathTests@aos@shdfnd@physx@@YAXXZ 0000000180003200 f   GuPCMContactPlaneBox.obj
 0001:00002210       ??__EmaxV3Error@_VecMathTests@aos@shdfnd@physx@@YAXXZ 0000000180003210 f   GuPCMContactPlaneBox.obj
 0001:00002220       ??__EmaxV4Error@_VecMathTests@aos@shdfnd@physx@@YAXXZ 0000000180003220 f   GuPCMContactPlaneBox.obj
 0001:00002230       ??__EminFError@_VecMathTests@aos@shdfnd@physx@@YAXXZ 0000000180003230 f   GuPCMContactPlaneBox.obj
 0001:00002240       ??__EminV3Error@_VecMathTests@aos@shdfnd@physx@@YAXXZ 0000000180003240 f   GuPCMContactPlaneBox.obj
 0001:00002250       ??__EminV4Error@_VecMathTests@aos@shdfnd@physx@@YAXXZ 0000000180003250 f   GuPCMContactPlaneBox.obj
 0001:00002260       ??__EmaxFError@_VecMathTests@aos@shdfnd@physx@@YAXXZ 0000000180003260 f   GuPCMContactPlaneCapsule.obj
 0001:00002270       ??__EmaxV3Error@_VecMathTests@aos@shdfnd@physx@@YAXXZ 0000000180003270 f   GuPCMContactPlaneCapsule.obj
 0001:00002280       ??__EmaxV4Error@_VecMathTests@aos@shdfnd@physx@@YAXXZ 0000000180003280 f   GuPCMContactPlaneCapsule.obj
 0001:00002290       ??__EminFError@_VecMathTests@aos@shdfnd@physx@@YAXXZ 0000000180003290 f   GuPCMContactPlaneCapsule.obj
 0001:000022a0       ??__EminV3Error@_VecMathTests@aos@shdfnd@physx@@YAXXZ 00000001800032a0 f   GuPCMContactPlaneCapsule.obj
 0001:000022b0       ??__EminV4Error@_VecMathTests@aos@shdfnd@physx@@YAXXZ 00000001800032b0 f   GuPCMContactPlaneCapsule.obj
 0001:000022c0       ??__EmaxFError@_VecMathTests@aos@shdfnd@physx@@YAXXZ 00000001800032c0 f   GuPCMContactPlaneConvex.obj
 0001:000022d0       ??__EmaxV3Error@_VecMathTests@aos@shdfnd@physx@@YAXXZ 00000001800032d0 f   GuPCMContactPlaneConvex.obj
 0001:000022e0       ??__EmaxV4Error@_VecMathTests@aos@shdfnd@physx@@YAXXZ 00000001800032e0 f   GuPCMContactPlaneConvex.obj
 0001:000022f0       ??__EminFError@_VecMathTests@aos@shdfnd@physx@@YAXXZ 00000001800032f0 f   GuPCMContactPlaneConvex.obj
 0001:00002300       ??__EminV3Error@_VecMathTests@aos@shdfnd@physx@@YAXXZ 0000000180003300 f   GuPCMContactPlaneConvex.obj
 0001:00002310       ??__EminV4Error@_VecMathTests@aos@shdfnd@physx@@YAXXZ 0000000180003310 f   GuPCMContactPlaneConvex.obj
 0001:00002320       ??__EmaxFError@_VecMathTests@aos@shdfnd@physx@@YAXXZ 0000000180003320 f   GuPCMContactSphereBox.obj
 0001:00002330       ??__EmaxV3Error@_VecMathTests@aos@shdfnd@physx@@YAXXZ 0000000180003330 f   GuPCMContactSphereBox.obj
 0001:00002340       ??__EmaxV4Error@_VecMathTests@aos@shdfnd@physx@@YAXXZ 0000000180003340 f   GuPCMContactSphereBox.obj
 0001:00002350       ??__EminFError@_VecMathTests@aos@shdfnd@physx@@YAXXZ 0000000180003350 f   GuPCMContactSphereBox.obj
 0001:00002360       ??__EminV3Error@_VecMathTests@aos@shdfnd@physx@@YAXXZ 0000000180003360 f   GuPCMContactSphereBox.obj
 0001:00002370       ??__EminV4Error@_VecMathTests@aos@shdfnd@physx@@YAXXZ 0000000180003370 f   GuPCMContactSphereBox.obj
 0001:00002380       ??__EmaxFError@_VecMathTests@aos@shdfnd@physx@@YAXXZ 0000000180003380 f   GuPCMContactSphereCapsule.obj
 0001:00002390       ??__EmaxV3Error@_VecMathTests@aos@shdfnd@physx@@YAXXZ 0000000180003390 f   GuPCMContactSphereCapsule.obj
 0001:000023a0       ??__EmaxV4Error@_VecMathTests@aos@shdfnd@physx@@YAXXZ 00000001800033a0 f   GuPCMContactSphereCapsule.obj
 0001:000023b0       ??__EminFError@_VecMathTests@aos@shdfnd@physx@@YAXXZ 00000001800033b0 f   GuPCMContactSphereCapsule.obj
 0001:000023c0       ??__EminV3Error@_VecMathTests@aos@shdfnd@physx@@YAXXZ 00000001800033c0 f   GuPCMContactSphereCapsule.obj
 0001:000023d0       ??__EminV4Error@_VecMathTests@aos@shdfnd@physx@@YAXXZ 00000001800033d0 f   GuPCMContactSphereCapsule.obj
 0001:000023e0       ??__EmaxFError@_VecMathTests@aos@shdfnd@physx@@YAXXZ 00000001800033e0 f   GuPCMContactSphereConvex.obj
 0001:000023f0       ??__EmaxV3Error@_VecMathTests@aos@shdfnd@physx@@YAXXZ 00000001800033f0 f   GuPCMContactSphereConvex.obj
 0001:00002400       ??__EmaxV4Error@_VecMathTests@aos@shdfnd@physx@@YAXXZ 0000000180003400 f   GuPCMContactSphereConvex.obj
 0001:00002410       ??__EminFError@_VecMathTests@aos@shdfnd@physx@@YAXXZ 0000000180003410 f   GuPCMContactSphereConvex.obj
 0001:00002420       ??__EminV3Error@_VecMathTests@aos@shdfnd@physx@@YAXXZ 0000000180003420 f   GuPCMContactSphereConvex.obj
 0001:00002430       ??__EminV4Error@_VecMathTests@aos@shdfnd@physx@@YAXXZ 0000000180003430 f   GuPCMContactSphereConvex.obj
 0001:00002440       ??__EmaxFError@_VecMathTests@aos@shdfnd@physx@@YAXXZ 0000000180003440 f   GuPCMContactSphereHeightField.obj
 0001:00002450       ??__EmaxV3Error@_VecMathTests@aos@shdfnd@physx@@YAXXZ 0000000180003450 f   GuPCMContactSphereHeightField.obj
 0001:00002460       ??__EmaxV4Error@_VecMathTests@aos@shdfnd@physx@@YAXXZ 0000000180003460 f   GuPCMContactSphereHeightField.obj
 0001:00002470       ??__EminFError@_VecMathTests@aos@shdfnd@physx@@YAXXZ 0000000180003470 f   GuPCMContactSphereHeightField.obj
 0001:00002480       ??__EminV3Error@_VecMathTests@aos@shdfnd@physx@@YAXXZ 0000000180003480 f   GuPCMContactSphereHeightField.obj
 0001:00002490       ??__EminV4Error@_VecMathTests@aos@shdfnd@physx@@YAXXZ 0000000180003490 f   GuPCMContactSphereHeightField.obj
 0001:000024a0       ??__EmaxFError@_VecMathTests@aos@shdfnd@physx@@YAXXZ 00000001800034a0 f   GuPCMContactSphereMesh.obj
 0001:000024b0       ??__EmaxV3Error@_VecMathTests@aos@shdfnd@physx@@YAXXZ 00000001800034b0 f   GuPCMContactSphereMesh.obj
 0001:000024c0       ??__EmaxV4Error@_VecMathTests@aos@shdfnd@physx@@YAXXZ 00000001800034c0 f   GuPCMContactSphereMesh.obj
 0001:000024d0       ??__EminFError@_VecMathTests@aos@shdfnd@physx@@YAXXZ 00000001800034d0 f   GuPCMContactSphereMesh.obj
 0001:000024e0       ??__EminV3Error@_VecMathTests@aos@shdfnd@physx@@YAXXZ 00000001800034e0 f   GuPCMContactSphereMesh.obj
 0001:000024f0       ??__EminV4Error@_VecMathTests@aos@shdfnd@physx@@YAXXZ 00000001800034f0 f   GuPCMContactSphereMesh.obj
 0001:00002500       ??__EmaxFError@_VecMathTests@aos@shdfnd@physx@@YAXXZ 0000000180003500 f   GuPCMContactSpherePlane.obj
 0001:00002510       ??__EmaxV3Error@_VecMathTests@aos@shdfnd@physx@@YAXXZ 0000000180003510 f   GuPCMContactSpherePlane.obj
 0001:00002520       ??__EmaxV4Error@_VecMathTests@aos@shdfnd@physx@@YAXXZ 0000000180003520 f   GuPCMContactSpherePlane.obj
 0001:00002530       ??__EminFError@_VecMathTests@aos@shdfnd@physx@@YAXXZ 0000000180003530 f   GuPCMContactSpherePlane.obj
 0001:00002540       ??__EminV3Error@_VecMathTests@aos@shdfnd@physx@@YAXXZ 0000000180003540 f   GuPCMContactSpherePlane.obj
 0001:00002550       ??__EminV4Error@_VecMathTests@aos@shdfnd@physx@@YAXXZ 0000000180003550 f   GuPCMContactSpherePlane.obj
 0001:00002560       ??__EmaxFError@_VecMathTests@aos@shdfnd@physx@@YAXXZ 0000000180003560 f   GuPCMContactSphereSphere.obj
 0001:00002570       ??__EmaxV3Error@_VecMathTests@aos@shdfnd@physx@@YAXXZ 0000000180003570 f   GuPCMContactSphereSphere.obj
 0001:00002580       ??__EmaxV4Error@_VecMathTests@aos@shdfnd@physx@@YAXXZ 0000000180003580 f   GuPCMContactSphereSphere.obj
 0001:00002590       ??__EminFError@_VecMathTests@aos@shdfnd@physx@@YAXXZ 0000000180003590 f   GuPCMContactSphereSphere.obj
 0001:000025a0       ??__EminV3Error@_VecMathTests@aos@shdfnd@physx@@YAXXZ 00000001800035a0 f   GuPCMContactSphereSphere.obj
 0001:000025b0       ??__EminV4Error@_VecMathTests@aos@shdfnd@physx@@YAXXZ 00000001800035b0 f   GuPCMContactSphereSphere.obj
 0001:000025c0       ??__EmaxFError@_VecMathTests@aos@shdfnd@physx@@YAXXZ 00000001800035c0 f   GuPCMShapeConvex.obj
 0001:000025d0       ??__EmaxV3Error@_VecMathTests@aos@shdfnd@physx@@YAXXZ 00000001800035d0 f   GuPCMShapeConvex.obj
 0001:000025e0       ??__EmaxV4Error@_VecMathTests@aos@shdfnd@physx@@YAXXZ 00000001800035e0 f   GuPCMShapeConvex.obj
 0001:000025f0       ??__EminFError@_VecMathTests@aos@shdfnd@physx@@YAXXZ 00000001800035f0 f   GuPCMShapeConvex.obj
 0001:00002600       ??__EminV3Error@_VecMathTests@aos@shdfnd@physx@@YAXXZ 0000000180003600 f   GuPCMShapeConvex.obj
 0001:00002610       ??__EminV4Error@_VecMathTests@aos@shdfnd@physx@@YAXXZ 0000000180003610 f   GuPCMShapeConvex.obj
 0001:00002620       ??__EmaxFError@_VecMathTests@aos@shdfnd@physx@@YAXXZ 0000000180003620 f   GuPCMTriangleContactGen.obj
 0001:00002630       ??__EmaxV3Error@_VecMathTests@aos@shdfnd@physx@@YAXXZ 0000000180003630 f   GuPCMTriangleContactGen.obj
 0001:00002640       ??__EmaxV4Error@_VecMathTests@aos@shdfnd@physx@@YAXXZ 0000000180003640 f   GuPCMTriangleContactGen.obj
 0001:00002650       ??__EminFError@_VecMathTests@aos@shdfnd@physx@@YAXXZ 0000000180003650 f   GuPCMTriangleContactGen.obj
 0001:00002660       ??__EminV3Error@_VecMathTests@aos@shdfnd@physx@@YAXXZ 0000000180003660 f   GuPCMTriangleContactGen.obj
 0001:00002670       ??__EminV4Error@_VecMathTests@aos@shdfnd@physx@@YAXXZ 0000000180003670 f   GuPCMTriangleContactGen.obj
 0001:00002680       ??__EmaxFError@_VecMathTests@aos@shdfnd@physx@@YAXXZ 0000000180003680 f   GuPersistentContactManifold.obj
 0001:00002690       ??__EmaxV3Error@_VecMathTests@aos@shdfnd@physx@@YAXXZ 0000000180003690 f   GuPersistentContactManifold.obj
 0001:000026a0       ??__EmaxV4Error@_VecMathTests@aos@shdfnd@physx@@YAXXZ 00000001800036a0 f   GuPersistentContactManifold.obj
 0001:000026b0       ??__EminFError@_VecMathTests@aos@shdfnd@physx@@YAXXZ 00000001800036b0 f   GuPersistentContactManifold.obj
 0001:000026c0       ??__EminV3Error@_VecMathTests@aos@shdfnd@physx@@YAXXZ 00000001800036c0 f   GuPersistentContactManifold.obj
 0001:000026d0       ??__EminV4Error@_VecMathTests@aos@shdfnd@physx@@YAXXZ 00000001800036d0 f   GuPersistentContactManifold.obj
 0001:000026e0       ??__EmaxFError@_VecMathTests@aos@shdfnd@physx@@YAXXZ 00000001800036e0 f   GuSweepBoxBox.obj
 0001:000026f0       ??__EmaxV3Error@_VecMathTests@aos@shdfnd@physx@@YAXXZ 00000001800036f0 f   GuSweepBoxBox.obj
 0001:00002700       ??__EmaxV4Error@_VecMathTests@aos@shdfnd@physx@@YAXXZ 0000000180003700 f   GuSweepBoxBox.obj
 0001:00002710       ??__EminFError@_VecMathTests@aos@shdfnd@physx@@YAXXZ 0000000180003710 f   GuSweepBoxBox.obj
 0001:00002720       ??__EminV3Error@_VecMathTests@aos@shdfnd@physx@@YAXXZ 0000000180003720 f   GuSweepBoxBox.obj
 0001:00002730       ??__EminV4Error@_VecMathTests@aos@shdfnd@physx@@YAXXZ 0000000180003730 f   GuSweepBoxBox.obj
 0001:00002740       ??__EmaxFError@_VecMathTests@aos@shdfnd@physx@@YAXXZ 0000000180003740 f   GuSweepBoxSphere.obj
 0001:00002750       ??__EmaxV3Error@_VecMathTests@aos@shdfnd@physx@@YAXXZ 0000000180003750 f   GuSweepBoxSphere.obj
 0001:00002760       ??__EmaxV4Error@_VecMathTests@aos@shdfnd@physx@@YAXXZ 0000000180003760 f   GuSweepBoxSphere.obj
 0001:00002770       ??__EminFError@_VecMathTests@aos@shdfnd@physx@@YAXXZ 0000000180003770 f   GuSweepBoxSphere.obj
 0001:00002780       ??__EminV3Error@_VecMathTests@aos@shdfnd@physx@@YAXXZ 0000000180003780 f   GuSweepBoxSphere.obj
 0001:00002790       ??__EminV4Error@_VecMathTests@aos@shdfnd@physx@@YAXXZ 0000000180003790 f   GuSweepBoxSphere.obj
 0001:000027a0       ??__EmaxFError@_VecMathTests@aos@shdfnd@physx@@YAXXZ 00000001800037a0 f   GuSweepBoxTriangle_FeatureBased.obj
 0001:000027b0       ??__EmaxV3Error@_VecMathTests@aos@shdfnd@physx@@YAXXZ 00000001800037b0 f   GuSweepBoxTriangle_FeatureBased.obj
 0001:000027c0       ??__EmaxV4Error@_VecMathTests@aos@shdfnd@physx@@YAXXZ 00000001800037c0 f   GuSweepBoxTriangle_FeatureBased.obj
 0001:000027d0       ??__EminFError@_VecMathTests@aos@shdfnd@physx@@YAXXZ 00000001800037d0 f   GuSweepBoxTriangle_FeatureBased.obj
 0001:000027e0       ??__EminV3Error@_VecMathTests@aos@shdfnd@physx@@YAXXZ 00000001800037e0 f   GuSweepBoxTriangle_FeatureBased.obj
 0001:000027f0       ??__EminV4Error@_VecMathTests@aos@shdfnd@physx@@YAXXZ 00000001800037f0 f   GuSweepBoxTriangle_FeatureBased.obj
 0001:00002800       ??__EmaxFError@_VecMathTests@aos@shdfnd@physx@@YAXXZ 0000000180003800 f   GuSweepBoxTriangle_SAT.obj
 0001:00002810       ??__EmaxV3Error@_VecMathTests@aos@shdfnd@physx@@YAXXZ 0000000180003810 f   GuSweepBoxTriangle_SAT.obj
 0001:00002820       ??__EmaxV4Error@_VecMathTests@aos@shdfnd@physx@@YAXXZ 0000000180003820 f   GuSweepBoxTriangle_SAT.obj
 0001:00002830       ??__EminFError@_VecMathTests@aos@shdfnd@physx@@YAXXZ 0000000180003830 f   GuSweepBoxTriangle_SAT.obj
 0001:00002840       ??__EminV3Error@_VecMathTests@aos@shdfnd@physx@@YAXXZ 0000000180003840 f   GuSweepBoxTriangle_SAT.obj
 0001:00002850       ??__EminV4Error@_VecMathTests@aos@shdfnd@physx@@YAXXZ 0000000180003850 f   GuSweepBoxTriangle_SAT.obj
 0001:00002860       ??__EmaxFError@_VecMathTests@aos@shdfnd@physx@@YAXXZ 0000000180003860 f   GuSweepCapsuleBox.obj
 0001:00002870       ??__EmaxV3Error@_VecMathTests@aos@shdfnd@physx@@YAXXZ 0000000180003870 f   GuSweepCapsuleBox.obj
 0001:00002880       ??__EmaxV4Error@_VecMathTests@aos@shdfnd@physx@@YAXXZ 0000000180003880 f   GuSweepCapsuleBox.obj
 0001:00002890       ??__EminFError@_VecMathTests@aos@shdfnd@physx@@YAXXZ 0000000180003890 f   GuSweepCapsuleBox.obj
 0001:000028a0       ??__EminV3Error@_VecMathTests@aos@shdfnd@physx@@YAXXZ 00000001800038a0 f   GuSweepCapsuleBox.obj
 0001:000028b0       ??__EminV4Error@_VecMathTests@aos@shdfnd@physx@@YAXXZ 00000001800038b0 f   GuSweepCapsuleBox.obj
 0001:000028c0       ??__EmaxFError@_VecMathTests@aos@shdfnd@physx@@YAXXZ 00000001800038c0 f   GuSweepCapsuleTriangle.obj
 0001:000028d0       ??__EmaxV3Error@_VecMathTests@aos@shdfnd@physx@@YAXXZ 00000001800038d0 f   GuSweepCapsuleTriangle.obj
 0001:000028e0       ??__EmaxV4Error@_VecMathTests@aos@shdfnd@physx@@YAXXZ 00000001800038e0 f   GuSweepCapsuleTriangle.obj
 0001:000028f0       ??__EminFError@_VecMathTests@aos@shdfnd@physx@@YAXXZ 00000001800038f0 f   GuSweepCapsuleTriangle.obj
 0001:00002900       ??__EminV3Error@_VecMathTests@aos@shdfnd@physx@@YAXXZ 0000000180003900 f   GuSweepCapsuleTriangle.obj
 0001:00002910       ??__EminV4Error@_VecMathTests@aos@shdfnd@physx@@YAXXZ 0000000180003910 f   GuSweepCapsuleTriangle.obj
 0001:00002920       ??__EmaxFError@_VecMathTests@aos@shdfnd@physx@@YAXXZ 0000000180003920 f   GuSweepSphereTriangle.obj
 0001:00002930       ??__EmaxV3Error@_VecMathTests@aos@shdfnd@physx@@YAXXZ 0000000180003930 f   GuSweepSphereTriangle.obj
 0001:00002940       ??__EmaxV4Error@_VecMathTests@aos@shdfnd@physx@@YAXXZ 0000000180003940 f   GuSweepSphereTriangle.obj
 0001:00002950       ??__EminFError@_VecMathTests@aos@shdfnd@physx@@YAXXZ 0000000180003950 f   GuSweepSphereTriangle.obj
 0001:00002960       ??__EminV3Error@_VecMathTests@aos@shdfnd@physx@@YAXXZ 0000000180003960 f   GuSweepSphereTriangle.obj
 0001:00002970       ??__EminV4Error@_VecMathTests@aos@shdfnd@physx@@YAXXZ 0000000180003970 f   GuSweepSphereTriangle.obj
 0001:00002980       ??__EmaxFError@_VecMathTests@aos@shdfnd@physx@@YAXXZ 0000000180003980 f   GuSweepTriangleUtils.obj
 0001:00002990       ??__EmaxV3Error@_VecMathTests@aos@shdfnd@physx@@YAXXZ 0000000180003990 f   GuSweepTriangleUtils.obj
 0001:000029a0       ??__EmaxV4Error@_VecMathTests@aos@shdfnd@physx@@YAXXZ 00000001800039a0 f   GuSweepTriangleUtils.obj
 0001:000029b0       ??__EminFError@_VecMathTests@aos@shdfnd@physx@@YAXXZ 00000001800039b0 f   GuSweepTriangleUtils.obj
 0001:000029c0       ??__EminV3Error@_VecMathTests@aos@shdfnd@physx@@YAXXZ 00000001800039c0 f   GuSweepTriangleUtils.obj
 0001:000029d0       ??__EminV4Error@_VecMathTests@aos@shdfnd@physx@@YAXXZ 00000001800039d0 f   GuSweepTriangleUtils.obj
 0001:000093b0       $LN24                      000000018000a3b0     CmWindowsDelayLoadHook.obj
 0001:0000a694       $LN727                     000000018000b694     GuBounds.obj
 0001:0000a868       $LN78                      000000018000b868     GuBounds.obj
 0001:0000a8d0       ?computeMeshBounds@@YAXAEBVPxVec3@physx@@AEBVPxMat33Padded@Gu@2@PEIBVCenterExtentsPadded@42@AEBVPxMeshScale@2@AEAVVec3p@42@4@Z 000000018000b8d0 f   GuBounds.obj
 0001:0000b090       ?computePlaneBounds@@YAXAEAVPxBounds3@physx@@AEBVPxTransform@2@MM@Z 000000018000c090 f   GuBounds.obj
 0001:0000b340       ?computeScaledMatrix@@YAXAEAVPxMat33Padded@Gu@physx@@AEBVPxMeshScale@3@@Z 000000018000c340 f   GuBounds.obj
 0001:0000c8d0       ??_GLocalReport@?1??sweepBox_HeightFieldGeom_Precise@@YA_NAEBVPxGeometry@physx@@AEBVPxTransform@3@AEBVPxBoxGeometry@3@1AEBVBox@Gu@3@AEBVPxVec3@3@MAEAUPxSweepHit@3@V?$PxFlags@W4Enum@PxHitFlag@physx@@G@3@M@Z@UEAAPEAXI@Z 000000018000d8d0 f   GuCCTSweepTests.obj
 0001:0000c8d0       ??_GHfTrianglesEntityReport2@?A0x4b2ec662@@UEAAPEAXI@Z 000000018000d8d0 f   GuMeshQuery.obj
 0001:0000d520       ?onEvent@LocalReport@?1??sweepBox_HeightFieldGeom_Precise@@YA_NAEBVPxGeometry@physx@@AEBVPxTransform@4@AEBVPxBoxGeometry@4@1AEBVBox@Gu@4@AEBVPxVec3@4@MAEAUPxSweepHit@4@V?$PxFlags@W4Enum@PxHitFlag@physx@@G@4@M@Z@UEAA_NIPEAI@Z 000000018000e520 f   GuCCTSweepTests.obj
 0001:0000d810       ?sweepBoxVsTriangles@@YA_NIPEBVPxTriangle@physx@@AEBVBox@Gu@2@AEBVPxVec3@2@MAEAUPxSweepHit@2@V?$PxFlags@W4Enum@PxHitFlag@physx@@G@2@_NPEBI@Z 000000018000e810 f   GuCCTSweepTests.obj
 0001:00010990       $LN46                      0000000180011990     GuGeometryUnion.obj
 0001:00012b90       ?loadMeshData@@YAPEAVTriangleMeshData@Gu@physx@@AEAVPxInputStream@3@@Z 0000000180013b90 f   GuMeshFactory.obj
 0001:00015f60       ?getBinaryMetaData@ShadowConvexMeshGeometry@?1??0GeometryUnion@Gu@physx@@SAXAEAVPxOutputStream@4@@Z@SAX0@Z 0000000180016f60 f   GuMetaData.obj
 0001:000161d0       ?getBinaryMetaData@ShadowHeightFieldGeometry@?1??0GeometryUnion@Gu@physx@@SAXAEAVPxOutputStream@4@@Z@SAX0@Z 00000001800171d0 f   GuMetaData.obj
 0001:00016470       ?getBinaryMetaData@ShadowTriangleMeshGeometry@?1??0GeometryUnion@Gu@physx@@SAXAEAVPxOutputStream@4@@Z@SAX0@Z 0000000180017470 f   GuMetaData.obj
 0001:00016f40       ?getBinaryMetaData_BVDataPackedQ@@YAXAEAVPxOutputStream@physx@@@Z 0000000180017f40 f   GuMetaData.obj
 0001:000171c0       ?getBinaryMetaData_BigConvexRawData@@YAXAEAVPxOutputStream@physx@@@Z 00000001800181c0 f   GuMetaData.obj
 0001:000173f0       ?getBinaryMetaData_ConvexHullData@@YAXAEAVPxOutputStream@physx@@@Z 00000001800183f0 f   GuMetaData.obj
 0001:00017660       ?getBinaryMetaData_HeightFieldData@@YAXAEAVPxOutputStream@physx@@@Z 0000000180018660 f   GuMetaData.obj
 0001:00017990       ?getBinaryMetaData_RTreePage@@YAXAEAVPxOutputStream@physx@@@Z 0000000180018990 f   GuMetaData.obj
 0001:00017c80       ?GeomMTDCallback_NotSupported@@YA_NAEAVPxVec3@physx@@AEAMAEBVPxGeometry@2@AEBVPxTransform@2@23@Z 0000000180018c80 f   GuMTD.obj
 0001:00017c80       ?GeomOverlapCallback_NotSupported@@YA_NAEBVPxGeometry@physx@@AEBVPxTransform@2@01PEAUTriggerCache@Gu@2@@Z 0000000180018c80 f   GuOverlapTests.obj
 0001:00017c90       ?GeomMTDCallback_SphereSphere@@YA_NAEAVPxVec3@physx@@AEAMAEBVPxGeometry@2@AEBVPxTransform@2@23@Z 0000000180018c90 f   GuMTD.obj
 0001:00017d70       ?GeomMTDCallback_SpherePlane@@YA_NAEAVPxVec3@physx@@AEAMAEBVPxGeometry@2@AEBVPxTransform@2@23@Z 0000000180018d70 f   GuMTD.obj
 0001:00017e40       ?GeomMTDCallback_SphereCapsule@@YA_NAEAVPxVec3@physx@@AEAMAEBVPxGeometry@2@AEBVPxTransform@2@23@Z 0000000180018e40 f   GuMTD.obj
 0001:00017f80       ?GeomMTDCallback_SphereBox@@YA_NAEAVPxVec3@physx@@AEAMAEBVPxGeometry@2@AEBVPxTransform@2@23@Z 0000000180018f80 f   GuMTD.obj
 0001:000180b0       ?GeomMTDCallback_SphereConvex@@YA_NAEAVPxVec3@physx@@AEAMAEBVPxGeometry@2@AEBVPxTransform@2@23@Z 00000001800190b0 f   GuMTD.obj
 0001:00018110       ?GeomMTDCallback_SphereMesh@@YA_NAEAVPxVec3@physx@@AEAMAEBVPxGeometry@2@AEBVPxTransform@2@23@Z 0000000180019110 f   GuMTD.obj
 0001:00018280       ?GeomMTDCallback_PlaneCapsule@@YA_NAEAVPxVec3@physx@@AEAMAEBVPxGeometry@2@AEBVPxTransform@2@23@Z 0000000180019280 f   GuMTD.obj
 0001:00018460       ?GeomMTDCallback_PlaneBox@@YA_NAEAVPxVec3@physx@@AEAMAEBVPxGeometry@2@AEBVPxTransform@2@23@Z 0000000180019460 f   GuMTD.obj
 0001:00018760       ?GeomMTDCallback_PlaneConvex@@YA_NAEAVPxVec3@physx@@AEAMAEBVPxGeometry@2@AEBVPxTransform@2@23@Z 0000000180019760 f   GuMTD.obj
 0001:000187b0       ?GeomMTDCallback_CapsuleCapsule@@YA_NAEAVPxVec3@physx@@AEAMAEBVPxGeometry@2@AEBVPxTransform@2@23@Z 00000001800197b0 f   GuMTD.obj
 0001:00018990       ?GeomMTDCallback_CapsuleBox@@YA_NAEAVPxVec3@physx@@AEAMAEBVPxGeometry@2@AEBVPxTransform@2@23@Z 0000000180019990 f   GuMTD.obj
 0001:00018b70       ?GeomMTDCallback_CapsuleConvex@@YA_NAEAVPxVec3@physx@@AEAMAEBVPxGeometry@2@AEBVPxTransform@2@23@Z 0000000180019b70 f   GuMTD.obj
 0001:00018c80       ?GeomMTDCallback_CapsuleMesh@@YA_NAEAVPxVec3@physx@@AEAMAEBVPxGeometry@2@AEBVPxTransform@2@23@Z 0000000180019c80 f   GuMTD.obj
 0001:00018e90       ?GeomMTDCallback_BoxBox@@YA_NAEAVPxVec3@physx@@AEAMAEBVPxGeometry@2@AEBVPxTransform@2@23@Z 0000000180019e90 f   GuMTD.obj
 0001:00019070       ?GeomMTDCallback_BoxConvex@@YA_NAEAVPxVec3@physx@@AEAMAEBVPxGeometry@2@AEBVPxTransform@2@23@Z 000000018001a070 f   GuMTD.obj
 0001:00019170       ?GeomMTDCallback_BoxMesh@@YA_NAEAVPxVec3@physx@@AEAMAEBVPxGeometry@2@AEBVPxTransform@2@23@Z 000000018001a170 f   GuMTD.obj
 0001:000193e0       ?GeomMTDCallback_ConvexConvex@@YA_NAEAVPxVec3@physx@@AEAMAEBVPxGeometry@2@AEBVPxTransform@2@23@Z 000000018001a3e0 f   GuMTD.obj
 0001:000193f0       ?GeomMTDCallback_ConvexMesh@@YA_NAEAVPxVec3@physx@@AEAMAEBVPxGeometry@2@AEBVPxTransform@2@23@Z 000000018001a3f0 f   GuMTD.obj
 0001:00019500       ?GeomMTDCallback_SphereHeightField@@YA_NAEAVPxVec3@physx@@AEAMAEBVPxGeometry@2@AEBVPxTransform@2@23@Z 000000018001a500 f   GuMTD.obj
 0001:00019670       ?GeomMTDCallback_CapsuleHeightField@@YA_NAEAVPxVec3@physx@@AEAMAEBVPxGeometry@2@AEBVPxTransform@2@23@Z 000000018001a670 f   GuMTD.obj
 0001:00019880       ?GeomMTDCallback_BoxHeightField@@YA_NAEAVPxVec3@physx@@AEAMAEBVPxGeometry@2@AEBVPxTransform@2@23@Z 000000018001a880 f   GuMTD.obj
 0001:00019af0       ?GeomMTDCallback_ConvexHeightField@@YA_NAEAVPxVec3@physx@@AEAMAEBVPxGeometry@2@AEBVPxTransform@2@23@Z 000000018001aaf0 f   GuMTD.obj
 0001:0001b870       ?PxcCapsuleOBBOverlap3@@YA_NAEBVSegment@Gu@physx@@MAEBVBox@23@PEAMPEAVPxVec3@3@@Z 000000018001c870 f   GuMTD.obj
 0001:0001bc30       ?PxcTestAxis@@YA_NAEBVPxVec3@physx@@AEBVBox@Gu@2@1AEAM@Z 000000018001cc30 f   GuMTD.obj
 0001:0001be20       ?GuTestAxis@@YA_NAEBVPxVec3@physx@@AEBVSegment@Gu@2@MAEBVBox@42@AEAM@Z 000000018001ce20 f   GuContactCapsuleBox.obj
 0001:0001be20       ?PxcTestAxis@@YA_NAEBVPxVec3@physx@@AEBVSegment@Gu@2@MAEBVBox@42@AEAM@Z 000000018001ce20 f   GuMTD.obj
 0001:0001c020       ?computeMTD_BoxBox@@YA_NAEAVPxVec3@physx@@AEAMAEBVBox@Gu@2@2@Z 000000018001d020 f   GuMTD.obj
