 PhysXCooking_64

 Timestamp is 62c7b060 (Fri Jul  8 07:19:44 2022)

 Preferred load address is 0000000180000000

 Start         Length     Name                   Class
 0001:00000000 000003c0H .text$di                CODE
 0001:000003c0 00044500H .text$mn                CODE
 0001:000448c0 00000040H .text$mn$00             CODE
 0001:00044900 000004a0H .text$x                 CODE
 0002:00000000 00000258H .idata$5                DATA
 0002:00000258 00000038H .00cfg                  DATA
 0002:00000290 00000008H .CRT$XCA                DATA
 0002:00000298 000001e0H .CRT$XCU                DATA
 0002:00000478 00000008H .CRT$XCZ                DATA
 0002:00000480 00000008H .CRT$XIA                DATA
 0002:00000488 00000018H .CRT$XIC                DATA
 0002:000004a0 00000008H .CRT$XIZ                DATA
 0002:000004a8 00000008H .CRT$XPA                DATA
 0002:000004b0 00000010H .CRT$XPX                DATA
 0002:000004c0 00000008H .CRT$XPXA               DATA
 0002:000004c8 00000008H .CRT$XPZ                DATA
 0002:000004d0 00000008H .CRT$XTA                DATA
 0002:000004d8 00000008H .CRT$XTZ                DATA
 0002:000004e0 00000000H .gehcont$y              DATA
 0002:000004e0 00000000H .gfids$y                DATA
 0002:000004e0 0000baa0H .rdata                  DATA
 0002:0000bf80 00000000H .rdata$CastGuardVftablesA DATA
 0002:0000bf80 00000000H .rdata$CastGuardVftablesC DATA
 0002:0000bf80 0000043cH .rdata$r                DATA
 0002:0000c3bc 00000150H .rdata$voltmd           DATA
 0002:0000c50c 00000424H .rdata$zzzdbg           DATA
 0002:0000c930 00000008H .rtc$IAA                DATA
 0002:0000c938 00000008H .rtc$IZZ                DATA
 0002:0000c940 00000008H .rtc$TAA                DATA
 0002:0000c948 00000008H .rtc$TZZ                DATA
 0002:0000c950 00003f08H .xdata                  DATA
 0002:00010858 00000084H .xdata$x                DATA
 0002:000108dc 00000040H .didat$2                DATA
 0002:0001091c 00000024H .didat$3                DATA
 0002:00010940 00000188H .didat$4                DATA
 0002:00010ac8 00000950H .didat$6                DATA
 0002:00011418 00000188H .didat$7                DATA
 0002:000115a0 00001d00H .edata                  DATA
 0002:000132a0 00000014H .idata$2                DATA
 0002:000132b4 00000014H .idata$3                DATA
 0002:000132c8 00000258H .idata$4                DATA
 0002:00013520 0000057cH .idata$6                DATA
 0003:00000000 00000a30H .data                   DATA
 0003:00000a30 000005e8H .data$r                 DATA
 0003:00001018 000000f0H .data$rs                DATA
 0003:00001108 00000188H .didat$5                DATA
 0003:00001290 000015d0H .bss                    DATA
 0004:00000000 000033f0H .pdata                  DATA
 0005:00000000 0000236cH _RDATA                  DATA
 0006:00000000 000000a0H .rsrc$01                DATA
 0006:000000a0 000004b0H .rsrc$02                DATA

  Address         Publics by Value              Rva+Base               Lib:Object

 0000:00000000       __AbsoluteZero             0000000000000000     <absolute>
 0000:00000000       ___safe_se_handler_count   0000000000000000     <absolute>
 0000:00000000       ___safe_se_handler_table   0000000000000000     <absolute>
 0000:00000000       __arm64x_extra_rfe_table   0000000000000000     <absolute>
 0000:00000000       __arm64x_extra_rfe_table_size 0000000000000000     <absolute>
 0000:00000000       __arm64x_native_entrypoint 0000000000000000     <absolute>
 0000:00000000       __arm64x_redirection_metadata 0000000000000000     <absolute>
 0000:00000000       __arm64x_redirection_metadata_count 0000000000000000     <absolute>
 0000:00000000       __dynamic_value_reloc_table 0000000000000000     <absolute>
 0000:00000000       __enclave_config           0000000000000000     <absolute>
 0000:00000000       __guard_check_icall_a64n_fptr 0000000000000000     <absolute>
 0000:00000000       __guard_eh_cont_count      0000000000000000     <absolute>
 0000:00000000       __guard_eh_cont_table      0000000000000000     <absolute>
 0000:00000000       __guard_fids_count         0000000000000000     <absolute>
 0000:00000000       __guard_fids_table         0000000000000000     <absolute>
 0000:00000000       __guard_iat_count          0000000000000000     <absolute>
 0000:00000000       __guard_iat_table          0000000000000000     <absolute>
 0000:00000000       __guard_longjmp_count      0000000000000000     <absolute>
 0000:00000000       __guard_longjmp_table      0000000000000000     <absolute>
 0000:00000000       __hybrid_auxiliary_iat     0000000000000000     <absolute>
 0000:00000000       __hybrid_auxiliary_iat_copy 0000000000000000     <absolute>
 0000:00000000       __hybrid_code_map          0000000000000000     <absolute>
 0000:00000000       __hybrid_code_map_count    0000000000000000     <absolute>
 0000:00000000       __x64_code_ranges_to_entry_points 0000000000000000     <absolute>
 0000:00000000       __x64_code_ranges_to_entry_points_count 0000000000000000     <absolute>
 0000:00000100       __guard_flags              0000000000000100     <absolute>
 0000:00000000       __ImageBase                0000000180000000     <linker-defined>
 0001:000003c0       ??$?_UV?$ReflectionAllocator@VAdjTriangle@physx@@@shdfnd@physx@@@UserAllocated@shdfnd@physx@@SAPEAX_KV?$ReflectionAllocator@VAdjTriangle@physx@@@12@PEBDH@Z 00000001800013c0 f i Adjacencies.obj
 0001:00000460       ??0AdjacenciesBuilder@physx@@QEAA@XZ 0000000180001460 f   Adjacencies.obj
 0001:00000470       ??$forward@_K@std@@YA$$QEA_KAEA_K@Z 0000000180001470 f i libvcruntime:undname.obj
 0001:00000470       ??0AABBTreeBuildNode@Gu@physx@@QEAA@XZ 0000000180001470 f i BVHStructureBuilder.obj
 0001:00000470       ??0Allocator@shdfnd@physx@@QEAA@PEBD@Z 0000000180001470 f i Adjacencies.obj
 0001:00000470       ??0BigConvexData@physx@@QEAA@W4PxEMPTY@1@@Z 0000000180001470 f i BigConvexDataBuilder.obj
 0001:00000470       ??0Box@Gu@physx@@QEAA@XZ   0000000180001470 f i ConvexHullUtils.obj
 0001:00000470       ??0HeightFieldData@Gu@physx@@QEAA@W4PxEMPTY@2@@Z 0000000180001470 f i Cooking.obj
 0001:00000470       ??4Allocator@shdfnd@physx@@QEAAAEAV012@$$QEAV012@@Z 0000000180001470 f i Adjacencies.obj
 0001:00000470       ??4Allocator@shdfnd@physx@@QEAAAEAV012@AEBV012@@Z 0000000180001470 f i Adjacencies.obj
 0001:00000470       ??4MutexImpl@shdfnd@physx@@QEAAAEAV012@AEBV012@@Z 0000000180001470 f i Adjacencies.obj
 0001:00000470       ??4PxFoundation@physx@@QEAAAEAV01@AEBV01@@Z 0000000180001470 f i Adjacencies.obj
 0001:00000470       ?getAABB@AABBTreeBuildNode@Gu@physx@@QEBAAEBVPxBounds3@3@XZ 0000000180001470 f i BVHStructureBuilder.obj
 0001:00000470       ?getPaddedBounds@HeightFieldData@Gu@physx@@QEBAAEBVCenterExtentsPadded@23@XZ 0000000180001470 f i Cooking.obj
 0001:00000480       ??0PxFoundation@physx@@QEAA@AEBV01@@Z 0000000180001480 f i Adjacencies.obj
 0001:00000480       ??0PxFoundation@physx@@QEAA@XZ 0000000180001480 f i Adjacencies.obj
 0001:00000490       ??1Adjacencies@physx@@QEAA@XZ 0000000180001490 f   Adjacencies.obj
 0001:00000500       ??1AdjacenciesBuilder@physx@@QEAA@XZ 0000000180001500 f   Adjacencies.obj
 0001:00000510       ??1PxFoundation@physx@@MEAA@XZ 0000000180001510 f i Adjacencies.obj
 0001:00000520       ??_EPxFoundation@physx@@MEAAPEAXI@Z 0000000180001520 f i Adjacencies.obj
 0001:000005b0       ??1AABBTreeBuildNode@Gu@physx@@QEAA@XZ 00000001800015b0 f i BVHStructureBuilder.obj
 0001:000005b0       ??1BigConvexDataBuilder@physx@@QEAA@XZ 00000001800015b0 f i BigConvexDataBuilder.obj
 0001:000005b0       ??1Box@Gu@physx@@QEAA@XZ   00000001800015b0 f i ConvexHullUtils.obj
 0001:000005b0       ??1HeightFieldData@Gu@physx@@QEAA@XZ 00000001800015b0 f i Cooking.obj
 0001:000005b0       ??_FAllocator@shdfnd@physx@@QEAAXXZ 00000001800015b0 f i Adjacencies.obj
 0001:000005b0       ?onMeshIndexFormatChange@TriangleMeshBuilder@physx@@UEAAXXZ 00000001800015b0 f i TriangleMeshBuilder.obj
 0001:000005b0       _guard_check_icall_nop     00000001800015b0 f i LIBCMT:guard_support.obj
 0001:000006c0       ?ComputeNbBoundaryEdges@Adjacencies@physx@@QEBAIXZ 00000001800016c0 f   Adjacencies.obj
 0001:000009a0       ?GetNbHits@RadixSort@Cm@physx@@QEBAIXZ 00000001800019a0 f i Adjacencies.obj
 0001:000009b0       ?GetNbTotalCalls@RadixSort@Cm@physx@@QEBAIXZ 00000001800019b0 f i Adjacencies.obj
 0001:000009c0       ?GetRanks@RadixSort@Cm@physx@@QEBAPEBIXZ 00000001800019c0 f i Adjacencies.obj
 0001:000009c0       ?getErrorCallback@Foundation@shdfnd@physx@@UEAAAEAVPxErrorCallback@3@XZ 00000001800019c0 f i Adjacencies.obj
 0001:000009d0       ?GetRecyclable@RadixSort@Cm@physx@@QEBAPEAIXZ 00000001800019d0 f i Adjacencies.obj
 0001:000009d0       ?GetValencies@BigConvexData@physx@@QEBAPEBUValency@Gu@2@XZ 00000001800019d0 f i BigConvexDataBuilder.obj
 0001:000009d0       ?getPos@AABBTreeBuildNode@Gu@physx@@QEBAPEBV123@XZ 00000001800019d0 f i BVHStructureBuilder.obj
 0001:000009e0       ?Init@AdjacenciesBuilder@physx@@QEAA_NAEBUADJACENCIESCREATE@2@@Z 00000001800019e0 f   Adjacencies.obj
 0001:00000f20       ?getAllocator@Foundation@shdfnd@physx@@QEAAAEAVPxAllocatorCallback@3@XZ 0000000180001f20 f i Adjacencies.obj
 0001:00000f30       ?getAllocatorCallback@Foundation@shdfnd@physx@@UEAAAEAVPxAllocatorCallback@3@XZ 0000000180001f30 f i Adjacencies.obj
 0001:00000f40       ?getErrorLevel@Foundation@shdfnd@physx@@UEBA?AW4Enum@PxErrorCode@3@XZ 0000000180001f40 f i Adjacencies.obj
 0001:00000f50       ?getInternalErrorCallback@Foundation@shdfnd@physx@@QEAAAEAVPxErrorCallback@3@XZ 0000000180001f50 f i Adjacencies.obj
 0001:00000f60       ?getNamedAllocMap@Foundation@shdfnd@physx@@QEAAAEAV?$HashMap@PEBVNamedAllocator@shdfnd@physx@@PEBDU?$Hash@PEBVNamedAllocator@shdfnd@physx@@@23@VNonTrackingAllocator@23@@23@XZ 0000000180001f60 f i Adjacencies.obj
 0001:00000f70       ?getNamedAllocMutex@Foundation@shdfnd@physx@@QEAAAEAV?$MutexT@VAllocator@shdfnd@physx@@@23@XZ 0000000180001f70 f i Adjacencies.obj
 0001:00000f80       ?getReportAllocationNames@Foundation@shdfnd@physx@@UEBA_NXZ 0000000180001f80 f i Adjacencies.obj
 0001:00000f90       ?getTempAllocFreeTable@Foundation@shdfnd@physx@@QEAAAEAV?$Array@PEATTempAllocatorChunk@shdfnd@physx@@VAllocator@23@@23@XZ 0000000180001f90 f i Adjacencies.obj
 0001:00000fa0       ?getTempAllocMutex@Foundation@shdfnd@physx@@QEAAAEAV?$MutexT@VAllocator@shdfnd@physx@@@23@XZ 0000000180001fa0 f i Adjacencies.obj
 0001:00000fb0       ?invalidateRanks@RadixSort@Cm@physx@@QEAAXXZ 0000000180001fb0 f i Adjacencies.obj
 0001:00000fc0       ?setErrorLevel@Foundation@shdfnd@physx@@UEAAXW4Enum@PxErrorCode@3@@Z 0000000180001fc0 f i Adjacencies.obj
 0001:00000fd0       ?setReportAllocationNames@Foundation@shdfnd@physx@@UEAAX_N@Z 0000000180001fd0 f i Adjacencies.obj
 0001:00000fe0       ??0DebugText@Cm@physx@@QEAA@$$QEAU012@@Z 0000000180001fe0 f i Cooking.obj
 0001:00000fe0       ??0DebugText@Cm@physx@@QEAA@AEBU012@@Z 0000000180001fe0 f i Cooking.obj
 0001:000010c0       ??0HeightFieldData@Gu@physx@@QEAA@$$QEAU012@@Z 00000001800020c0 f i Cooking.obj
 0001:000010c0       ??0HeightFieldData@Gu@physx@@QEAA@AEBU012@@Z 00000001800020c0 f i Cooking.obj
 0001:000010c0       ??4HeightFieldData@Gu@physx@@QEAAAEAU012@$$QEAU012@@Z 00000001800020c0 f i Cooking.obj
 0001:000010c0       ??4HeightFieldData@Gu@physx@@QEAAAEAU012@AEBU012@@Z 00000001800020c0 f i Cooking.obj
 0001:00001120       ??0HeightFieldData@Gu@physx@@QEAA@XZ 0000000180002120 f i Cooking.obj
 0001:00001130       ??0RenderOutput@Cm@physx@@QEAA@AEAVRenderBuffer@12@@Z 0000000180002130 f i Cooking.obj
 0001:00001180       ??0RenderOutput@Cm@physx@@QEAA@AEBV012@@Z 0000000180002180 f i Cooking.obj
 0001:00001220       ??1PxConvexMesh@physx@@MEAA@XZ 0000000180002220 f i Cooking.obj
 0001:00001220       ??1PxHeightField@physx@@MEAA@XZ 0000000180002220 f i Cooking.obj
 0001:00001230       ??4DebugText@Cm@physx@@QEAAAEAU012@$$QEAU012@@Z 0000000180002230 f i Cooking.obj
 0001:00001230       ??4DebugText@Cm@physx@@QEAAAEAU012@AEBU012@@Z 0000000180002230 f i Cooking.obj
 0001:00001360       ??4FPUGuard@shdfnd@physx@@QEAAAEAV012@AEBV012@@Z 0000000180002360 f i Cooking.obj
 0001:00001380       ??_ECooking@physx@@UEAAPEAXI@Z 0000000180002380 f i Cooking.obj
 0001:00001380       ??_GCooking@physx@@UEAAPEAXI@Z 0000000180002380 f i Cooking.obj
 0001:000013d0       ??_EPxBase@physx@@MEAAPEAXI@Z 00000001800023d0 f i Cooking.obj
 0001:000013d0       ??_GPxBase@physx@@MEAAPEAXI@Z 00000001800023d0 f i Cooking.obj
 0001:00001400       ??_EPxCooking@physx@@MEAAPEAXI@Z 0000000180002400 f i Cooking.obj
 0001:00001400       ??_GPxCooking@physx@@MEAAPEAXI@Z 0000000180002400 f i Cooking.obj
 0001:00001430       ?allocate@?$Array@UPxDebugLine@physx@@V?$ReflectionAllocator@UPxDebugLine@physx@@@shdfnd@2@@shdfnd@physx@@IEAAPEAUPxDebugLine@3@I@Z 0000000180002430 f i Cooking.obj
 0001:000014d0       ?computeHullPolygons@Cooking@physx@@UEBA_NAEBVPxSimpleTriangleMesh@2@AEAVPxAllocatorCallback@2@AEAIAEAPEAVPxVec3@2@2AEAPEAI2AEAPEAUPxHullPolygon@2@@Z 00000001800024d0 f   Cooking.obj
 0001:000016b0       ?cookBVHStructure@Cooking@physx@@UEBA_NAEBVPxBVHStructureDesc@2@AEAVPxOutputStream@2@@Z 00000001800026b0 f   Cooking.obj
 0001:00001760       ?cookConvexMesh@Cooking@physx@@UEBA_NAEBVPxConvexMeshDesc@2@AEAVPxOutputStream@2@PEAW4Enum@PxConvexMeshCookingResult@2@@Z 0000000180002760 f   Cooking.obj
 0001:00001940       ?cookConvexMeshInternal@Cooking@physx@@AEBA_NAEBVPxConvexMeshDesc@2@AEAVConvexMeshBuilder@2@PEAVConvexHullLib@2@PEAW4Enum@PxConvexMeshCookingResult@2@@Z 0000000180002940 f   Cooking.obj
 0001:00001bb0       ?cookHeightField@Cooking@physx@@UEBA_NAEBVPxHeightFieldDesc@2@AEAVPxOutputStream@2@@Z 0000000180002bb0 f   Cooking.obj
 0001:00001c80       ?cookTriangleMesh@Cooking@physx@@UEBA_NAEBVPxTriangleMeshDesc@2@AEAVPxOutputStream@2@PEAW4Enum@PxTriangleMeshCookingResult@2@@Z 0000000180002c80 f   Cooking.obj
 0001:00001dc0       ?copy@?$Array@UPxDebugLine@physx@@V?$ReflectionAllocator@UPxDebugLine@physx@@@shdfnd@2@@shdfnd@physx@@KAXPEAUPxDebugLine@3@0PEBU43@@Z 0000000180002dc0 f i Cooking.obj
 0001:00001f70       ?createBVHStructure@Cooking@physx@@UEBAPEAVPxBVHStructure@2@AEBVPxBVHStructureDesc@2@AEAVPxPhysicsInsertionCallback@2@@Z 0000000180002f70 f   Cooking.obj
 0001:00002020       ?createConvexMesh@Cooking@physx@@UEBAPEAVPxConvexMesh@2@AEBVPxConvexMeshDesc@2@AEAVPxPhysicsInsertionCallback@2@PEAW4Enum@PxConvexMeshCookingResult@2@@Z 0000000180003020 f   Cooking.obj
 0001:00002220       ?createHeightField@Cooking@physx@@UEBAPEAVPxHeightField@2@AEBVPxHeightFieldDesc@2@AEAVPxPhysicsInsertionCallback@2@@Z 0000000180003220 f   Cooking.obj
 0001:00002380       ?createTriangleMesh@Cooking@physx@@UEBAPEAVPxTriangleMesh@2@AEBVPxTriangleMeshDesc@2@AEAVPxPhysicsInsertionCallback@2@PEAW4Enum@PxTriangleMeshCookingResult@2@@Z 0000000180003380 f   Cooking.obj
 0001:000024d0       ?getConcreteTypeName@PxConvexMesh@physx@@UEBAPEBDXZ 00000001800034d0 f i Cooking.obj
 0001:000024e0       ?getConcreteTypeName@PxHeightField@physx@@UEBAPEBDXZ 00000001800034e0 f i Cooking.obj
 0001:000024f0       ?getConvexEdgeThreshold@HeightField@Gu@physx@@UEBAMXZ 00000001800034f0 f i Cooking.obj
 0001:00002500       ?getFlags@HeightField@Gu@physx@@UEBA?AV?$PxFlags@W4Enum@PxHeightFieldFlag@physx@@G@3@XZ 0000000180003500 f i Cooking.obj
 0001:00002510       ?getFormat@HeightField@Gu@physx@@UEBA?AW4Enum@PxHeightFieldFormat@3@XZ 0000000180003510 f i Cooking.obj
 0001:00002520       ?getHeight@HeightField@Gu@physx@@UEBAMMM@Z 0000000180003520 f i Cooking.obj
 0001:00002560       ?getHeightInternal2@HeightField@Gu@physx@@QEBAMIMM@Z 0000000180003560 f i Cooking.obj
 0001:000026d0       ?getIndexBuffer@ConvexMesh@Gu@physx@@UEBAPEBEXZ 00000001800036d0 f i Cooking.obj
 0001:00002710       ?getNbColumns@HeightField@Gu@physx@@UEBAIXZ 0000000180003710 f i Cooking.obj
 0001:00002720       ?getNbPolygons@ConvexMesh@Gu@physx@@UEBAIXZ 0000000180003720 f i Cooking.obj
 0001:00002730       ?getNbRows@HeightField@Gu@physx@@UEBAIXZ 0000000180003730 f i Cooking.obj
 0001:00002740       ?getNbVertices@ConvexMesh@Gu@physx@@UEBAIXZ 0000000180003740 f i Cooking.obj
 0001:00002750       ?getDenormalizeScale@QuantizerImpl@@UEBAAEBVPxVec3@physx@@XZ 0000000180003750 f   Quantizer.obj
 0001:00002750       ?getParams@Cooking@physx@@UEBAAEBUPxCookingParams@2@XZ 0000000180003750 f   Cooking.obj
 0001:00002760       ?getSample@HeightField@Gu@physx@@UEBAAEBUPxHeightFieldSample@3@II@Z 0000000180003760 f i Cooking.obj
 0001:00002770       ?getSampleStride@HeightField@Gu@physx@@UEBAIXZ 0000000180003770 f i Cooking.obj
 0001:00002780       ?getTimestamp@HeightField@Gu@physx@@UEBAIXZ 0000000180003780 f i Cooking.obj
 0001:00002790       ?getTriangleMaterialIndex@HeightField@Gu@physx@@UEBAGI@Z 0000000180003790 f i Cooking.obj
 0001:000027c0       ?getTriangleNormal@HeightField@Gu@physx@@UEBA?AVPxVec3@3@I@Z 00000001800037c0 f i Cooking.obj
 0001:000027e0       ?getTriangleNormalInternal@HeightField@Gu@physx@@QEBA?AVPxVec3@3@I@Z 00000001800037e0 f i Cooking.obj
 0001:00002930       ?getVertices@ConvexMesh@Gu@physx@@UEBAPEBVPxVec3@3@XZ 0000000180003930 f i Cooking.obj
 0001:00002950       ?isKindOf@PxBase@physx@@MEBA_NPEBD@Z 0000000180003950 f i Cooking.obj
 0001:00002980       ?isKindOf@PxConvexMesh@physx@@MEBA_NPEBD@Z 0000000180003980 f i Cooking.obj
 0001:000029d0       ?isKindOf@PxHeightField@physx@@MEBA_NPEBD@Z 00000001800039d0 f i Cooking.obj
 0001:00002a20       ?isReleasable@PxBase@physx@@UEBA_NXZ 0000000180003a20 f i Cooking.obj
 0001:00002a30       ?outputSegment@RenderOutput@Cm@physx@@QEAAXAEBVPxVec3@3@0@Z 0000000180003a30 f i Cooking.obj
 0001:00002af0       ?platformMismatch@Cooking@physx@@UEBA_NXZ 0000000180003af0 f   Cooking.obj
 0001:00002b00       ?preExportDataReset@ConvexMesh@Gu@physx@@QEAAXXZ 0000000180003b00 f i Cooking.obj
 0001:00002b00       ?preExportDataReset@HeightField@Gu@physx@@QEAAXXZ 0000000180003b00 f i Cooking.obj
 0001:00002b10       ?recreate@?$Array@UPxDebugLine@physx@@V?$ReflectionAllocator@UPxDebugLine@physx@@@shdfnd@2@@shdfnd@physx@@IEAAXI@Z 0000000180003b10 f i Cooking.obj
 0001:00002ba0       ?release@Cooking@physx@@UEAAXXZ 0000000180003ba0 f   Cooking.obj
 0001:00002bc0       ?reserveSegments@RenderOutput@Cm@physx@@QEAAPEAUPxDebugLine@3@I@Z 0000000180003bc0 f i Cooking.obj
 0001:00002c20       ?setParams@Cooking@physx@@UEAAXAEBUPxCookingParams@2@@Z 0000000180003c20 f   Cooking.obj
 0001:00002c80       ?validateConvexMesh@Cooking@physx@@UEBA_NAEBVPxConvexMeshDesc@2@@Z 0000000180003c80 f   Cooking.obj
 0001:00002ce0       ?validateTriangleMesh@Cooking@physx@@UEBA_NAEBVPxTriangleMeshDesc@2@@Z 0000000180003ce0 f   Cooking.obj
 0001:00002df0       PxCreateCooking            0000000180003df0 f   Cooking.obj
 0001:00002ee0       ??0ReducedVertexCloud@physx@@QEAA@PEBVPxVec3@1@I@Z 0000000180003ee0 f   CookingUtils.obj
 0001:00002f00       ??1ReducedVertexCloud@physx@@QEAA@XZ 0000000180003f00 f   CookingUtils.obj
 0001:00002f10       ?Clean@ReducedVertexCloud@physx@@QEAAAEAV12@XZ 0000000180003f10 f   CookingUtils.obj
 0001:00002f80       ?Reduce@ReducedVertexCloud@physx@@QEAA_NPEAUREDUCEDCLOUD@2@@Z 0000000180003f80 f   CookingUtils.obj
 0001:000032c0       ??$?_UI@@YAPEAX_KV?$ReflectionAllocator@I@shdfnd@physx@@PEBDH@Z 00000001800042c0 f i EdgeList.obj
 0001:00003360       ??0EdgeListBuilder@Gu@physx@@QEAA@XZ 0000000180004360 f   EdgeList.obj
 0001:00003380       ??1EdgeList@Gu@physx@@QEAA@XZ 0000000180004380 f   EdgeList.obj
 0001:00003420       ??1EdgeListBuilder@Gu@physx@@QEAA@XZ 0000000180004420 f   EdgeList.obj
 0001:00003430       ?computeActiveEdges@EdgeListBuilder@Gu@physx@@AEAA_NIPEBIPEBGPEBVPxVec3@3@M@Z 0000000180004430 f   EdgeList.obj
 0001:00004a40       ?createEdgesToFaces@EdgeListBuilder@Gu@physx@@AEAA_NIPEBIPEBG@Z 0000000180005a40 f   EdgeList.obj
 0001:00004ca0       ?createFacesToEdges@EdgeListBuilder@Gu@physx@@AEAA_NIPEBIPEBG@Z 0000000180005ca0 f   EdgeList.obj
 0001:000050e0       ?init@EdgeListBuilder@Gu@physx@@QEAA_NAEBUEDGELISTCREATE@23@@Z 00000001800060e0 f   EdgeList.obj
 0001:00005200       ??0MeshCleaner@physx@@QEAA@IPEBVPxVec3@1@IPEBIM@Z 0000000180006200 f   MeshCleaner.obj
 0001:00005b70       ??1MeshCleaner@physx@@QEAA@XZ 0000000180006b70 f   MeshCleaner.obj
 0001:00005c00       ??$kmeans_cluster@VPxVec3@physx@@M@@YAIPEBVPxVec3@physx@@IIPEAV01@PEAIMM@Z 0000000180006c00 f i Quantizer.obj
 0001:000065c0       ??_EQuantizer@physx@@MEAAPEAXI@Z 00000001800075c0 f i Quantizer.obj
 0001:000065c0       ??_GQuantizer@physx@@MEAAPEAXI@Z 00000001800075c0 f i Quantizer.obj
 0001:000065f0       ??_EQuantizerImpl@@EEAAPEAXI@Z 00000001800075f0 f i Quantizer.obj
 0001:000065f0       ??_GQuantizerImpl@@EEAAPEAXI@Z 00000001800075f0 f i Quantizer.obj
 0001:000066c0       ?createQuantizer@physx@@YAPEAVQuantizer@1@XZ 00000001800076c0 f   Quantizer.obj
 0001:00006770       ?getDenormalizeCenter@QuantizerImpl@@UEBAAEBVPxVec3@physx@@XZ 0000000180007770 f i Quantizer.obj
 0001:00006780       ?growAndPushBack@?$Array@VPxVec3@physx@@V?$ReflectionAllocator@VPxVec3@physx@@@shdfnd@2@@shdfnd@physx@@IEAAAEAVPxVec3@3@AEBV43@@Z 0000000180007780 f i Quantizer.obj
 0001:00006960       ?kmeansQuantize3D@QuantizerImpl@@UEAAPEBVPxVec3@physx@@IPEBV23@I_NIAEAI@Z 0000000180007960 f i Quantizer.obj
 0001:00006bc0       ?normalizeInput@QuantizerImpl@@AEAAXIPEBVPxVec3@physx@@I@Z 0000000180007bc0 f i Quantizer.obj
 0001:00007010       ?release@QuantizerImpl@@UEAAXXZ 0000000180008010 f i Quantizer.obj
 0001:00007030       ??$copy@V?$ReflectionAllocator@USlab@NodeAllocator@Gu@physx@@@shdfnd@physx@@@?$Array@USlab@NodeAllocator@Gu@physx@@V?$ReflectionAllocator@USlab@NodeAllocator@Gu@physx@@@shdfnd@4@@shdfnd@physx@@IEAAXAEBV012@@Z 0000000180008030 f i BVHStructureBuilder.obj
 0001:000070b0       ??0AABBTreeBuildNode@Gu@physx@@QEAA@AEBV012@@Z 00000001800080b0 f i BVHStructureBuilder.obj
 0001:000070b0       ??4AABBTreeBuildNode@Gu@physx@@QEAAAEAV012@AEBV012@@Z 00000001800080b0 f i BVHStructureBuilder.obj
 0001:000070f0       ??0AABBTreeBuildParams@Gu@physx@@QEAA@IIPEBVPxBounds3@2@@Z 00000001800080f0 f i BVHStructureBuilder.obj
 0001:00007110       ??0BVHStructureBuilder@physx@@QEAA@XZ 0000000180008110 f   BVHStructureBuilder.obj
 0001:00007130       ??0BuildStats@Gu@physx@@QEAA@XZ 0000000180008130 f i BVHStructureBuilder.obj
 0001:00007140       ??0NodeAllocator@Gu@physx@@QEAA@AEBV012@@Z 0000000180008140 f i BVHStructureBuilder.obj
 0001:00007180       ??1AABBTreeBuildParams@Gu@physx@@QEAA@XZ 0000000180008180 f i BVHStructureBuilder.obj
 0001:00007180       ?reset@AABBTreeBuildParams@Gu@physx@@QEAAXXZ 0000000180008180 f i BVHStructureBuilder.obj
 0001:000071e0       ??1BVHStructureBuilder@physx@@QEAA@XZ 00000001800081e0 f   BVHStructureBuilder.obj
 0001:00007260       ??4AABBTreeBuildParams@Gu@physx@@QEAAAEAV012@AEBV012@@Z 0000000180008260 f i BVHStructureBuilder.obj
 0001:00007280       ??4BuildStats@Gu@physx@@QEAAAEAU012@$$QEAU012@@Z 0000000180008280 f i BVHStructureBuilder.obj
 0001:00007290       ??4BuildStats@Gu@physx@@QEAAAEAU012@AEBU012@@Z 0000000180008290 f i BVHStructureBuilder.obj
 0001:000072a0       ??4NodeAllocator@Gu@physx@@QEAAAEAV012@AEBV012@@Z 00000001800082a0 f i BVHStructureBuilder.obj
 0001:00007350       ??_FAABBTreeBuildParams@Gu@physx@@QEAAXXZ 0000000180008350 f i BVHStructureBuilder.obj
 0001:00007370       ??_V@YAXPEAX_K@Z           0000000180008370 f i LIBCMT:delete_array_size.obj
 0001:00007370       ?__global_delete@@YAXPEAX_K@Z 0000000180008370 f i BVHStructureBuilder.obj
 0001:00007380       ?allocate@?$Array@USlab@NodeAllocator@Gu@physx@@V?$ReflectionAllocator@USlab@NodeAllocator@Gu@physx@@@shdfnd@4@@shdfnd@physx@@IEAAPEAUSlab@NodeAllocator@Gu@3@I@Z 0000000180008380 f i BVHStructureBuilder.obj
 0001:00007420       ?flatten@@YAXAEBVNodeAllocator@Gu@physx@@PEAUBVHNode@23@@Z 0000000180008420 f   BVHStructureBuilder.obj
 0001:000075f0       ?getCount@BuildStats@Gu@physx@@QEBAIXZ 00000001800085f0 f i BVHStructureBuilder.obj
 0001:00007600       ?getNbPrimitives@AABBTreeBuildNode@Gu@physx@@QEBAIXZ 0000000180008600 f i BVHStructureBuilder.obj
 0001:00007600       ?getNbRuntimePrimitives@AABBTreeBuildNode@Gu@physx@@QEBAIXZ 0000000180008600 f i BVHStructureBuilder.obj
 0001:00007610       ?getNeg@AABBTreeBuildNode@Gu@physx@@QEBAPEBV123@XZ 0000000180008610 f i BVHStructureBuilder.obj
 0001:00007630       ?getPrimitives@AABBTreeBuildNode@Gu@physx@@QEAAPEAIPEAI@Z 0000000180008630 f i BVHStructureBuilder.obj
 0001:00007630       ?getPrimitives@AABBTreeBuildNode@Gu@physx@@QEBAPEBIPEBI@Z 0000000180008630 f i BVHStructureBuilder.obj
 0001:00007640       ?increaseCount@BuildStats@Gu@physx@@QEAAXI@Z 0000000180008640 f i BVHStructureBuilder.obj
 0001:00007650       ?isLeaf@AABBTreeBuildNode@Gu@physx@@QEBA_NXZ 0000000180008650 f i BVHStructureBuilder.obj
 0001:00007660       ?loadFromDesc@BVHStructureBuilder@physx@@QEAA_NAEBVPxBVHStructureDesc@2@@Z 0000000180008660 f   BVHStructureBuilder.obj
 0001:00007970       ?moveData@BVHStructureBuilder@physx@@QEAAXAEAUBVHStructureData@Gu@2@@Z 0000000180008970 f   BVHStructureBuilder.obj
 0001:000079b0       ?recreate@?$Array@USlab@NodeAllocator@Gu@physx@@V?$ReflectionAllocator@USlab@NodeAllocator@Gu@physx@@@shdfnd@4@@shdfnd@physx@@IEAAXI@Z 00000001800089b0 f i BVHStructureBuilder.obj
 0001:00007a60       ?reset@BuildStats@Gu@physx@@QEAAXXZ 0000000180008a60 f i BVHStructureBuilder.obj
 0001:00007a70       ?save@BVHStructureBuilder@physx@@QEBA_NAEAVPxOutputStream@2@_N@Z 0000000180008a70 f   BVHStructureBuilder.obj
 0001:00007bf0       ?setCount@BuildStats@Gu@physx@@QEAAXI@Z 0000000180008bf0 f i BVHStructureBuilder.obj
 0001:00007c00       ?setNbRunTimePrimitives@AABBTreeBuildNode@Gu@physx@@QEAAXI@Z 0000000180008c00 f i BVHStructureBuilder.obj
 0001:00007c10       ?saveHeightField@physx@@YA_NAEBVHeightField@Gu@1@AEAVPxOutputStream@1@_N@Z 0000000180008c10 f   HeightFieldCooking.obj
 0001:00007e50       ??$quickSelectFirstK@UBoundsLTE@physx@@@quickSelect@physx@@YAXPEIAIIIIAEBUBoundsLTE@1@@Z 0000000180008e50 f i RTreeCooking.obj
 0001:00008030       ??$smallSort@I$$CBUSortBoundsPredicate@physx@@@internal@shdfnd@physx@@YAXPEAIHHAEBUSortBoundsPredicate@2@@Z 0000000180009030 f i RTreeCooking.obj
 0001:000082d0       ??$sort@IU?$Less@I@shdfnd@physx@@V?$ReflectionAllocator@I@23@@shdfnd@physx@@YAXPEAIIAEBU?$Less@I@01@AEBV?$ReflectionAllocator@I@01@I@Z 00000001800092d0 f i RTreeCooking.obj
 0001:00008710       ??$sort@IUSortBoundsPredicate@physx@@V?$ReflectionAllocator@I@shdfnd@2@@shdfnd@physx@@YAXPEAIIAEBUSortBoundsPredicate@1@AEBV?$ReflectionAllocator@I@01@I@Z 0000000180009710 f i RTreeCooking.obj
 0001:00008bc0       ?allocate@?$Array@UInterval@physx@@V?$InlineAllocator@$0CAAA@V?$ReflectionAllocator@UInterval@physx@@@shdfnd@physx@@@shdfnd@2@@shdfnd@physx@@IEAAPEAUInterval@3@I@Z 0000000180009bc0 f i RTreeCooking.obj
 0001:00008c80       ?allocate@?$Array@UPxBounds3V@physx@@V?$ReflectionAllocator@UPxBounds3V@physx@@@shdfnd@2@@shdfnd@physx@@IEAAPEAUPxBounds3V@3@I@Z 0000000180009c80 f i RTreeCooking.obj
 0001:00008d20       ?allocate@?$Array@URTreeNodeNQ@physx@@V?$ReflectionAllocator@URTreeNodeNQ@physx@@@shdfnd@2@@shdfnd@physx@@IEAAPEAURTreeNodeNQ@3@I@Z 0000000180009d20 f i RTreeCooking.obj
 0001:00008dc0       ?allocate@?$Array@URTreeNodeQ@Gu@physx@@V?$ReflectionAllocator@URTreeNodeQ@Gu@physx@@@shdfnd@3@@shdfnd@physx@@IEAAPEAURTreeNodeQ@Gu@3@I@Z 0000000180009dc0 f i RTreeCooking.obj
 0001:00008e60       ?allocate@?$Array@VPxVec3@physx@@V?$ReflectionAllocator@VPxVec3@physx@@@shdfnd@2@@shdfnd@physx@@IEAAPEAVPxVec3@3@I@Z 0000000180009e60 f i RTreeCooking.obj
 0001:00008f00       ?allocate@?$ReflectionAllocator@I@shdfnd@physx@@QEAAPEAX_KPEBDH@Z 0000000180009f00 f i RTreeCooking.obj
 0001:00009be0       ?buildFromTriangles@RTreeCooker@physx@@SAXAEAURTree@Gu@2@PEBVPxVec3@2@IPEBGPEBIIAEAV?$Array@IV?$ReflectionAllocator@I@shdfnd@physx@@@shdfnd@2@PEAURemapCallback@12@MW4Enum@PxMeshCookingHint@2@@Z 000000018000abe0 f   RTreeCooking.obj
 0001:00009ea0       ?copy@?$Array@URTreeNodeNQ@physx@@V?$ReflectionAllocator@URTreeNodeNQ@physx@@@shdfnd@2@@shdfnd@physx@@KAXPEAURTreeNodeNQ@3@0PEBU43@@Z 000000018000aea0 f i RTreeCooking.obj
 0001:0000a060       ?copy@?$Array@VPxVec3@physx@@V?$ReflectionAllocator@VPxVec3@physx@@@shdfnd@2@@shdfnd@physx@@KAXPEAVPxVec3@3@0PEBV43@@Z 000000018000b060 f i RTreeCooking.obj
 0001:0000a130       ?growAndPushBack@?$Array@IV?$ReflectionAllocator@I@shdfnd@physx@@@shdfnd@physx@@IEAAAEAIAEBI@Z 000000018000b130 f i RTreeCooking.obj
 0001:0000a200       ?growAndPushBack@?$Array@UInterval@physx@@V?$InlineAllocator@$0CAAA@V?$ReflectionAllocator@UInterval@physx@@@shdfnd@physx@@@shdfnd@2@@shdfnd@physx@@IEAAAEAUInterval@3@AEBU43@@Z 000000018000b200 f i RTreeCooking.obj
 0001:0000a2e0       ?growAndPushBack@?$Array@UPxBounds3V@physx@@V?$ReflectionAllocator@UPxBounds3V@physx@@@shdfnd@2@@shdfnd@physx@@IEAAAEAUPxBounds3V@3@AEBU43@@Z 000000018000b2e0 f i RTreeCooking.obj
 0001:0000a3b0       ?growAndPushBack@?$Array@URTreeNodeNQ@physx@@V?$ReflectionAllocator@URTreeNodeNQ@physx@@@shdfnd@2@@shdfnd@physx@@IEAAAEAURTreeNodeNQ@3@AEBU43@@Z 000000018000b3b0 f i RTreeCooking.obj
 0001:0000a480       ?growAndPushBack@?$Array@URTreeNodeQ@Gu@physx@@V?$ReflectionAllocator@URTreeNodeQ@Gu@physx@@@shdfnd@3@@shdfnd@physx@@IEAAAEAURTreeNodeQ@Gu@3@AEBU453@@Z 000000018000b480 f i RTreeCooking.obj
 0001:0000a560       ?recreate@?$Array@IV?$ReflectionAllocator@I@shdfnd@physx@@@shdfnd@physx@@IEAAXI@Z 000000018000b560 f i RTreeCooking.obj
 0001:0000a620       ?recreate@?$Array@UPxBounds3V@physx@@V?$ReflectionAllocator@UPxBounds3V@physx@@@shdfnd@2@@shdfnd@physx@@IEAAXI@Z 000000018000b620 f i RTreeCooking.obj
 0001:0000a6d0       ?recreate@?$Array@URTreeNodeNQ@physx@@V?$ReflectionAllocator@URTreeNodeNQ@physx@@@shdfnd@2@@shdfnd@physx@@IEAAXI@Z 000000018000b6d0 f i RTreeCooking.obj
 0001:0000a760       ?recreate@?$Array@URTreeNodeQ@Gu@physx@@V?$ReflectionAllocator@URTreeNodeQ@Gu@physx@@@shdfnd@3@@shdfnd@physx@@IEAAXI@Z 000000018000b760 f i RTreeCooking.obj
 0001:0000a820       ?recreate@?$Array@VPxVec3@physx@@V?$ReflectionAllocator@VPxVec3@physx@@@shdfnd@2@@shdfnd@physx@@IEAAXI@Z 000000018000b820 f i RTreeCooking.obj
 0001:0000a8b0       ?resize@?$Array@IV?$ReflectionAllocator@I@shdfnd@physx@@@shdfnd@physx@@QEAAXIAEBI@Z 000000018000b8b0 f i RTreeCooking.obj
 0001:0000a970       ?resizeUninitialized@?$Array@URTreeNodeNQ@physx@@V?$ReflectionAllocator@URTreeNodeNQ@physx@@@shdfnd@2@@shdfnd@physx@@QEAAXI@Z 000000018000b970 f i RTreeCooking.obj
 0001:0000a9b0       ?sort4@SubSortQuick@physx@@QEAAXPEIAIIAEAV?$Array@URTreeNodeNQ@physx@@V?$ReflectionAllocator@URTreeNodeNQ@physx@@@shdfnd@2@@shdfnd@2@AEAIAEAUPxBounds3V@2@I@Z 000000018000b9b0 f i RTreeCooking.obj
 0001:0000ad40       ?sort4@SubSortSAH@physx@@QEAAXPEAIIAEAV?$Array@URTreeNodeNQ@physx@@V?$ReflectionAllocator@URTreeNodeNQ@physx@@@shdfnd@2@@shdfnd@2@AEAIIPEAURTreeNodeNQ@2@@Z 000000018000bd40 f i RTreeCooking.obj
 0001:0000b5b0       ?split@SubSortSAH@physx@@QEAAIPEAII@Z 000000018000c5b0 f i RTreeCooking.obj
 0001:0000c030       ?computeLocalBounds@MeshBulider@physx@@IEAAXAEAVMeshDataBase@Gu@2@@Z 000000018000d030 f   MeshBuilder.obj
 0001:0000c0c0       ??$?_UG@@YAPEAX_KV?$ReflectionAllocator@G@shdfnd@physx@@PEBDH@Z 000000018000d0c0 f i TriangleMeshBuilder.obj
 0001:0000c160       ??$sort@UEdgeTriLookup@physx@@U?$Less@UEdgeTriLookup@physx@@@shdfnd@2@V?$ReflectionAllocator@UEdgeTriLookup@physx@@@42@@shdfnd@physx@@YAXPEAUEdgeTriLookup@1@IAEBU?$Less@UEdgeTriLookup@physx@@@01@AEBV?$ReflectionAllocator@UEdgeTriLookup@physx@@@01@I@Z 000000018000d160 f i TriangleMeshBuilder.obj
 0001:0000c6e0       ??0BV4TriangleMeshBuilder@physx@@QEAA@AEBUPxCookingParams@1@@Z 000000018000d6e0 f   TriangleMeshBuilder.obj
 0001:0000c7b0       ??0RTreeTriangleMeshBuilder@physx@@QEAA@AEBUPxCookingParams@1@@Z 000000018000d7b0 f   TriangleMeshBuilder.obj
 0001:0000c870       ??1BV4TriangleMeshBuilder@physx@@UEAA@XZ 000000018000d870 f   TriangleMeshBuilder.obj
 0001:0000c8d0       ??1MeshDataBase@Gu@physx@@UEAA@XZ 000000018000d8d0 f i TriangleMeshBuilder.obj
 0001:0000c9b0       ??1RTreeTriangleData@Gu@physx@@UEAA@XZ 000000018000d9b0 f i TriangleMeshBuilder.obj
 0001:0000ca20       ??1RTreeTriangleMeshBuilder@physx@@UEAA@XZ 000000018000da20 f   TriangleMeshBuilder.obj
 0001:0000ca50       ??1TriangleMeshBuilder@physx@@UEAA@XZ 000000018000da50 f   TriangleMeshBuilder.obj
 0001:0000cab0       ??1TriangleMeshData@Gu@physx@@UEAA@XZ 000000018000dab0 f i TriangleMeshBuilder.obj
 0001:0000cb80       ??_EBV4TriangleData@Gu@physx@@UEAAPEAXI@Z 000000018000db80 f i TriangleMeshBuilder.obj
 0001:0000cb80       ??_GBV4TriangleData@Gu@physx@@UEAAPEAXI@Z 000000018000db80 f i TriangleMeshBuilder.obj
 0001:0000cc00       ??_EBV4TriangleMeshBuilder@physx@@UEAAPEAXI@Z 000000018000dc00 f i TriangleMeshBuilder.obj
 0001:0000cc00       ??_GBV4TriangleMeshBuilder@physx@@UEAAPEAXI@Z 000000018000dc00 f i TriangleMeshBuilder.obj
 0001:0000cc80       ??_EMeshDataBase@Gu@physx@@UEAAPEAXI@Z 000000018000dc80 f i TriangleMeshBuilder.obj
 0001:0000cc80       ??_GMeshDataBase@Gu@physx@@UEAAPEAXI@Z 000000018000dc80 f i TriangleMeshBuilder.obj
 0001:0000cce0       ??_ERTreeCookerRemap@physx@@UEAAPEAXI@Z 000000018000dce0 f i TriangleMeshBuilder.obj
 0001:0000cce0       ??_GRTreeCookerRemap@physx@@UEAAPEAXI@Z 000000018000dce0 f i TriangleMeshBuilder.obj
 0001:0000cd10       ??_ERTreeTriangleData@Gu@physx@@UEAAPEAXI@Z 000000018000dd10 f i TriangleMeshBuilder.obj
 0001:0000cd10       ??_GRTreeTriangleData@Gu@physx@@UEAAPEAXI@Z 000000018000dd10 f i TriangleMeshBuilder.obj
 0001:0000cd70       ??_ERTreeTriangleMeshBuilder@physx@@UEAAPEAXI@Z 000000018000dd70 f i TriangleMeshBuilder.obj
 0001:0000cd70       ??_GRTreeTriangleMeshBuilder@physx@@UEAAPEAXI@Z 000000018000dd70 f i TriangleMeshBuilder.obj
 0001:0000cdc0       ??_ERemapCallback@RTreeCooker@physx@@UEAAPEAXI@Z 000000018000ddc0 f i TriangleMeshBuilder.obj
 0001:0000cdc0       ??_GRemapCallback@RTreeCooker@physx@@UEAAPEAXI@Z 000000018000ddc0 f i TriangleMeshBuilder.obj
 0001:0000cdf0       ??_ETriangleMeshBuilder@physx@@UEAAPEAXI@Z 000000018000ddf0 f i TriangleMeshBuilder.obj
 0001:0000cdf0       ??_GTriangleMeshBuilder@physx@@UEAAPEAXI@Z 000000018000ddf0 f i TriangleMeshBuilder.obj
 0001:0000ce30       ??_ETriangleMeshData@Gu@physx@@UEAAPEAXI@Z 000000018000de30 f i TriangleMeshBuilder.obj
 0001:0000ce30       ??_GTriangleMeshData@Gu@physx@@UEAAPEAXI@Z 000000018000de30 f i TriangleMeshBuilder.obj
 0001:0000ce90       ?allocateTriangles@TriangleMeshData@Gu@physx@@QEAAPEAXI_NI@Z 000000018000de90 f i TriangleMeshBuilder.obj
 0001:0000cf70       ?allocateVertices@MeshDataBase@Gu@physx@@QEAAPEAVPxVec3@3@I@Z 000000018000df70 f i TriangleMeshBuilder.obj
 0001:0000d490       ?checkMeshIndicesSize@TriangleMeshBuilder@physx@@QEAAXXZ 000000018000e490 f   TriangleMeshBuilder.obj
 0001:0000d5a0       ?cleanMesh@TriangleMeshBuilder@physx@@QEAA_N_NPEAW4Enum@PxTriangleMeshCookingResult@2@@Z 000000018000e5a0 f   TriangleMeshBuilder.obj
 0001:0000dac0       ?createGRBMidPhaseAndData@TriangleMeshBuilder@physx@@QEAAXI@Z 000000018000eac0 f   TriangleMeshBuilder.obj
 0001:0000dd40       ?createMidPhaseStructure@BV32TriangleMeshBuilder@physx@@SAXAEBUPxCookingParams@2@AEAVTriangleMeshData@Gu@2@AEAVBV32Tree@52@@Z 000000018000ed40 f   TriangleMeshBuilder.obj
 0001:0000df20       ?createMidPhaseStructure@BV4TriangleMeshBuilder@physx@@UEAAXXZ 000000018000ef20 f   TriangleMeshBuilder.obj
 0001:0000e1e0       ?createMidPhaseStructure@RTreeTriangleMeshBuilder@physx@@UEAAXXZ 000000018000f1e0 f   TriangleMeshBuilder.obj
 0001:0000e2c0       ?createSharedEdgeData@TriangleMeshBuilder@physx@@QEAAX_N0@Z 000000018000f2c0 f   TriangleMeshBuilder.obj
 0001:0000e960       ?getMidphaseID@BV4TriangleMeshBuilder@physx@@UEBA?AW4Enum@PxMeshMidPhase@2@XZ 000000018000f960 f i TriangleMeshBuilder.obj
 0001:0000e960       ?length@charNode@@UEBAHXZ  000000018000f960 f i libvcruntime:undname.obj
 0001:0000e960       ?raw_length@charNode@@UEBAHXZ 000000018000f960 f i libvcruntime:undname.obj
 0001:0000e960       DllMain                    000000018000f960 f i LIBCMT:dll_dllmain_stub.obj
 0001:0000e960       _get_startup_argv_mode     000000018000f960 f i LIBCMT:argv_mode.obj
 0001:0000e970       ?getMidphaseID@RTreeTriangleMeshBuilder@physx@@UEBA?AW4Enum@PxMeshMidPhase@2@XZ 000000018000f970 f i TriangleMeshBuilder.obj
 0001:0000e980       ?importMesh@TriangleMeshBuilder@physx@@IEAA_NAEBVPxTriangleMeshDesc@2@AEBUPxCookingParams@2@PEAW4Enum@PxTriangleMeshCookingResult@2@_N@Z 000000018000f980 f   TriangleMeshBuilder.obj
 0001:0000ed00       ?loadFromDesc@TriangleMeshBuilder@physx@@QEAA_NAEBVPxTriangleMeshDesc@2@PEAW4Enum@PxTriangleMeshCookingResult@2@_N@Z 000000018000fd00 f   TriangleMeshBuilder.obj
 0001:0000f180       ?onMeshIndexFormatChange@BV4TriangleMeshBuilder@physx@@UEAAXXZ 0000000180010180 f   TriangleMeshBuilder.obj
 0001:0000f1c0       ?remap@RTreeCookerRemap@physx@@UEAAXPEAIII@Z 00000001800101c0 f i TriangleMeshBuilder.obj
 0001:0000f1e0       ?remapTopology@TriangleMeshBuilder@physx@@QEAAXPEBI@Z 00000001800101e0 f   TriangleMeshBuilder.obj
 0001:0000f4d0       ?save@TriangleMeshBuilder@physx@@QEBA_NAEAVPxOutputStream@2@_NAEBUPxCookingParams@2@@Z 00000001800104d0 f   TriangleMeshBuilder.obj
 0001:0000faa0       ?saveMidPhaseStructure@BV4TriangleMeshBuilder@physx@@UEBAXAEAVPxOutputStream@2@_N@Z 0000000180010aa0 f   TriangleMeshBuilder.obj
 0001:0000fc40       ?saveMidPhaseStructure@RTreeTriangleMeshBuilder@physx@@UEBAXAEAVPxOutputStream@2@_N@Z 0000000180010c40 f   TriangleMeshBuilder.obj
 0001:0000fe80       ??0BigConvexDataBuilder@physx@@QEAA@PEBUConvexHullData@Gu@1@PEAVBigConvexData@1@PEBVPxVec3@1@@Z 0000000180010e80 f   BigConvexDataBuilder.obj
 0001:0000fe90       ??4BigConvexData@physx@@QEAAAEAV01@AEBV01@@Z 0000000180010e90 f i BigConvexDataBuilder.obj
 0001:0000feb0       ?GetAdjacentVerts@BigConvexData@physx@@QEBAPEBEXZ 0000000180010eb0 f i BigConvexDataBuilder.obj
 0001:0000fec0       ?GetNbNeighbors@BigConvexData@physx@@QEBAGI@Z 0000000180010ec0 f i BigConvexDataBuilder.obj
 0001:0000fec0       ?GetValency@BigConvexData@physx@@QEBAGI@Z 0000000180010ec0 f i BigConvexDataBuilder.obj
 0001:0000fed0       ?GetNbSamples@BigConvexData@physx@@QEBAIXZ 0000000180010ed0 f i BigConvexDataBuilder.obj
 0001:0000fee0       ?GetNbVerts@BigConvexData@physx@@QEBAIXZ 0000000180010ee0 f i BigConvexDataBuilder.obj
 0001:0000fee0       ?length@pcharNode@@UEBAHXZ 0000000180010ee0 f i libvcruntime:undname.obj
 0001:0000fee0       ?raw_length@pcharNode@@UEBAHXZ 0000000180010ee0 f i libvcruntime:undname.obj
 0001:0000fef0       ?GetNeighbors@BigConvexData@physx@@QEBAPEBEI@Z 0000000180010ef0 f i BigConvexDataBuilder.obj
 0001:0000ff00       ?GetOffset@BigConvexData@physx@@QEBAGI@Z 0000000180010f00 f i BigConvexDataBuilder.obj
 0001:0000ff10       ?GetSubdiv@BigConvexData@physx@@QEBAIXZ 0000000180010f10 f i BigConvexDataBuilder.obj
 0001:0000ff20       ?computeValencies@BigConvexDataBuilder@physx@@QEAA_NAEBVConvexHullBuilder@2@@Z 0000000180010f20 f   BigConvexDataBuilder.obj
 0001:00010310       ?precompute@BigConvexDataBuilder@physx@@QEAA_NI@Z 0000000180011310 f   BigConvexDataBuilder.obj
 0001:00010f40       ?save@BigConvexDataBuilder@physx@@QEBA_NAEAVPxOutputStream@2@_N@Z 0000000180011f40 f   BigConvexDataBuilder.obj
 0001:00011020       ?saveValencies@BigConvexDataBuilder@physx@@QEBA_NAEAVPxOutputStream@2@_N@Z 0000000180012020 f   BigConvexDataBuilder.obj
 0001:000111c0       ??$?_UE@@YAPEAX_KV?$ReflectionAllocator@E@shdfnd@physx@@PEBDH@Z 00000001800121c0 f i ConvexHullBuilder.obj
 0001:00011260       ??0ConvexHullBuilder@physx@@QEAA@PEAUConvexHullData@Gu@1@_N@Z 0000000180012260 f   ConvexHullBuilder.obj
 0001:00011290       ??1ConvexHullBuilder@physx@@QEAA@XZ 0000000180012290 f   ConvexHullBuilder.obj
 0001:00011390       ?calculateVertexMapTable@ConvexHullBuilder@physx@@QEAA_NI_N@Z 0000000180012390 f   ConvexHullBuilder.obj
 0001:000115a0       ?checkHullPolygons@ConvexHullBuilder@physx@@QEBA_NXZ 00000001800125a0 f   ConvexHullBuilder.obj
 0001:00011b80       ?computeGeomCenter@ConvexHullBuilder@physx@@IEBA_NAEAVPxVec3@2@IPEAUHullTriangleData@2@@Z 0000000180012b80 f   ConvexHullBuilder.obj
 0001:00011e40       ?copy@ConvexHullBuilder@physx@@QEAA_NAEAUConvexHullData@Gu@2@AEAI@Z 0000000180012e40 f   ConvexHullBuilder.obj
 0001:000120b0       ?createEdgeList@ConvexHullBuilder@physx@@QEAA_N_NI@Z 00000001800130b0 f   ConvexHullBuilder.obj
 0001:00012900       ?init@ConvexHullBuilder@physx@@QEAA_NIPEBVPxVec3@2@PEBIIIPEBUPxHullPolygon@2@_NPEAVConvexHullLib@2@@Z 0000000180013900 f   ConvexHullBuilder.obj
 0001:00013240       ?save@ConvexHullBuilder@physx@@QEBA_NAEAVPxOutputStream@2@_N@Z 0000000180014240 f   ConvexHullBuilder.obj
 0001:00013560       ??1ConvexHullLib@physx@@UEAA@XZ 0000000180014560 f   ConvexHullLib.obj
 0001:000135c0       ??_EConvexHullLib@physx@@UEAAPEAXI@Z 00000001800145c0 f i ConvexHullLib.obj
 0001:000135c0       ??_GConvexHullLib@physx@@UEAAPEAXI@Z 00000001800145c0 f i ConvexHullLib.obj
 0001:00013b20       ?cleanupVertices@ConvexHullLib@physx@@IEAA_NIPEBVPxVec3@2@IAEAIPEAV32@AEAV32@3@Z 0000000180014b20 f   ConvexHullLib.obj
 0001:00013fb0       ?shiftAndcleanupVertices@ConvexHullLib@physx@@IEAA_NIPEBVPxVec3@2@IAEAIPEAV32@AEAV32@3@Z 0000000180014fb0 f   ConvexHullLib.obj
 0001:00014460       ?shiftConvexMeshDesc@ConvexHullLib@physx@@IEAAXAEAVPxConvexMeshDesc@2@@Z 0000000180015460 f   ConvexHullLib.obj
 0001:00014520       ?swapLargestFace@ConvexHullLib@physx@@IEAAXAEAVPxConvexMeshDesc@2@@Z 0000000180015520 f   ConvexHullLib.obj
 0001:00014710       ??0Box@Gu@physx@@QEAA@AEBV012@@Z 0000000180015710 f i ConvexHullUtils.obj
 0001:00014710       ??4Box@Gu@physx@@QEAAAEBV012@AEBV012@@Z 0000000180015710 f i ConvexHullUtils.obj
 0001:00014770       ??0Box@Gu@physx@@QEAA@AEBVPxVec3@2@0AEBVPxMat33@2@@Z 0000000180015770 f i ConvexHullUtils.obj
 0001:000147e0       ??0ConvexHull@physx@@QEAA@AEBVPxVec3@1@AEBVPxTransform@1@AEBV?$Array@VPxPlane@physx@@V?$ReflectionAllocator@VPxPlane@physx@@@shdfnd@2@@shdfnd@1@@Z 00000001800157e0 f   ConvexHullUtils.obj
 0001:00015930       ??0PxQuat@physx@@QEAA@AEBVPxMat33@1@@Z 0000000180016930 f i ConvexHullUtils.obj
 0001:00015b30       ?allocate@?$Array@VHalfEdge@ConvexHull@physx@@V?$ReflectionAllocator@VHalfEdge@ConvexHull@physx@@@shdfnd@3@@shdfnd@physx@@IEAAPEAVHalfEdge@ConvexHull@3@I@Z 0000000180016b30 f i ConvexHullUtils.obj
 0001:00015bd0       ?allocate@?$Array@VPxPlane@physx@@V?$ReflectionAllocator@VPxPlane@physx@@@shdfnd@2@@shdfnd@physx@@IEAAPEAVPxPlane@3@I@Z 0000000180016bd0 f i ConvexHullUtils.obj
 0001:00015c70       ?assertIntact@ConvexHull@physx@@QEBA_NM@Z 0000000180016c70 f   ConvexHullUtils.obj
 0001:00015f90       ?computeAABBExtent@Box@Gu@physx@@QEBA?AVPxVec3@3@XZ 0000000180016f90 f i ConvexHullUtils.obj
 0001:00016050       ?computeBoxPoints@Box@Gu@physx@@QEBAXPEIAVPxVec3@3@@Z 0000000180017050 f i ConvexHullUtils.obj
 0001:00016090       ?computeOBBFromConvex@physx@@YA_NAEBVPxConvexMeshDesc@1@AEAVPxVec3@1@AEAVPxTransform@1@@Z 0000000180017090 f   ConvexHullUtils.obj
 0001:00016770       ?computeOBBSIMD@local@@YAXIPEBT__m128@@AEAT2@AEBT2@1@Z 0000000180017770 f   ConvexHullUtils.obj
 0001:00016b50       ?convexHullCrop@physx@@YAPEAVConvexHull@1@AEBV21@AEBVPxPlane@1@M@Z 0000000180017b50 f   ConvexHullUtils.obj
 0001:00017940       ?copy@?$Array@VPxPlane@physx@@V?$ReflectionAllocator@VPxPlane@physx@@@shdfnd@2@@shdfnd@physx@@KAXPEAVPxPlane@3@0PEBV43@@Z 0000000180018940 f i ConvexHullUtils.obj
 0001:00017a40       ?findCandidatePlane@ConvexHull@physx@@QEBAHMM@Z 0000000180018a40 f   ConvexHullUtils.obj
 0001:00017e90       ?getInverse@PxMat33@physx@@QEBA?BV12@XZ 0000000180018e90 f i ConvexHullUtils.obj
 0001:000180e0       ?getTransform@Box@Gu@physx@@QEBA?AVPxTransform@3@XZ 00000001800190e0 f i ConvexHullUtils.obj
 0001:00018140       ?growAndPushBack@?$Array@VHalfEdge@ConvexHull@physx@@V?$ReflectionAllocator@VHalfEdge@ConvexHull@physx@@@shdfnd@3@@shdfnd@physx@@IEAAAEAVHalfEdge@ConvexHull@3@AEBV453@@Z 0000000180019140 f i ConvexHullUtils.obj
 0001:00018200       ?growAndPushBack@?$Array@VPxPlane@physx@@V?$ReflectionAllocator@VPxPlane@physx@@@shdfnd@2@@shdfnd@physx@@IEAAAEAVPxPlane@3@AEBV43@@Z 0000000180019200 f i ConvexHullUtils.obj
 0001:000182c0       ?isValid@Box@Gu@physx@@QEBA_NXZ 00000001800192c0 f i ConvexHullUtils.obj
 0001:000182e0       ?maxNumVertsPerFace@ConvexHull@physx@@QEBAIXZ 00000001800192e0 f   ConvexHullUtils.obj
 0001:00018350       ?recreate@?$Array@VHalfEdge@ConvexHull@physx@@V?$ReflectionAllocator@VHalfEdge@ConvexHull@physx@@@shdfnd@3@@shdfnd@physx@@IEAAXI@Z 0000000180019350 f i ConvexHullUtils.obj
 0001:000183f0       ?recreate@?$Array@VPxPlane@physx@@V?$ReflectionAllocator@VPxPlane@physx@@@shdfnd@2@@shdfnd@physx@@IEAAXI@Z 00000001800193f0 f i ConvexHullUtils.obj
 0001:00018480       ?resize@?$Array@VHalfEdge@ConvexHull@physx@@V?$ReflectionAllocator@VHalfEdge@ConvexHull@physx@@@shdfnd@3@@shdfnd@physx@@QEAAXIAEBVHalfEdge@ConvexHull@3@@Z 0000000180019480 f i ConvexHullUtils.obj
 0001:00018540       ?resize@?$Array@VPxPlane@physx@@V?$ReflectionAllocator@VPxPlane@physx@@@shdfnd@2@@shdfnd@physx@@QEAAXIAEBVPxPlane@3@@Z 0000000180019540 f i ConvexHullUtils.obj
 0001:00018660       ?resize@?$Array@VPxVec3@physx@@V?$ReflectionAllocator@VPxVec3@physx@@@shdfnd@2@@shdfnd@physx@@QEAAXIAEBVPxVec3@3@@Z 0000000180019660 f i ConvexHullUtils.obj
 0001:00018750       ?rotate@Box@Gu@physx@@QEBA?AVPxVec3@3@AEBV43@@Z 0000000180019750 f i ConvexHullUtils.obj
 0001:000187e0       ?rotateInv@Box@Gu@physx@@QEBA?AVPxVec3@3@AEBV43@@Z 00000001800197e0 f i ConvexHullUtils.obj
 0001:00018870       ?setAxes@Box@Gu@physx@@QEAAXAEBVPxVec3@3@00@Z 0000000180019870 f i ConvexHullUtils.obj
 0001:000188b0       ?setEmpty@Box@Gu@physx@@QEAAXXZ 00000001800198b0 f i ConvexHullUtils.obj
 0001:000188f0       ?transform@Box@Gu@physx@@QEBA?AVPxVec3@3@AEBV43@@Z 00000001800198f0 f i ConvexHullUtils.obj
 0001:00018990       ??0ConvexMeshBuilder@physx@@QEAA@_N@Z 0000000180019990 f   ConvexMeshBuilder.obj
 0001:000189f0       ??1ConvexMeshBuilder@physx@@QEAA@XZ 00000001800199f0 f   ConvexMeshBuilder.obj
 0001:00018e40       ?build@ConvexMeshBuilder@physx@@QEAA_NAEBVPxConvexMeshDesc@2@I_NPEAVConvexHullLib@2@@Z 0000000180019e40 f   ConvexMeshBuilder.obj
 0001:00019150       ?computeHullPolygons@ConvexMeshBuilder@physx@@QEAA_NAEBIPEBVPxVec3@2@0PEBIAEAVPxAllocatorCallback@2@AEAIAEAPEAV32@4AEAPEAI4AEAPEAUPxHullPolygon@2@@Z 000000018001a150 f   ConvexMeshBuilder.obj
 0001:00019370       ?computeMassInfo@ConvexMeshBuilder@physx@@QEAAX_N@Z 000000018001a370 f   ConvexMeshBuilder.obj
 0001:00019740       ?copy@ConvexMeshBuilder@physx@@QEAA_NAEAUConvexHullInitData@Gu@2@@Z 000000018001a740 f   ConvexMeshBuilder.obj
 0001:00019860       ?isFinite@PxVec3@physx@@QEBA_NXZ 000000018001a860 f i ConvexMeshBuilder.obj
 0001:000198c0       ?loadConvexHull@ConvexMeshBuilder@physx@@QEAA_NAEBVPxConvexMeshDesc@2@PEAVConvexHullLib@2@@Z 000000018001a8c0 f   ConvexMeshBuilder.obj
 0001:00019b30       ?save@ConvexMeshBuilder@physx@@QEBA_NAEAVPxOutputStream@2@_N@Z 000000018001ab30 f   ConvexMeshBuilder.obj
 0001:00019d40       ??$copy@V?$ReflectionAllocator@VPair@@@shdfnd@physx@@@?$Array@VPair@@V?$ReflectionAllocator@VPair@@@shdfnd@physx@@@shdfnd@physx@@IEAAXAEBV012@@Z 000000018001ad40 f i ConvexPolygonsBuilder.obj
 0001:00019dc0       ??0ConvexPolygonsBuilder@physx@@QEAA@PEAUConvexHullData@Gu@1@_N@Z 000000018001adc0 f   ConvexPolygonsBuilder.obj
 0001:00019de0       ??1ConvexPolygonsBuilder@physx@@QEAA@XZ 000000018001ade0 f   ConvexPolygonsBuilder.obj
 0001:0001a630       ?allocate@?$Array@VPair@@V?$ReflectionAllocator@VPair@@@shdfnd@physx@@@shdfnd@physx@@IEAAPEAVPair@@I@Z 000000018001b630 f i ConvexPolygonsBuilder.obj
 0001:0001ae60       ?computeHullPolygons@ConvexPolygonsBuilder@physx@@QEAA_NAEBIPEBVPxVec3@2@0PEBI@Z 000000018001be60 f   ConvexPolygonsBuilder.obj
 0001:0001bf40       ?createPolygonData@ConvexPolygonsBuilder@physx@@AEAA_NXZ 000000018001cf40 f   ConvexPolygonsBuilder.obj
 0001:0001cb30       ?createTrianglesFromPolygons@ConvexPolygonsBuilder@physx@@AEAA_NXZ 000000018001db30 f   ConvexPolygonsBuilder.obj
 0001:0001e190       ?growAndPushBack@?$Array@VPair@@V?$ReflectionAllocator@VPair@@@shdfnd@physx@@@shdfnd@physx@@IEAAAEAVPair@@AEBV4@@Z 000000018001f190 f i ConvexPolygonsBuilder.obj
 0001:0001e260       ??0QuickHull@local@@QEAA@AEBUPxCookingParams@physx@@AEBVPxConvexMeshDesc@3@@Z 000000018001f260 f   QuickHullConvexHullLib.obj
 0001:0001e310       ??0QuickHullConvexHullLib@physx@@QEAA@AEBVPxConvexMeshDesc@1@AEBUPxCookingParams@1@@Z 000000018001f310 f   QuickHullConvexHullLib.obj
 0001:0001e400       ??1?$MemBlock@UQuickHullFace@local@@$00@local@@QEAA@XZ 000000018001f400 f i QuickHullConvexHullLib.obj
 0001:0001e400       ??1?$MemBlock@UQuickHullHalfEdge@local@@$0A@@local@@QEAA@XZ 000000018001f400 f i QuickHullConvexHullLib.obj
 0001:0001e490       ??1QuickHull@local@@QEAA@XZ 000000018001f490 f   QuickHullConvexHullLib.obj
 0001:0001e5d0       ??_GConvexHull@physx@@QEAAPEAXI@Z 000000018001f5d0 f i QuickHullConvexHullLib.obj
 0001:0001e6b0       ??_EQuickHullConvexHullLib@physx@@UEAAPEAXI@Z 000000018001f6b0 f i QuickHullConvexHullLib.obj
 0001:0001e6b0       ??_GQuickHullConvexHullLib@physx@@UEAAPEAXI@Z 000000018001f6b0 f i QuickHullConvexHullLib.obj
 0001:0001e7b0       ?addPointToHull@QuickHull@local@@IEAA_NPEBUQuickHullVertex@2@AEAUQuickHullFace@2@AEA_N@Z 000000018001f7b0 f   QuickHullConvexHullLib.obj
 0001:0001ea80       ?addSimplex@QuickHull@local@@IEAAXPEAUQuickHullVertex@2@_N@Z 000000018001fa80 f   QuickHullConvexHullLib.obj
 0001:0001ef50       ?allocate@?$Array@PEAUQuickHullFace@local@@V?$ReflectionAllocator@PEAUQuickHullFace@local@@@shdfnd@physx@@@shdfnd@physx@@IEAAPEAPEAUQuickHullFace@local@@I@Z 000000018001ff50 f i QuickHullConvexHullLib.obj
 0001:0001eff0       ?allocate@?$Array@PEAUQuickHullHalfEdge@local@@V?$ReflectionAllocator@PEAUQuickHullHalfEdge@local@@@shdfnd@physx@@@shdfnd@physx@@IEAAPEAPEAUQuickHullHalfEdge@local@@I@Z 000000018001fff0 f i QuickHullConvexHullLib.obj
 0001:0001f090       ?allocate@?$Array@PEAUQuickHullVertex@local@@V?$ReflectionAllocator@PEAUQuickHullVertex@local@@@shdfnd@physx@@@shdfnd@physx@@IEAAPEAPEAUQuickHullVertex@local@@I@Z 0000000180020090 f i QuickHullConvexHullLib.obj
 0001:0001f130       ?allocate@?$Array@UExpandPoint@local@@V?$ReflectionAllocator@UExpandPoint@local@@@shdfnd@physx@@@shdfnd@physx@@IEAAPEAUExpandPoint@local@@I@Z 0000000180020130 f i QuickHullConvexHullLib.obj
 0001:0001f1d0       ?buildHull@QuickHull@local@@QEAA?AW4Enum@QuickHullResult@2@XZ 00000001800201d0 f   QuickHullConvexHullLib.obj
 0001:0001f3e0       ?calculateHorizon@QuickHull@local@@IEAAXAEBVPxVec3@physx@@PEAUQuickHullHalfEdge@2@AEAUQuickHullFace@2@AEAV?$Array@PEAUQuickHullHalfEdge@local@@V?$ReflectionAllocator@PEAUQuickHullHalfEdge@local@@@shdfnd@physx@@@shdfnd@4@AEAV?$Array@PEAUQuickHullFace@local@@V?$ReflectionAllocator@PEAUQuickHullFace@local@@@shdfnd@physx@@@84@@Z 00000001800203e0 f   QuickHullConvexHullLib.obj
 0001:0001f590       ?canMergeFaces@QuickHull@local@@IEAA_NAEBUQuickHullHalfEdge@2@@Z 0000000180020590 f   QuickHullConvexHullLib.obj
 0001:0001fdc0       ?cleanupForSimplex@QuickHullConvexHullLib@physx@@IEAA_NPEAVPxVec3@2@IPEAUQuickHullVertex@local@@1AEAM2@Z 0000000180020dc0 f   QuickHullConvexHullLib.obj
 0001:000209e0       ?computeMinMaxVerts@QuickHull@local@@IEAAXXZ 00000001800219e0 f   QuickHullConvexHullLib.obj
 0001:00020db0       ?connectHalfEdges@QuickHullFace@local@@AEAAPEAU12@PEAUQuickHullHalfEdge@2@0@Z 0000000180021db0 f   QuickHullConvexHullLib.obj
 0001:00021120       ?copy@?$Array@UExpandPoint@local@@V?$ReflectionAllocator@UExpandPoint@local@@@shdfnd@physx@@@shdfnd@physx@@KAXPEAUExpandPoint@local@@0PEBU45@@Z 0000000180022120 f i QuickHullConvexHullLib.obj
 0001:000211d0       ?createConvexHull@QuickHullConvexHullLib@physx@@UEAA?AW4Enum@PxConvexMeshCookingResult@2@XZ 00000001800221d0 f   QuickHullConvexHullLib.obj
 0001:000215d0       ?createEdgeList@QuickHullConvexHullLib@physx@@UEAA_NIPEBEPEAPEAEPEAPEAG2@Z 00000001800225d0 f   QuickHullConvexHullLib.obj
 0001:00021820       ?createTriangle@QuickHull@local@@IEAAPEAUQuickHullFace@2@AEBUQuickHullVertex@2@00@Z 0000000180022820 f   QuickHullConvexHullLib.obj
 0001:00021c00       ?doAdjacentMerge@QuickHull@local@@IEAA_NAEAUQuickHullFace@2@_NAEA_N@Z 0000000180022c00 f   QuickHullConvexHullLib.obj
 0001:00021f50       ?expandHull@QuickHullConvexHullLib@physx@@IEAA?AW4Enum@PxConvexMeshCookingResult@2@XZ 0000000180022f50 f   QuickHullConvexHullLib.obj
 0001:00022890       ?expandHullOBB@QuickHullConvexHullLib@physx@@IEAA?AW4Enum@PxConvexMeshCookingResult@2@XZ 0000000180023890 f   QuickHullConvexHullLib.obj
 0001:00022ca0       ?fillConvexMeshDesc@QuickHullConvexHullLib@physx@@UEAAXAEAVPxConvexMeshDesc@2@@Z 0000000180023ca0 f   QuickHullConvexHullLib.obj
 0001:00022cf0       ?fillConvexMeshDescFromCroppedHull@QuickHullConvexHullLib@physx@@IEAAXAEAVPxConvexMeshDesc@2@@Z 0000000180023cf0 f   QuickHullConvexHullLib.obj
 0001:00022ee0       ?fillConvexMeshDescFromQuickHull@QuickHullConvexHullLib@physx@@IEAAXAEAVPxConvexMeshDesc@2@@Z 0000000180023ee0 f   QuickHullConvexHullLib.obj
 0001:00023250       ?findSimplex@QuickHull@local@@IEAA_NXZ 0000000180024250 f   QuickHullConvexHullLib.obj
 0001:00023f00       ?getFreeItem@?$MemBlock@UQuickHullFace@local@@$00@local@@QEAAPEAUQuickHullFace@2@XZ 0000000180024f00 f i QuickHullConvexHullLib.obj
 0001:00024030       ?getFreeItem@?$MemBlock@UQuickHullHalfEdge@local@@$0A@@local@@QEAAPEAUQuickHullHalfEdge@2@XZ 0000000180025030 f i QuickHullConvexHullLib.obj
 0001:00024100       ?growAndPushBack@?$Array@PEAUQuickHullFace@local@@V?$ReflectionAllocator@PEAUQuickHullFace@local@@@shdfnd@physx@@@shdfnd@physx@@IEAAAEAPEAUQuickHullFace@local@@AEBQEAU45@@Z 0000000180025100 f i QuickHullConvexHullLib.obj
 0001:000241c0       ?growAndPushBack@?$Array@PEAUQuickHullHalfEdge@local@@V?$ReflectionAllocator@PEAUQuickHullHalfEdge@local@@@shdfnd@physx@@@shdfnd@physx@@IEAAAEAPEAUQuickHullHalfEdge@local@@AEBQEAU45@@Z 00000001800251c0 f i QuickHullConvexHullLib.obj
 0001:00024280       ?growAndPushBack@?$Array@PEAUQuickHullVertex@local@@V?$ReflectionAllocator@PEAUQuickHullVertex@local@@@shdfnd@physx@@@shdfnd@physx@@IEAAAEAPEAUQuickHullVertex@local@@AEBQEAU45@@Z 0000000180025280 f i QuickHullConvexHullLib.obj
 0001:00024340       ?growAndPushBack@?$Array@UExpandPoint@local@@V?$ReflectionAllocator@UExpandPoint@local@@@shdfnd@physx@@@shdfnd@physx@@IEAAAEAUExpandPoint@local@@AEBU45@@Z 0000000180025340 f i QuickHullConvexHullLib.obj
 0001:00024440       ?init@?$MemBlock@UQuickHullFace@local@@$00@local@@QEAAXI@Z 0000000180025440 f i QuickHullConvexHullLib.obj
 0001:00024530       ?init@?$MemBlock@UQuickHullHalfEdge@local@@$0A@@local@@QEAAXI@Z 0000000180025530 f i QuickHullConvexHullLib.obj
 0001:000245d0       ?mergeAdjacentFace@QuickHullFace@local@@QEAA_NPEAUQuickHullHalfEdge@2@AEAV?$Array@PEAUQuickHullFace@local@@V?$ReflectionAllocator@PEAUQuickHullFace@local@@@shdfnd@physx@@@shdfnd@physx@@@Z 00000001800255d0 f   QuickHullConvexHullLib.obj
 0001:00024a20       ?nextPointToAdd@QuickHull@local@@IEAAPEAUQuickHullVertex@2@AEAPEAUQuickHullFace@2@@Z 0000000180025a20 f   QuickHullConvexHullLib.obj
 0001:00024ba0       ?parseInputVertices@QuickHull@local@@QEAAXPEBVPxVec3@physx@@I@Z 0000000180025ba0 f   QuickHullConvexHullLib.obj
 0001:00024d20       ?postMergeHull@QuickHull@local@@IEAAXXZ 0000000180025d20 f   QuickHullConvexHullLib.obj
 0001:00024f80       ?preallocate@QuickHull@local@@QEAAXI@Z 0000000180025f80 f   QuickHullConvexHullLib.obj
 0001:000250c0       ?recreate@?$Array@PEAUQuickHullFace@local@@V?$ReflectionAllocator@PEAUQuickHullFace@local@@@shdfnd@physx@@@shdfnd@physx@@IEAAXI@Z 00000001800260c0 f i QuickHullConvexHullLib.obj
 0001:00025160       ?recreate@?$Array@PEAUQuickHullHalfEdge@local@@V?$ReflectionAllocator@PEAUQuickHullHalfEdge@local@@@shdfnd@physx@@@shdfnd@physx@@IEAAXI@Z 0000000180026160 f i QuickHullConvexHullLib.obj
 0001:00025200       ?recreate@?$Array@PEAUQuickHullVertex@local@@V?$ReflectionAllocator@PEAUQuickHullVertex@local@@@shdfnd@physx@@@shdfnd@physx@@IEAAXI@Z 0000000180026200 f i QuickHullConvexHullLib.obj
 0001:000252a0       ?recreate@?$Array@UExpandPoint@local@@V?$ReflectionAllocator@UExpandPoint@local@@@shdfnd@physx@@@shdfnd@physx@@IEAAXI@Z 00000001800262a0 f i QuickHullConvexHullLib.obj
 0001:00025330       ?resolveUnclaimedPoints@QuickHull@local@@IEAAXAEBV?$Array@PEAUQuickHullFace@local@@V?$ReflectionAllocator@PEAUQuickHullFace@local@@@shdfnd@physx@@@shdfnd@physx@@@Z 0000000180026330 f   QuickHullConvexHullLib.obj
 0001:00026030       ?computeVolumeIntegralsEberly@physx@@YA_NAEBVPxConvexMeshDesc@1@MAEAUPxIntegrals@1@AEBVPxVec3@1@@Z 0000000180027030 f   VolumeIntegration.obj
 0001:00026070       ?computeVolumeIntegralsEberlySIMD@physx@@YA_NAEBVPxConvexMeshDesc@1@MAEAUPxIntegrals@1@AEBVPxVec3@1@@Z 0000000180027070 f   VolumeIntegration.obj
 0001:000266c0       ?cookingDelayHook@@YAP6A_JXZIPEAUDelayLoadInfo@@@Z 00000001800276c0 f   WindowsCookingDelayLoadHook.obj
 0001:000267a0       PxSetPhysXCookingDelayLoadHook 00000001800277a0 f   WindowsCookingDelayLoadHook.obj
 0001:000267a8       __imp_load_??0RadixSortBuffered@Cm@physx@@QEAA@XZ 00000001800277a8 f   PhysXCommon_64:PhysXCommon_64.dll
 0001:000267b4       ??0RadixSortBuffered@Cm@physx@@QEAA@XZ 00000001800277b4 f   PhysXCommon_64:PhysXCommon_64.dll
 0001:000267ba       __tailMerge_physxcommon_64_dll 00000001800277ba     PhysXCommon_64:PhysXCommon_64.dll
 0001:00026833       __imp_load_??1RadixSortBuffered@Cm@physx@@UEAA@XZ 0000000180027833 f   PhysXCommon_64:PhysXCommon_64.dll
 0001:0002683f       ??1RadixSortBuffered@Cm@physx@@UEAA@XZ 000000018002783f f   PhysXCommon_64:PhysXCommon_64.dll
 0001:00026845       __imp_load_?Sort@RadixSortBuffered@Cm@physx@@QEAAAEAV123@PEBIIW4RadixHint@23@@Z 0000000180027845 f   PhysXCommon_64:PhysXCommon_64.dll
 0001:00026851       ?Sort@RadixSortBuffered@Cm@physx@@QEAAAEAV123@PEBIIW4RadixHint@23@@Z 0000000180027851 f   PhysXCommon_64:PhysXCommon_64.dll
 0001:00026857       __imp_load_??0HeightField@Gu@physx@@QEAA@PEAVGuMeshFactory@2@@Z 0000000180027857 f   PhysXCommon_64:PhysXCommon_64.dll
 0001:00026863       ??0HeightField@Gu@physx@@QEAA@PEAVGuMeshFactory@2@@Z 0000000180027863 f   PhysXCommon_64:PhysXCommon_64.dll
 0001:00026869       __imp_load_?loadFromDesc@HeightField@Gu@physx@@QEAA_NAEBVPxHeightFieldDesc@3@@Z 0000000180027869 f   PhysXCommon_64:PhysXCommon_64.dll
 0001:00026875       ?loadFromDesc@HeightField@Gu@physx@@QEAA_NAEBVPxHeightFieldDesc@3@@Z 0000000180027875 f   PhysXCommon_64:PhysXCommon_64.dll
 0001:0002687b       __imp_load_?computeCellCoordinates@HeightField@Gu@physx@@QEBAIMMAEAM0@Z 000000018002787b f   PhysXCommon_64:PhysXCommon_64.dll
 0001:00026887       ?computeCellCoordinates@HeightField@Gu@physx@@QEBAIMMAEAM0@Z 0000000180027887 f   PhysXCommon_64:PhysXCommon_64.dll
 0001:0002688d       __imp_load_?releaseMemory@HeightField@Gu@physx@@QEAAXXZ 000000018002788d f   PhysXCommon_64:PhysXCommon_64.dll
 0001:00026899       ?releaseMemory@HeightField@Gu@physx@@QEAAXXZ 0000000180027899 f   PhysXCommon_64:PhysXCommon_64.dll
 0001:0002689f       __imp_load_??1HeightField@Gu@physx@@UEAA@XZ 000000018002789f f   PhysXCommon_64:PhysXCommon_64.dll
 0001:000268ab       ??1HeightField@Gu@physx@@UEAA@XZ 00000001800278ab f   PhysXCommon_64:PhysXCommon_64.dll
 0001:000268b1       __imp_load_??0NodeAllocator@Gu@physx@@QEAA@XZ 00000001800278b1 f   PhysXCommon_64:PhysXCommon_64.dll
 0001:000268bd       ??0NodeAllocator@Gu@physx@@QEAA@XZ 00000001800278bd f   PhysXCommon_64:PhysXCommon_64.dll
 0001:000268c3       __imp_load_??1NodeAllocator@Gu@physx@@QEAA@XZ 00000001800278c3 f   PhysXCommon_64:PhysXCommon_64.dll
 0001:000268cf       ??1NodeAllocator@Gu@physx@@QEAA@XZ 00000001800278cf f   PhysXCommon_64:PhysXCommon_64.dll
 0001:000268d5       __imp_load_?release@NodeAllocator@Gu@physx@@QEAAXXZ 00000001800278d5 f   PhysXCommon_64:PhysXCommon_64.dll
 0001:000268e1       ?release@NodeAllocator@Gu@physx@@QEAAXXZ 00000001800278e1 f   PhysXCommon_64:PhysXCommon_64.dll
 0001:000268e7       __imp_load_?buildAABBTree@Gu@physx@@YA_NAEAVAABBTreeBuildParams@12@AEAVNodeAllocator@12@AEAUBuildStats@12@AEAPEAI@Z 00000001800278e7 f   PhysXCommon_64:PhysXCommon_64.dll
 0001:000268f3       ?buildAABBTree@Gu@physx@@YA_NAEAVAABBTreeBuildParams@12@AEAVNodeAllocator@12@AEAUBuildStats@12@AEAPEAI@Z 00000001800278f3 f   PhysXCommon_64:PhysXCommon_64.dll
 0001:000268f9       __imp_load_?writeDword@physx@@YAXI_NAEAVPxOutputStream@1@@Z 00000001800278f9 f   PhysXCommon_64:PhysXCommon_64.dll
 0001:00026905       ?writeDword@physx@@YAXI_NAEAVPxOutputStream@1@@Z 0000000180027905 f   PhysXCommon_64:PhysXCommon_64.dll
 0001:0002690b       __imp_load_?writeFloatBuffer@physx@@YAXPEBMI_NAEAVPxOutputStream@1@@Z 000000018002790b f   PhysXCommon_64:PhysXCommon_64.dll
 0001:00026917       ?writeFloatBuffer@physx@@YAXPEBMI_NAEAVPxOutputStream@1@@Z 0000000180027917 f   PhysXCommon_64:PhysXCommon_64.dll
 0001:0002691d       __imp_load_?writeHeader@physx@@YA_NCCCCI_NAEAVPxOutputStream@1@@Z 000000018002791d f   PhysXCommon_64:PhysXCommon_64.dll
 0001:00026929       ?writeHeader@physx@@YA_NCCCCI_NAEAVPxOutputStream@1@@Z 0000000180027929 f   PhysXCommon_64:PhysXCommon_64.dll
 0001:0002692f       __imp_load_?writeWord@physx@@YAXG_NAEAVPxOutputStream@1@@Z 000000018002792f f   PhysXCommon_64:PhysXCommon_64.dll
 0001:0002693b       ?writeWord@physx@@YAXG_NAEAVPxOutputStream@1@@Z 000000018002793b f   PhysXCommon_64:PhysXCommon_64.dll
 0001:00026941       __imp_load_?writeFloat@physx@@YAXM_NAEAVPxOutputStream@1@@Z 0000000180027941 f   PhysXCommon_64:PhysXCommon_64.dll
 0001:0002694d       ?writeFloat@physx@@YAXM_NAEAVPxOutputStream@1@@Z 000000018002794d f   PhysXCommon_64:PhysXCommon_64.dll
 0001:00026953       __imp_load_?computeBoundsAroundVertices@Gu@physx@@YAXAEAVPxBounds3@2@IPEIBVPxVec3@2@@Z 0000000180027953 f   PhysXCommon_64:PhysXCommon_64.dll
 0001:0002695f       ?computeBoundsAroundVertices@Gu@physx@@YAXAEAVPxBounds3@2@IPEIBVPxVec3@2@@Z 000000018002795f f   PhysXCommon_64:PhysXCommon_64.dll
 0001:00026965       __imp_load_??0SourceMesh@Gu@physx@@QEAA@XZ 0000000180027965 f   PhysXCommon_64:PhysXCommon_64.dll
 0001:00026971       ??0SourceMesh@Gu@physx@@QEAA@XZ 0000000180027971 f   PhysXCommon_64:PhysXCommon_64.dll
 0001:00026977       __imp_load_??1SourceMesh@Gu@physx@@QEAA@XZ 0000000180027977 f   PhysXCommon_64:PhysXCommon_64.dll
 0001:00026983       ??1SourceMesh@Gu@physx@@QEAA@XZ 0000000180027983 f   PhysXCommon_64:PhysXCommon_64.dll
 0001:00026989       __imp_load_??0BV4Tree@Gu@physx@@QEAA@XZ 0000000180027989 f   PhysXCommon_64:PhysXCommon_64.dll
 0001:00026995       ??0BV4Tree@Gu@physx@@QEAA@XZ 0000000180027995 f   PhysXCommon_64:PhysXCommon_64.dll
 0001:0002699b       __imp_load_??1BV4Tree@Gu@physx@@QEAA@XZ 000000018002799b f   PhysXCommon_64:PhysXCommon_64.dll
 0001:000269a7       ??1BV4Tree@Gu@physx@@QEAA@XZ 00000001800279a7 f   PhysXCommon_64:PhysXCommon_64.dll
 0001:000269ad       __imp_load_??0BV32Tree@Gu@physx@@QEAA@XZ 00000001800279ad f   PhysXCommon_64:PhysXCommon_64.dll
 0001:000269b9       ??0BV32Tree@Gu@physx@@QEAA@XZ 00000001800279b9 f   PhysXCommon_64:PhysXCommon_64.dll
 0001:000269bf       __imp_load_??1BV32Tree@Gu@physx@@QEAA@XZ 00000001800279bf f   PhysXCommon_64:PhysXCommon_64.dll
 0001:000269cb       ??1BV32Tree@Gu@physx@@QEAA@XZ 00000001800279cb f   PhysXCommon_64:PhysXCommon_64.dll
 0001:000269d1       __imp_load_?writeWordBuffer@physx@@YAXPEBGI_NAEAVPxOutputStream@1@@Z 00000001800279d1 f   PhysXCommon_64:PhysXCommon_64.dll
 0001:000269dd       ?writeWordBuffer@physx@@YAXPEBGI_NAEAVPxOutputStream@1@@Z 00000001800279dd f   PhysXCommon_64:PhysXCommon_64.dll
 0001:000269e3       __imp_load_?computeMaxIndex@physx@@YAIPEBII@Z 00000001800279e3 f   PhysXCommon_64:PhysXCommon_64.dll
 0001:000269ef       ?computeMaxIndex@physx@@YAIPEBII@Z 00000001800279ef f   PhysXCommon_64:PhysXCommon_64.dll
 0001:000269f5       __imp_load_?storeIndices@physx@@YAXIIPEBIAEAVPxOutputStream@1@_N@Z 00000001800279f5 f   PhysXCommon_64:PhysXCommon_64.dll
 0001:00026a01       ?storeIndices@physx@@YAXIIPEBIAEAVPxOutputStream@1@_N@Z 0000000180027a01 f   PhysXCommon_64:PhysXCommon_64.dll
 0001:00026a07       __imp_load_?BuildBV4Ex@Gu@physx@@YA_NAEAVBV4Tree@12@AEAVSourceMesh@12@MI@Z 0000000180027a07 f   PhysXCommon_64:PhysXCommon_64.dll
 0001:00026a13       ?BuildBV4Ex@Gu@physx@@YA_NAEAVBV4Tree@12@AEAVSourceMesh@12@MI@Z 0000000180027a13 f   PhysXCommon_64:PhysXCommon_64.dll
 0001:00026a19       __imp_load_?BuildBV32Ex@Gu@physx@@YA_NAEAVBV32Tree@12@AEAVSourceMesh@12@MI@Z 0000000180027a19 f   PhysXCommon_64:PhysXCommon_64.dll
 0001:00026a25       ?BuildBV32Ex@Gu@physx@@YA_NAEAVBV32Tree@12@AEAVSourceMesh@12@MI@Z 0000000180027a25 f   PhysXCommon_64:PhysXCommon_64.dll
 0001:00026a2b       __imp_load_?computeMaxIndex@physx@@YAGPEBGI@Z 0000000180027a2b f   PhysXCommon_64:PhysXCommon_64.dll
 0001:00026a37       ?computeMaxIndex@physx@@YAGPEBGI@Z 0000000180027a37 f   PhysXCommon_64:PhysXCommon_64.dll
 0001:00026a3d       __imp_load_?WriteHeader@Gu@physx@@YA_NEEEEI_NAEAVPxOutputStream@2@@Z 0000000180027a3d f   PhysXCommon_64:PhysXCommon_64.dll
 0001:00026a49       ?WriteHeader@Gu@physx@@YA_NEEEEI_NAEAVPxOutputStream@2@@Z 0000000180027a49 f   PhysXCommon_64:PhysXCommon_64.dll
 0001:00026a4f       __imp_load_?StoreIndices@Gu@physx@@YAXGIPEBGAEAVPxOutputStream@2@_N@Z 0000000180027a4f f   PhysXCommon_64:PhysXCommon_64.dll
 0001:00026a5b       ?StoreIndices@Gu@physx@@YAXGIPEBGAEAVPxOutputStream@2@_N@Z 0000000180027a5b f   PhysXCommon_64:PhysXCommon_64.dll
 0001:00026a61       __imp_load_?CreateOffsets@BigConvexData@physx@@IEAAXXZ 0000000180027a61 f   PhysXCommon_64:PhysXCommon_64.dll
 0001:00026a6d       ?CreateOffsets@BigConvexData@physx@@IEAAXXZ 0000000180027a6d f   PhysXCommon_64:PhysXCommon_64.dll
 0001:00026a73       __imp_load_?computeOBBPoints@Gu@physx@@YAXPEIAVPxVec3@2@AEBV32@1111@Z 0000000180027a73 f   PhysXCommon_64:PhysXCommon_64.dll
 0001:00026a7f       ?computeOBBPoints@Gu@physx@@YAXPEIAVPxVec3@2@AEBV32@1111@Z 0000000180027a7f f   PhysXCommon_64:PhysXCommon_64.dll
 0001:00026a85       __imp_load_??0BigConvexData@physx@@QEAA@XZ 0000000180027a85 f   PhysXCommon_64:PhysXCommon_64.dll
 0001:00026a91       ??0BigConvexData@physx@@QEAA@XZ 0000000180027a91 f   PhysXCommon_64:PhysXCommon_64.dll
 0001:00026a97       __imp_load_??1BigConvexData@physx@@QEAA@XZ 0000000180027a97 f   PhysXCommon_64:PhysXCommon_64.dll
 0001:00026aa3       ??1BigConvexData@physx@@QEAA@XZ 0000000180027aa3 f   PhysXCommon_64:PhysXCommon_64.dll
 0001:00026aa9       __imp_load_PxGetFoundation 0000000180027aa9 f   PhysXFoundation_64:PhysXFoundation_64.dll
 0001:00026ab5       PxGetFoundation            0000000180027ab5 f   PhysXFoundation_64:PhysXFoundation_64.dll
 0001:00026abb       __tailMerge_physxfoundation_64_dll 0000000180027abb     PhysXFoundation_64:PhysXFoundation_64.dll
 0001:00026b34       __imp_load_?getAllocator@shdfnd@physx@@YAAEAVPxAllocatorCallback@2@XZ 0000000180027b34 f   PhysXFoundation_64:PhysXFoundation_64.dll
 0001:00026b40       ?getAllocator@shdfnd@physx@@YAAEAVPxAllocatorCallback@2@XZ 0000000180027b40 f   PhysXFoundation_64:PhysXFoundation_64.dll
 0001:00026b46       __imp_load_?getInstance@Foundation@shdfnd@physx@@SAAEAV123@XZ 0000000180027b46 f   PhysXFoundation_64:PhysXFoundation_64.dll
 0001:00026b52       ?getInstance@Foundation@shdfnd@physx@@SAAEAV123@XZ 0000000180027b52 f   PhysXFoundation_64:PhysXFoundation_64.dll
 0001:00026b58       __imp_load_?error@Foundation@shdfnd@physx@@QEAAXW4Enum@PxErrorCode@3@PEBDH1ZZ 0000000180027b58 f   PhysXFoundation_64:PhysXFoundation_64.dll
 0001:00026b64       ?error@Foundation@shdfnd@physx@@QEAAXW4Enum@PxErrorCode@3@PEBDH1ZZ 0000000180027b64 f   PhysXFoundation_64:PhysXFoundation_64.dll
 0001:00026b6a       __imp_load_?incRefCount@Foundation@shdfnd@physx@@SAXXZ 0000000180027b6a f   PhysXFoundation_64:PhysXFoundation_64.dll
 0001:00026b76       ?incRefCount@Foundation@shdfnd@physx@@SAXXZ 0000000180027b76 f   PhysXFoundation_64:PhysXFoundation_64.dll
 0001:00026b7c       __imp_load_?decRefCount@Foundation@shdfnd@physx@@SAXXZ 0000000180027b7c f   PhysXFoundation_64:PhysXFoundation_64.dll
 0001:00026b88       ?decRefCount@Foundation@shdfnd@physx@@SAXXZ 0000000180027b88 f   PhysXFoundation_64:PhysXFoundation_64.dll
 0001:00026b8e       __imp_load_??0FPUGuard@shdfnd@physx@@QEAA@XZ 0000000180027b8e f   PhysXFoundation_64:PhysXFoundation_64.dll
 0001:00026b9a       ??0FPUGuard@shdfnd@physx@@QEAA@XZ 0000000180027b9a f   PhysXFoundation_64:PhysXFoundation_64.dll
 0001:00026ba0       __imp_load_??1FPUGuard@shdfnd@physx@@QEAA@XZ 0000000180027ba0 f   PhysXFoundation_64:PhysXFoundation_64.dll
 0001:00026bac       ??1FPUGuard@shdfnd@physx@@QEAA@XZ 0000000180027bac f   PhysXFoundation_64:PhysXFoundation_64.dll
 0001:00026bb2       __imp_load_?allocate@TempAllocator@shdfnd@physx@@QEAAPEAX_KPEBDH@Z 0000000180027bb2 f   PhysXFoundation_64:PhysXFoundation_64.dll
 0001:00026bbe       ?allocate@TempAllocator@shdfnd@physx@@QEAAPEAX_KPEBDH@Z 0000000180027bbe f   PhysXFoundation_64:PhysXFoundation_64.dll
 0001:00026bc4       __imp_load_?deallocate@TempAllocator@shdfnd@physx@@QEAAXPEAX@Z 0000000180027bc4 f   PhysXFoundation_64:PhysXFoundation_64.dll
 0001:00026bd0       ?deallocate@TempAllocator@shdfnd@physx@@QEAAXPEAX@Z 0000000180027bd0 f   PhysXFoundation_64:PhysXFoundation_64.dll
 0001:00026bd6       __imp_load_?PxDiagonalize@physx@@YA?AVPxVec3@1@AEBVPxMat33@1@AEAVPxQuat@1@@Z 0000000180027bd6 f   PhysXFoundation_64:PhysXFoundation_64.dll
 0001:00026be2       ?PxDiagonalize@physx@@YA?AVPxVec3@1@AEBVPxMat33@1@AEAVPxQuat@1@@Z 0000000180027be2 f   PhysXFoundation_64:PhysXFoundation_64.dll
 0001:00026be8       ?DloadAcquireSectionWriteAccess@@YAXXZ 0000000180027be8 f i Delayimp:delayhlp.obj
 0001:00026c94       ?DloadGetSRWLockFunctionPointers@@YAEXZ 0000000180027c94 f i Delayimp:delayhlp.obj
 0001:00026d34       ?DloadMakePermanentImageCommit@@YAXPEAX_K@Z 0000000180027d34 f i Delayimp:delayhlp.obj
 0001:00026dcc       ?DloadObtainSection@@YAPEAXPEAK0@Z 0000000180027dcc f i Delayimp:delayhlp.obj
 0001:00026e68       ?DloadProtectSection@@YAXKPEAK@Z 0000000180027e68 f i Delayimp:delayhlp.obj
 0001:00026ef8       ?DloadReleaseSectionWriteAccess@@YAXXZ 0000000180027ef8 f i Delayimp:delayhlp.obj
 0001:00026f8c       __delayLoadHelper2         0000000180027f8c f   Delayimp:delayhlp.obj
 0001:00027264       ??3@YAXPEAX_K@Z            0000000180028264 f   LIBCMT:delete_scalar_size.obj
 0001:00027264       ??_V@YAXPEAX@Z             0000000180028264 f   LIBCMT:delete_array.obj
 0001:0002726c       ??_Etype_info@@UEAAPEAXI@Z 000000018002826c f i LIBCMT:std_type_info_static.obj
 0001:0002726c       ??_Gtype_info@@UEAAPEAXI@Z 000000018002826c f i LIBCMT:std_type_info_static.obj
 0001:00027298       ?__scrt_initialize_type_info@@YAXXZ 0000000180028298 f   LIBCMT:tncleanup.obj
 0001:000272a8       ?__scrt_uninitialize_type_info@@YAXXZ 00000001800282a8 f   LIBCMT:tncleanup.obj
 0001:000272d0       __chkstk                   00000001800282d0 f   LIBCMT:chkstk.obj
 0001:000272d0       _alloca_probe              00000001800282d0 f   LIBCMT:chkstk.obj
 0001:00027320       ??3@YAXPEAX@Z              0000000180028320 f   LIBCMT:delete_scalar.obj
 0001:00027330       __vdecl_sinf4              0000000180028330 f   LIBCMT:svml_ssinf4_dispatch.obj
 0001:00027350       __libm_sse2_sincosf_       0000000180028350 f   LIBCMT:svml_ssinf4_dispatch.obj
 0001:00027393       __libm_sse2_sincosf4_      0000000180028393 f   LIBCMT:svml_ssinf4_dispatch.obj
 0001:000276c0       _DllMainCRTStartup         00000001800286c0 f   LIBCMT:dll_dllmain.obj
 0001:00027700       __isa_available_init       0000000180028700 f   LIBCMT:cpu_disp.obj
 0001:000278b0       __sse2_sinf4@@16           00000001800288b0 f   LIBCMT:svml_ssinf4_sse2.obj
 0001:000281f0       __sse4_sinf4@@16           00000001800291f0 f   LIBCMT:svml_ssinf4_sse4.obj
 0001:00028964       __security_init_cookie     0000000180029964 f   LIBCMT:gs_support.obj
 0001:00028a10       __local_stdio_printf_options 0000000180029a10 f i LIBCMT:default_local_stdio_options.obj
 0001:00028a18       __local_stdio_scanf_options 0000000180029a18 f i LIBCMT:default_local_stdio_options.obj
 0001:00028a20       __scrt_initialize_default_local_stdio_options 0000000180029a20 f   LIBCMT:default_local_stdio_options.obj
 0001:00028a3c       __scrt_acquire_startup_lock 0000000180029a3c f   LIBCMT:utility.obj
 0001:00028a78       __scrt_dllmain_after_initialize_c 0000000180029a78 f   LIBCMT:utility.obj
 0001:00028aac       __scrt_dllmain_before_initialize_c 0000000180029aac f   LIBCMT:utility.obj
 0001:00028ac4       __scrt_dllmain_crt_thread_attach 0000000180029ac4 f   LIBCMT:utility.obj
 0001:00028aec       __scrt_dllmain_crt_thread_detach 0000000180029aec f   LIBCMT:utility.obj
 0001:00028b04       __scrt_dllmain_exception_filter 0000000180029b04 f   LIBCMT:utility.obj
 0001:00028b64       __scrt_dllmain_uninitialize_c 0000000180029b64 f   LIBCMT:utility.obj
 0001:00028b94       __scrt_dllmain_uninitialize_critical 0000000180029b94 f   LIBCMT:utility.obj
 0001:00028ba8       __scrt_initialize_crt      0000000180029ba8 f   LIBCMT:utility.obj
 0001:00028bf4       __scrt_initialize_onexit_tables 0000000180029bf4 f   LIBCMT:utility.obj
 0001:00028c80       __scrt_is_nonwritable_in_current_image 0000000180029c80 f   LIBCMT:utility.obj
 0001:00028d18       __scrt_release_startup_lock 0000000180029d18 f   LIBCMT:utility.obj
 0001:00028d3c       __scrt_uninitialize_crt    0000000180029d3c f   LIBCMT:utility.obj
 0001:00028d68       __scrt_get_dyn_tls_init_callback 0000000180029d68 f   LIBCMT:dyn_tls_init.obj
 0001:00028d70       __crt_debugger_hook        0000000180029d70 f   LIBCMT:utility_desktop.obj
 0001:00028d78       __scrt_fastfail            0000000180029d78 f   LIBCMT:utility_desktop.obj
 0001:00028ec4       _RTC_Initialize            0000000180029ec4 f   LIBCMT:initsect.obj
 0001:00028f00       _RTC_Terminate             0000000180029f00 f   LIBCMT:initsect.obj
 0001:00028f40       __common_ssin_cout_rare    0000000180029f40 f   LIBCMT:svml_s_sin_cout.obj
 0001:00028fb0       __scrt_is_ucrt_dll_in_use  0000000180029fb0 f   LIBCMT:ucrt_detection.obj
 0001:00028fbc       _get_purecall_handler      0000000180029fbc f   libvcruntime:purevirt.obj
 0001:00028fc8       _purecall                  0000000180029fc8 f   libvcruntime:purevirt.obj
 0001:00028fec       __std_type_info_compare    0000000180029fec f   libvcruntime:std_type_info.obj
 0001:00029014       __std_type_info_destroy_list 000000018002a014 f   libvcruntime:std_type_info.obj
 0001:00029040       __std_type_info_name       000000018002a040 f   libvcruntime:std_type_info.obj
 0001:00029170       memset_repstos             000000018002a170 f   libvcruntime:memset.obj
 0001:00029190       memset                     000000018002a190 f   libvcruntime:memset.obj
 0001:00029530       memcpy_repmovs             000000018002a530 f   libvcruntime:memcpy.obj
 0001:00029550       memcpy                     000000018002a550 f   libvcruntime:memcpy.obj
 0001:00029550       memmove                    000000018002a550 f   libvcruntime:memcpy.obj
 0001:00029bc8       strstr                     000000018002abc8 f   libvcruntime:strstr.obj
 0001:00029dc0       __C_specific_handler       000000018002adc0 f   libvcruntime:riscchandler.obj
 0001:00029fb8       __vcrt_initialize          000000018002afb8 f   libvcruntime:initialization.obj
 0001:00029fe0       __vcrt_thread_attach       000000018002afe0 f   libvcruntime:initialization.obj
 0001:00029ff4       __vcrt_thread_detach       000000018002aff4 f   libvcruntime:initialization.obj
 0001:0002a008       __vcrt_uninitialize        000000018002b008 f   libvcruntime:initialization.obj
 0001:0002a024       __vcrt_uninitialize_critical 000000018002b024 f   libvcruntime:initialization.obj
 0001:0002a034       __DestructExceptionObject  000000018002b034 f   libvcruntime:ehhelpers.obj
 0001:0002a0a4       ?_CallMemberFunction0@@YAXQEAX0@Z 000000018002b0a4 f i libvcruntime:ehhelpers.obj
 0001:0002a0a8       _IsExceptionObjectToBeDestroyed 000000018002b0a8 f   libvcruntime:ehhelpers.obj
 0001:0002a0d8       __AdjustPointer            000000018002b0d8 f   libvcruntime:ehhelpers.obj
 0001:0002a0fc       __FrameUnwindFilter        000000018002b0fc f   libvcruntime:ehhelpers.obj
 0001:0002a164       ??$?0$00@DName@@QEAA@PEBDU?$StringLifeSelector@$00@@@Z 000000018002b164 f i libvcruntime:undname.obj
 0001:0002a1a4       ??$?0$01@DName@@QEAA@PEBDU?$StringLifeSelector@$01@@@Z 000000018002b1a4 f i libvcruntime:undname.obj
 0001:0002a1a4       ??$?0$0A@@DName@@QEAA@PEBDU?$StringLifeSelector@$0A@@@@Z 000000018002b1a4 f i libvcruntime:undname.obj
 0001:0002a1e4       ??$?0$01@pcharNode@@QEAA@PEBDHU?$StringLifeSelector@$01@@@Z 000000018002b1e4 f i libvcruntime:undname.obj
 0001:0002a1e4       ??$?0$0A@@pcharNode@@QEAA@PEBDHU?$StringLifeSelector@$0A@@@@Z 000000018002b1e4 f i libvcruntime:undname.obj
 0001:0002a258       ??$append@VDNameNode@@@DName@@AEAAXPEBVDNameNode@@@Z 000000018002b258 f i libvcruntime:undname.obj
 0001:0002a258       ??$append@VDNameStatusNode@@@DName@@AEAAXPEBVDNameStatusNode@@@Z 000000018002b258 f i libvcruntime:undname.obj
 0001:0002a258       ??$append@VcharNode@@@DName@@AEAAXPEBVcharNode@@@Z 000000018002b258 f i libvcruntime:undname.obj
 0001:0002a258       ??$append@VpcharNode@@@DName@@AEAAXPEBVpcharNode@@@Z 000000018002b258 f i libvcruntime:undname.obj
 0001:0002a2bc       ??$doPchar@$00@DName@@AEAAXPEBDH@Z 000000018002b2bc f i libvcruntime:undname.obj
 0001:0002a360       ??$doPchar@$01@DName@@AEAAXPEBDH@Z 000000018002b360 f i libvcruntime:undname.obj
 0001:0002a360       ??$doPchar@$0A@@DName@@AEAAXPEBDH@Z 000000018002b360 f i libvcruntime:undname.obj
 0001:0002a3f8       ??0DName@@QEAA@AEAPEBDD@Z  000000018002b3f8 f   libvcruntime:undname.obj
 0001:0002a4a8       ??0DName@@QEAA@AEBUStringLiteral@@@Z 000000018002b4a8 f   libvcruntime:undname.obj
 0001:0002a4d4       ??0DName@@QEAA@PEAV0@@Z    000000018002b4d4 f   libvcruntime:undname.obj
 0001:0002a558       ??0DName@@QEAA@_J@Z        000000018002b558 f   libvcruntime:undname.obj
 0001:0002a600       ??0DName@@QEAA@_K@Z        000000018002b600 f   libvcruntime:undname.obj
 0001:0002a690       ??2@YAPEAX_KAEAV_HeapManager@@H@Z 000000018002b690 f   libvcruntime:undname.obj
 0001:0002a6bc       ??4DName@@QEAAAEAV0@W4DNameStatus@@@Z 000000018002b6bc f   libvcruntime:undname.obj
 0001:0002a6ec       ??AReplicator@@QEBA?AVDName@@H@Z 000000018002b6ec f   libvcruntime:undname.obj
 0001:0002a72c       ??HDName@@QEBA?AV0@AEBUStringLiteral@@@Z 000000018002b72c f   libvcruntime:undname.obj
 0001:0002a758       ??HDName@@QEBA?AV0@AEBV0@@Z 000000018002b758 f   libvcruntime:undname.obj
 0001:0002a784       ??HDName@@QEBA?AV0@D@Z     000000018002b784 f   libvcruntime:undname.obj
 0001:0002a7b0       ??HDName@@QEBA?AV0@W4DNameStatus@@@Z 000000018002b7b0 f   libvcruntime:undname.obj
 0001:0002a7dc       ??YDName@@QEAAAEAV0@AEBUStringLiteral@@@Z 000000018002b7dc f   libvcruntime:undname.obj
 0001:0002a85c       ??YDName@@QEAAAEAV0@AEBV0@@Z 000000018002b85c f   libvcruntime:undname.obj
 0001:0002a8b4       ??YDName@@QEAAAEAV0@D@Z    000000018002b8b4 f   libvcruntime:undname.obj
 0001:0002a920       ??YDName@@QEAAAEAV0@W4DNameStatus@@@Z 000000018002b920 f   libvcruntime:undname.obj
 0001:0002a978       ??YReplicator@@QEAAAEAV0@AEBVDName@@@Z 000000018002b978 f   libvcruntime:undname.obj
 0001:0002a9d0       ?UScore@UnDecorator@@SA?AUStringLiteral@@W4Tokens@@@Z 000000018002b9d0 f   libvcruntime:undname.obj
 0001:0002aa1c       ?composeDeclaration@UnDecorator@@CA?AVDName@@AEBV2@@Z 000000018002ba1c f i libvcruntime:undname.obj
 0001:0002b8b0       ?doPchar@DName@@AEAAXD@Z   000000018002c8b0 f   libvcruntime:undname.obj
 0001:0002b900       ?getAddressOf@UnDecorator@@CA?AVDName@@XZ 000000018002c900 f   libvcruntime:undname.obj
 0001:0002b990       ?getArgumentList@UnDecorator@@CA?AVDName@@XZ 000000018002c990 f   libvcruntime:undname.obj
 0001:0002bb44       ?getArgumentTypes@UnDecorator@@CA?AVDName@@XZ 000000018002cb44 f   libvcruntime:undname.obj
 0001:0002bc90       ?getArrayAccess@UnDecorator@@CA?AVDName@@XZ 000000018002cc90 f   libvcruntime:undname.obj
 0001:0002bd2c       ?getArrayObject@UnDecorator@@CA?AVDName@@XZ 000000018002cd2c f   libvcruntime:undname.obj
 0001:0002bde8       ?getArrayType@UnDecorator@@CA?AVDName@@AEBV2@@Z 000000018002cde8 f i libvcruntime:undname.obj
 0001:0002c030       ?getBasedType@UnDecorator@@CA?AVDName@@XZ 000000018002d030 f   libvcruntime:undname.obj
 0001:0002c128       ?getBasicDataType@UnDecorator@@CA?AVDName@@AEBV2@@Z 000000018002d128 f   libvcruntime:undname.obj
 0001:0002c728       ?getCallingConvention@UnDecorator@@CA?AVDName@@XZ 000000018002d728 f   libvcruntime:undname.obj
 0001:0002c874       ?getDataIndirectType@UnDecorator@@CA?AVDName@@AEBV2@W4IndirectionKind@@0H@Z 000000018002d874 f   libvcruntime:undname.obj
 0001:0002d13c       ?getDataType@UnDecorator@@CA?AVDName@@PEAV2@@Z 000000018002e13c f   libvcruntime:undname.obj
 0001:0002d250       ?getDecoratedName@UnDecorator@@CA?AVDName@@XZ 000000018002e250 f   libvcruntime:undname.obj
 0001:0002d538       ?getDimension@UnDecorator@@CA?AVDName@@_N@Z 000000018002e538 f   libvcruntime:undname.obj
 0001:0002d684       ?getDispatchTarget@UnDecorator@@CA?AVDName@@XZ 000000018002e684 f   libvcruntime:undname.obj
 0001:0002d6d0       ?getECSUDataType@UnDecorator@@CA?AVDName@@XZ 000000018002e6d0 f   libvcruntime:undname.obj
 0001:0002d8b0       ?getEnumType@UnDecorator@@CA?AVDName@@XZ 000000018002e8b0 f i libvcruntime:undname.obj
 0001:0002d9e0       ?getExtendedDataIndirectType@UnDecorator@@CA?AVDName@@AEAW4IndirectionKind@@AEA_NH@Z 000000018002e9e0 f   libvcruntime:undname.obj
 0001:0002dbe4       ?getExternalDataType@UnDecorator@@CA?AVDName@@AEBV2@@Z 000000018002ebe4 f i libvcruntime:undname.obj
 0001:0002dca4       ?getFloatingPoint@UnDecorator@@CA?AVDName@@H@Z 000000018002eca4 f   libvcruntime:undname.obj
 0001:0002de08       ?getFunctionIndirectType@UnDecorator@@CA?AVDName@@AEBV2@@Z 000000018002ee08 f   libvcruntime:undname.obj
 0001:0002e330       ?getLastChar@DNameStatusNode@@UEBADXZ 000000018002f330 f i libvcruntime:undname.obj
 0001:0002e33c       ?getLastChar@charNode@@UEBADXZ 000000018002f33c f i libvcruntime:undname.obj
 0001:0002e340       ?getLastChar@pDNameNode@@UEBADXZ 000000018002f340 f i libvcruntime:undname.obj
 0001:0002e36c       ?getLastChar@pairNode@@UEBADXZ 000000018002f36c f i libvcruntime:undname.obj
 0001:0002e3a4       ?getLastChar@pcharNode@@UEBADXZ 000000018002f3a4 f i libvcruntime:undname.obj
 0001:0002e3b8       ?getLexicalFrame@UnDecorator@@CA?AVDName@@XZ 000000018002f3b8 f i libvcruntime:undname.obj
 0001:0002e41c       ?getMemberAccess@UnDecorator@@CA?AVDName@@XZ 000000018002f41c f   libvcruntime:undname.obj
 0001:0002e4b0       ?getMemoryWithBuffer@_HeapManager@@QEAAPEAX_K@Z 000000018002f4b0 f   libvcruntime:undname.obj
 0001:0002e540       ?getNoexcept@UnDecorator@@CA?AVDName@@XZ 000000018002f540 f   libvcruntime:undname.obj
 0001:0002e5a4       ?getNumberOfDimensions@UnDecorator@@CAHXZ 000000018002f5a4 f   libvcruntime:undname.obj
 0001:0002e610       ?getOperatorName@UnDecorator@@CA?AVDName@@_NPEA_N@Z 000000018002f610 f i libvcruntime:undname.obj
 0001:0002f01c       ?getPointerToMember@UnDecorator@@CA?AVDName@@XZ 000000018003001c f   libvcruntime:undname.obj
 0001:0002f114       ?getPrimaryDataType@UnDecorator@@CA?AVDName@@AEBV2@@Z 0000000180030114 f   libvcruntime:undname.obj
 0001:0002f3cc       ?getPtrRefDataType@UnDecorator@@CA?AVDName@@AEBV2@H@Z 00000001800303cc f   libvcruntime:undname.obj
 0001:0002f598       ?getPtrRefType@UnDecorator@@CA?AVDName@@AEBV2@0W4IndirectionKind@@@Z 0000000180030598 f   libvcruntime:undname.obj
 0001:0002f770       ?getRestrictionSpec@UnDecorator@@CA?AVDName@@XZ 0000000180030770 f   libvcruntime:undname.obj
 0001:0002f94c       ?getReturnType@UnDecorator@@CA?AVDName@@PEAV2@@Z 000000018003094c f   libvcruntime:undname.obj
 0001:0002f980       ?getScope@UnDecorator@@CA?AVDName@@XZ 0000000180030980 f   libvcruntime:undname.obj
 0001:0002fe3c       ?getScopedName@UnDecorator@@CA?AVDName@@XZ 0000000180030e3c f   libvcruntime:undname.obj
 0001:0002ff7c       ?getSignedDimension@UnDecorator@@CA?AVDName@@XZ 0000000180030f7c f   libvcruntime:undname.obj
 0001:00030004       ?getString@DNameStatusNode@@UEBAPEADPEAD0@Z 0000000180031004 f i libvcruntime:undname.obj
 0001:0003004c       ?getString@charNode@@UEBAPEADPEAD0@Z 000000018003104c f i libvcruntime:undname.obj
 0001:00030060       ?getString@pDNameNode@@UEBAPEADPEAD0@Z 0000000180031060 f i libvcruntime:undname.obj
 0001:00030090       ?getString@pairNode@@UEBAPEADPEAD0@Z 0000000180031090 f i libvcruntime:undname.obj
 0001:000300dc       ?getString@pcharNode@@UEBAPEADPEAD0@Z 00000001800310dc f i libvcruntime:undname.obj
 0001:00030114       ?getStringEncoding@UnDecorator@@CA?AVDName@@W4PrefixKind@@H@Z 0000000180031114 f   libvcruntime:undname.obj
 0001:00030204       ?getStringObject@UnDecorator@@CA?AVDName@@XZ 0000000180031204 f   libvcruntime:undname.obj
 0001:0003026c       ?getSymbolName@UnDecorator@@CA?AVDName@@XZ 000000018003126c f i libvcruntime:undname.obj
 0001:000302b8       ?getTemplateArgumentList@UnDecorator@@CA?AVDName@@XZ 00000001800312b8 f   libvcruntime:undname.obj
 0001:000304d4       ?getTemplateName@UnDecorator@@CA?AVDName@@_N@Z 00000001800314d4 f   libvcruntime:undname.obj
 0001:00030768       ?getTemplateNonTypeArgument@UnDecorator@@CA?AVDName@@XZ 0000000180031768 f   libvcruntime:undname.obj
 0001:00030cb8       ?getTemplateTypeArgument@UnDecorator@@CA?AVDName@@XZ 0000000180031cb8 f   libvcruntime:undname.obj
 0001:00030e20       ?getThrowTypes@UnDecorator@@CA?AVDName@@XZ 0000000180031e20 f   libvcruntime:undname.obj
 0001:00030e44       ?getTypeEncoding@UnDecorator@@CAHXZ 0000000180031e44 f i libvcruntime:undname.obj
 0001:000311e0       ?getUndecoratedName@UnDecorator@@QEAAPEADPEADH@Z 00000001800321e0 f i libvcruntime:undname.obj
 0001:00031334       ?getUnionObject@UnDecorator@@CA?AVDName@@XZ 0000000180032334 f   libvcruntime:undname.obj
 0001:0003140c       ?getVCallThunkType@UnDecorator@@CA?AVDName@@XZ 000000018003240c f i libvcruntime:undname.obj
 0001:00031484       ?getValue@UnDecorator@@CA?AV?$optional@_K@std@@XZ 0000000180032484 f   libvcruntime:undname.obj
 0001:000314f8       ?getValueObject@UnDecorator@@CA?AVDName@@XZ 00000001800324f8 f   libvcruntime:undname.obj
 0001:00031638       ?getVdispMapType@UnDecorator@@CA?AVDName@@AEBV2@@Z 0000000180032638 f i libvcruntime:undname.obj
 0001:000316b4       ?getVfTableType@UnDecorator@@CA?AVDName@@AEBV2@@Z 00000001800326b4 f i libvcruntime:undname.obj
 0001:000318c0       ?getZName@UnDecorator@@CA?AVDName@@_N0@Z 00000001800328c0 f   libvcruntime:undname.obj
 0001:00031ba0       ?length@DNameStatusNode@@UEBAHXZ 0000000180032ba0 f i libvcruntime:undname.obj
 0001:00031ba0       ?raw_length@DNameStatusNode@@UEBAHXZ 0000000180032ba0 f i libvcruntime:undname.obj
 0001:00031ba4       ?length@pDNameNode@@UEBAHXZ 0000000180032ba4 f i libvcruntime:undname.obj
 0001:00031bcc       ?length@pairNode@@UEBAHXZ  0000000180032bcc f i libvcruntime:undname.obj
 0001:00031c14       ?parseDecoratedName@UnDecorator@@CA?AVDName@@XZ 0000000180032c14 f   libvcruntime:undname.obj
 0001:00031d28       ?raw_length@pDNameNode@@UEBAHXZ 0000000180032d28 f i libvcruntime:undname.obj
 0001:00031d2c       ?raw_length@pairNode@@UEBAHXZ 0000000180032d2c f i libvcruntime:undname.obj
 0001:00031d30       __unDName                  0000000180032d30 f   libvcruntime:undname.obj
 0001:00031d58       __unDNameEx                0000000180032d58 f   libvcruntime:undname.obj
 0001:00031e8c       snprintf                   0000000180032e8c f i libvcruntime:undname.obj
 0001:00031ee4       sprintf_s                  0000000180032ee4 f i libvcruntime:undname.obj
 0001:00031f50       _NLG_Notify                0000000180032f50 f   libvcruntime:notify.obj
 0001:00031f70       __NLG_Dispatch2            0000000180032f70 f   libvcruntime:notify.obj
 0001:00031f80       __NLG_Return2              0000000180032f80 f   libvcruntime:notify.obj
 0001:00031f84       __except_validate_context_record 0000000180032f84 f   libvcruntime:jbcxrval.obj
 0001:00031fbc       __vcrt_freefls             0000000180032fbc f   libvcruntime:per_thread_data.obj
 0001:00031fdc       __vcrt_freeptd             0000000180032fdc f   libvcruntime:per_thread_data.obj
 0001:0003202c       __vcrt_getptd              000000018003302c f   libvcruntime:per_thread_data.obj
 0001:00032048       __vcrt_getptd_noexit       0000000180033048 f   libvcruntime:per_thread_data.obj
 0001:00032108       __vcrt_initialize_ptd      0000000180033108 f   libvcruntime:per_thread_data.obj
 0001:00032150       __vcrt_uninitialize_ptd    0000000180033150 f   libvcruntime:per_thread_data.obj
 0001:00032174       __vcrt_initialize_locks    0000000180033174 f   libvcruntime:locks.obj
 0001:000321bc       __vcrt_lock                00000001800331bc f   libvcruntime:locks.obj
 0001:000321d8       __vcrt_uninitialize_locks  00000001800331d8 f   libvcruntime:locks.obj
 0001:00032210       __vcrt_unlock              0000000180033210 f   libvcruntime:locks.obj
 0001:0003222c       ??$_CallSETranslator@V__FrameHandler4@@@@YAHPEAUEHExceptionRecord@@PEA_KPEAU_CONTEXT@@PEAU_xDISPATCHER_CONTEXT@@PEAUFuncInfo4@FH4@@K1H@Z 000000018003322c f i libvcruntime:risctrnsctrl.obj
 0001:00032280       ?DecompFuncInfo@FH4@@YA_JPEAEAEAUFuncInfo4@1@_KH_N@Z 0000000180033280 f i libvcruntime:risctrnsctrl.obj
 0001:000323a4       ?ExecutionInCatch@__FrameHandler4@@SA_NPEAU_xDISPATCHER_CONTEXT@@PEAUFuncInfo4@FH4@@@Z 00000001800333a4 f   libvcruntime:risctrnsctrl.obj
 0001:000323ac       ?FrameUnwindToEmptyState@__FrameHandler4@@SAXPEA_KPEAU_xDISPATCHER_CONTEXT@@PEAUFuncInfo4@FH4@@@Z 00000001800333ac f   libvcruntime:risctrnsctrl.obj
 0001:000323e0       ?GetEstablisherFrame@__FrameHandler4@@SAPEA_KPEA_KPEAU_xDISPATCHER_CONTEXT@@PEAUFuncInfo4@FH4@@0@Z 00000001800333e0 f   libvcruntime:risctrnsctrl.obj
 0001:00032404       ?GetRangeOfTrysToCheck@__FrameHandler4@@SA?AU?$pair@Viterator@TryBlockMap4@FH4@@V123@@std@@AEAVTryBlockMap4@FH4@@HPEAU_xDISPATCHER_CONTEXT@@PEAUFuncInfo4@5@H@Z 0000000180033404 f   libvcruntime:risctrnsctrl.obj
 0001:00032570       ?UnwindNestedFrames@__FrameHandler4@@SAXPEA_KPEAUEHExceptionRecord@@PEAU_CONTEXT@@0PEAXPEAUFuncInfo4@FH4@@HHPEAUHandlerType4@5@PEAU_xDISPATCHER_CONTEXT@@E@Z 0000000180033570 f   libvcruntime:risctrnsctrl.obj
 0001:00032690       ?setBuffer@TryBlockMap4@FH4@@QEAAXViterator@12@@Z 0000000180033690 f i libvcruntime:risctrnsctrl.obj
 0001:00032854       _CreateFrameInfo           0000000180033854 f   libvcruntime:risctrnsctrl.obj
 0001:00032890       _FindAndUnlinkFrame        0000000180033890 f   libvcruntime:risctrnsctrl.obj
 0001:000328e4       _GetImageBase              00000001800338e4 f   libvcruntime:risctrnsctrl.obj
 0001:000328f8       _GetThrowImageBase         00000001800338f8 f   libvcruntime:risctrnsctrl.obj
 0001:0003290c       _SetImageBase              000000018003390c f   libvcruntime:risctrnsctrl.obj
 0001:00032924       _SetThrowImageBase         0000000180033924 f   libvcruntime:risctrnsctrl.obj
 0001:0003293c       __CxxFrameHandler4         000000018003393c f   libvcruntime:risctrnsctrl.obj
 0001:00032b4c       __vcrt_FlsAlloc            0000000180033b4c f   libvcruntime:winapi_downlevel.obj
 0001:00032b94       __vcrt_FlsFree             0000000180033b94 f   libvcruntime:winapi_downlevel.obj
 0001:00032bdc       __vcrt_FlsGetValue         0000000180033bdc f   libvcruntime:winapi_downlevel.obj
 0001:00032c24       __vcrt_FlsSetValue         0000000180033c24 f   libvcruntime:winapi_downlevel.obj
 0001:00032c78       __vcrt_InitializeCriticalSectionEx 0000000180033c78 f   libvcruntime:winapi_downlevel.obj
 0001:00032cdc       ?StateFromControlPc@__FrameHandler4@@SAHPEAUFuncInfo4@FH4@@PEAU_xDISPATCHER_CONTEXT@@@Z 0000000180033cdc f   libvcruntime:ehstate.obj
 0001:00032ce4       ?StateFromIp@__FrameHandler4@@SAHPEAUFuncInfo4@FH4@@PEAU_xDISPATCHER_CONTEXT@@_K@Z 0000000180033ce4 f   libvcruntime:ehstate.obj
 0001:0003395c       ??$TypeMatchHelper@V__FrameHandler3@@@@YAHPEBU_s_HandlerType@@PEBU_s_CatchableType@@PEBU_s_ThrowInfo@@@Z 000000018003495c f i libvcruntime:frame.obj
 0001:00033a9c       ??$TypeMatchHelper@V__FrameHandler4@@@@YAHPEAUHandlerType4@FH4@@PEBU_s_CatchableType@@PEBU_s_ThrowInfo@@@Z 0000000180034a9c f i libvcruntime:frame.obj
 0001:00033be0       ??$__InternalCxxFrameHandler@V__FrameHandler4@@@@YA?AW4_EXCEPTION_DISPOSITION@@PEAUEHExceptionRecord@@PEA_KPEAU_CONTEXT@@PEAU_xDISPATCHER_CONTEXT@@PEAUFuncInfo4@FH4@@H1E@Z 0000000180034be0 f i libvcruntime:frame.obj
 0001:00033e74       ??0HandlerMap4@FH4@@QEAA@PEBUTryBlockMapEntry4@1@_KH@Z 0000000180034e74 f i libvcruntime:frame.obj
 0001:00033ef0       ??0TryBlockMap4@FH4@@QEAA@PEBUFuncInfo4@1@_K@Z 0000000180034ef0 f i libvcruntime:frame.obj
 0001:00033fc8       ??0bad_exception@std@@QEAA@AEBV01@@Z 0000000180034fc8 f i libvcruntime:frame.obj
 0001:00034004       ??0bad_exception@std@@QEAA@XZ 0000000180035004 f i libvcruntime:frame.obj
 0001:00034024       ??0exception@std@@QEAA@AEBV01@@Z 0000000180035024 f i libvcruntime:frame.obj
 0001:00034058       ??1bad_exception@std@@UEAA@XZ 0000000180035058 f i libvcruntime:frame.obj
 0001:0003406c       ??_Ebad_exception@std@@UEAAPEAXI@Z 000000018003506c f i libvcruntime:frame.obj
 0001:0003406c       ??_Eexception@std@@UEAAPEAXI@Z 000000018003506c f i libvcruntime:frame.obj
 0001:0003406c       ??_Gbad_exception@std@@UEAAPEAXI@Z 000000018003506c f i libvcruntime:frame.obj
 0001:0003406c       ??_Gexception@std@@UEAAPEAXI@Z 000000018003506c f i libvcruntime:frame.obj
 0001:000340b0       ?CxxCallCatchBlock@__FrameHandler4@@SAPEAXPEAU_EXCEPTION_RECORD@@@Z 00000001800350b0 f   libvcruntime:frame.obj
 0001:00034300       ?DecompHandler@HandlerMap4@FH4@@AEAAXXZ 0000000180035300 f i libvcruntime:frame.obj
 0001:0003454c       ?FrameUnwindToState@__FrameHandler4@@SAXPEA_KPEAU_xDISPATCHER_CONTEXT@@PEAUFuncInfo4@FH4@@H@Z 000000018003554c f   libvcruntime:frame.obj
 0001:000349c0       ?ReadEntry@UWMap4@FH4@@AEAAXPEAPEAE@Z 00000001800359c0 f i libvcruntime:frame.obj
 0001:00034a5c       ?_CallMemberFunction1@@YAXQEAX00@Z 0000000180035a5c f i libvcruntime:frame.obj
 0001:00034a68       ?_CallMemberFunction2@@YAXQEAX00H@Z 0000000180035a68 f i libvcruntime:frame.obj
 0001:00034a78       ?getStartStop@UWMap4@FH4@@QEAAXHHAEAViterator@12@0@Z 0000000180035a78 f i libvcruntime:frame.obj
 0001:00034b48       ?getStateFromIterators@UWMap4@FH4@@SAHAEBViterator@12@H0H0@Z 0000000180035b48 f i libvcruntime:frame.obj
 0001:00034c14       ?what@exception@std@@UEBAPEBDXZ 0000000180035c14 f i libvcruntime:frame.obj
 0001:00034c40       _CallSettingFrame          0000000180035c40 f   libvcruntime:handlers.obj
 0001:00034c90       _CallSettingFrame_LookupContinuationIndex 0000000180035c90 f   libvcruntime:handlers.obj
 0001:00034cc0       _CallSettingFrame_NotifyContinuationAddr 0000000180035cc0 f   libvcruntime:handlers.obj
 0001:00034cf0       _CallSettingFrameEncoded   0000000180035cf0 f   libvcruntime:handlers.obj
 0001:00034d38       __std_exception_copy       0000000180035d38 f   libvcruntime:std_exception.obj
 0001:00034dc8       __std_exception_destroy    0000000180035dc8 f   libvcruntime:std_exception.obj
 0001:00034df0       _CxxThrowException         0000000180035df0 f   libvcruntime:throw.obj
 0001:00034ea0       strcmp                     0000000180035ea0 f   libucrt:strcmp.obj
 0001:00034f08       atan2f                     0000000180035f08 f   libucrt:atan2f.obj
 0001:00035300       cosf                       0000000180036300 f   libucrt:cosf.obj
 0001:00035800       sinf                       0000000180036800 f   libucrt:sinf.obj
 0001:00035ef8       _fpclass                   0000000180036ef8 f   libucrt:ieeemisc.obj
 0001:00035f80       free                       0000000180036f80 f   libucrt:free.obj
 0001:00035f94       _initterm                  0000000180036f94 f   libucrt:initterm.obj
 0001:00035ff8       _initterm_e                0000000180036ff8 f   libucrt:initterm.obj
 0001:00036038       _seh_filter_dll            0000000180037038 f   libucrt:exception_filter.obj
 0001:0003604c       _seh_filter_exe            000000018003704c f   libucrt:exception_filter.obj
 0001:0003643c       __acrt_initialize_thread_local_exit_callback 000000018003743c f   libucrt:exit.obj
 0001:00036444       _cexit                     0000000180037444 f   libucrt:exit.obj
 0001:00036454       _exit                      0000000180037454 f   libucrt:exit.obj
 0001:00036460       _is_c_termination_complete 0000000180037460 f   libucrt:exit.obj
 0001:00036628       __acrt_allocate_buffer_for_argv 0000000180037628 f   libucrt:argv_parsing.obj
 0001:00036688       _configure_narrow_argv     0000000180037688 f   libucrt:argv_parsing.obj
 0001:00036a00       __dcrt_uninitialize_environments_nolock 0000000180037a00 f   libucrt:environment_initialization.obj
 0001:00036a38       _initialize_narrow_environment 0000000180037a38 f   libucrt:environment_initialization.obj
 0001:00036b94       _execute_onexit_table      0000000180037b94 f   libucrt:onexit.obj
 0001:00036bd0       _initialize_onexit_table   0000000180037bd0 f   libucrt:onexit.obj
 0001:00036c30       __acrt_uninitialize_command_line 0000000180037c30 f   libucrt:argv_data.obj
 0001:00036d28       __acrt_initialize          0000000180037d28 f   libucrt:initialization.obj
 0001:00036d3c       __acrt_thread_attach       0000000180037d3c f   libucrt:initialization.obj
 0001:00036d50       __acrt_thread_detach       0000000180037d50 f   libucrt:initialization.obj
 0001:00036d60       __acrt_uninitialize        0000000180037d60 f   libucrt:initialization.obj
 0001:00036d98       __acrt_uninitialize_critical 0000000180037d98 f   libucrt:initialization.obj
 0001:00036da8       terminate                  0000000180037da8 f   libucrt:terminate.obj
 0001:00036dc8       abort                      0000000180037dc8 f   libucrt:abort.obj
 0001:00036e20       malloc                     0000000180037e20 f   libucrt:malloc.obj
 0001:00036e28       strcpy_s                   0000000180037e28 f   libucrt:strcpy_s.obj
 0001:00037220       ??$ensure_buffer_is_big_enough@D@formatting_buffer@__crt_stdio_output@@QEAA_N_K@Z 0000000180038220 f i libucrt:output.obj
 0001:000372c8       ??$type_case_integer_parse_into_buffer@I@?$output_processor@DV?$string_output_adapter@D@__crt_stdio_output@@V?$format_validation_base@DV?$string_output_adapter@D@__crt_stdio_output@@@2@@__crt_stdio_output@@AEAAXII_N@Z 00000001800382c8 f i libucrt:output.obj
 0001:000372c8       ??$type_case_integer_parse_into_buffer@I@?$output_processor@DV?$string_output_adapter@D@__crt_stdio_output@@V?$standard_base@DV?$string_output_adapter@D@__crt_stdio_output@@@2@@__crt_stdio_output@@AEAAXII_N@Z 00000001800382c8 f i libucrt:output.obj
 0001:00037350       ??$type_case_integer_parse_into_buffer@_K@?$output_processor@DV?$string_output_adapter@D@__crt_stdio_output@@V?$format_validation_base@DV?$string_output_adapter@D@__crt_stdio_output@@@2@@__crt_stdio_output@@AEAAX_KI_N@Z 0000000180038350 f i libucrt:output.obj
 0001:00037350       ??$type_case_integer_parse_into_buffer@_K@?$output_processor@DV?$string_output_adapter@D@__crt_stdio_output@@V?$standard_base@DV?$string_output_adapter@D@__crt_stdio_output@@@2@@__crt_stdio_output@@AEAAX_KI_N@Z 0000000180038350 f i libucrt:output.obj
 0001:000373e0       ??$write_multiple_characters@V?$string_output_adapter@D@__crt_stdio_output@@D@__crt_stdio_output@@YAXAEBV?$string_output_adapter@D@0@DHQEAH@Z 00000001800383e0 f i libucrt:output.obj
 0001:00037458       ??0_LocaleUpdate@@QEAA@QEAU__crt_locale_pointers@@@Z 0000000180038458 f i libucrt:output.obj
 0001:00037500       ?crop_zeroes@__crt_stdio_output@@YAXPEADQEAU__crt_locale_pointers@@@Z 0000000180038500 f i libucrt:output.obj
 0001:000375a0       ?force_decimal_point@__crt_stdio_output@@YAXPEADQEAU__crt_locale_pointers@@@Z 00000001800385a0 f i libucrt:output.obj
 0001:00037618       ?parse_int_from_format_string@?$output_processor@DV?$string_output_adapter@D@__crt_stdio_output@@V?$format_validation_base@DV?$string_output_adapter@D@__crt_stdio_output@@@2@@__crt_stdio_output@@AEAA_NQEAH@Z 0000000180038618 f i libucrt:output.obj
 0001:00037618       ?parse_int_from_format_string@?$output_processor@DV?$string_output_adapter@D@__crt_stdio_output@@V?$standard_base@DV?$string_output_adapter@D@__crt_stdio_output@@@2@@__crt_stdio_output@@AEAA_NQEAH@Z 0000000180038618 f i libucrt:output.obj
 0001:000376bc       ?process@?$output_processor@DV?$string_output_adapter@D@__crt_stdio_output@@V?$format_validation_base@DV?$string_output_adapter@D@__crt_stdio_output@@@2@@__crt_stdio_output@@QEAAHXZ 00000001800386bc f i libucrt:output.obj
 0001:000378d0       ?process@?$output_processor@DV?$string_output_adapter@D@__crt_stdio_output@@V?$standard_base@DV?$string_output_adapter@D@__crt_stdio_output@@@2@@__crt_stdio_output@@QEAAHXZ 00000001800388d0 f i libucrt:output.obj
 0001:00037ad8       ?state_case_normal@?$output_processor@DV?$string_output_adapter@D@__crt_stdio_output@@V?$format_validation_base@DV?$string_output_adapter@D@__crt_stdio_output@@@2@@__crt_stdio_output@@AEAA_NXZ 0000000180038ad8 f i libucrt:output.obj
 0001:00037ad8       ?state_case_normal@?$output_processor@DV?$string_output_adapter@D@__crt_stdio_output@@V?$standard_base@DV?$string_output_adapter@D@__crt_stdio_output@@@2@@__crt_stdio_output@@AEAA_NXZ 0000000180038ad8 f i libucrt:output.obj
 0001:00037b4c       ?state_case_normal_tchar@?$output_processor@DV?$string_output_adapter@D@__crt_stdio_output@@V?$format_validation_base@DV?$string_output_adapter@D@__crt_stdio_output@@@2@@__crt_stdio_output@@AEAA_ND@Z 0000000180038b4c f i libucrt:output.obj
 0001:00037b4c       ?state_case_normal_tchar@?$output_processor@DV?$string_output_adapter@D@__crt_stdio_output@@V?$standard_base@DV?$string_output_adapter@D@__crt_stdio_output@@@2@@__crt_stdio_output@@AEAA_ND@Z 0000000180038b4c f i libucrt:output.obj
 0001:00037bf4       ?state_case_size@?$output_processor@DV?$string_output_adapter@D@__crt_stdio_output@@V?$format_validation_base@DV?$string_output_adapter@D@__crt_stdio_output@@@2@@__crt_stdio_output@@AEAA_NXZ 0000000180038bf4 f i libucrt:output.obj
 0001:00037bf4       ?state_case_size@?$output_processor@DV?$string_output_adapter@D@__crt_stdio_output@@V?$standard_base@DV?$string_output_adapter@D@__crt_stdio_output@@@2@@__crt_stdio_output@@AEAA_NXZ 0000000180038bf4 f i libucrt:output.obj
 0001:00037d64       ?state_case_type@?$output_processor@DV?$string_output_adapter@D@__crt_stdio_output@@V?$format_validation_base@DV?$string_output_adapter@D@__crt_stdio_output@@@2@@__crt_stdio_output@@AEAA_NXZ 0000000180038d64 f i libucrt:output.obj
 0001:00037d64       ?state_case_type@?$output_processor@DV?$string_output_adapter@D@__crt_stdio_output@@V?$standard_base@DV?$string_output_adapter@D@__crt_stdio_output@@@2@@__crt_stdio_output@@AEAA_NXZ 0000000180038d64 f i libucrt:output.obj
 0001:00037fd0       ?to_integer_size@__crt_stdio_output@@YA_KW4length_modifier@1@@Z 0000000180038fd0 f i libucrt:output.obj
 0001:00038038       ?type_case_Z@?$output_processor@DV?$string_output_adapter@D@__crt_stdio_output@@V?$format_validation_base@DV?$string_output_adapter@D@__crt_stdio_output@@@2@@__crt_stdio_output@@AEAA_NXZ 0000000180039038 f i libucrt:output.obj
 0001:00038038       ?type_case_Z@?$output_processor@DV?$string_output_adapter@D@__crt_stdio_output@@V?$standard_base@DV?$string_output_adapter@D@__crt_stdio_output@@@2@@__crt_stdio_output@@AEAA_NXZ 0000000180039038 f i libucrt:output.obj
 0001:000380ac       ?type_case_a@?$output_processor@DV?$string_output_adapter@D@__crt_stdio_output@@V?$format_validation_base@DV?$string_output_adapter@D@__crt_stdio_output@@@2@@__crt_stdio_output@@AEAA_NXZ 00000001800390ac f i libucrt:output.obj
 0001:000380ac       ?type_case_a@?$output_processor@DV?$string_output_adapter@D@__crt_stdio_output@@V?$standard_base@DV?$string_output_adapter@D@__crt_stdio_output@@@2@@__crt_stdio_output@@AEAA_NXZ 00000001800390ac f i libucrt:output.obj
 0001:00038268       ?type_case_c_tchar@?$output_processor@DV?$string_output_adapter@D@__crt_stdio_output@@V?$format_validation_base@DV?$string_output_adapter@D@__crt_stdio_output@@@2@@__crt_stdio_output@@AEAA_ND@Z 0000000180039268 f i libucrt:output.obj
 0001:00038268       ?type_case_c_tchar@?$output_processor@DV?$string_output_adapter@D@__crt_stdio_output@@V?$standard_base@DV?$string_output_adapter@D@__crt_stdio_output@@@2@@__crt_stdio_output@@AEAA_ND@Z 0000000180039268 f i libucrt:output.obj
 0001:00038330       ?type_case_integer@?$output_processor@DV?$string_output_adapter@D@__crt_stdio_output@@V?$format_validation_base@DV?$string_output_adapter@D@__crt_stdio_output@@@2@@__crt_stdio_output@@AEAA_NI_N@Z 0000000180039330 f i libucrt:output.obj
 0001:00038330       ?type_case_integer@?$output_processor@DV?$string_output_adapter@D@__crt_stdio_output@@V?$standard_base@DV?$string_output_adapter@D@__crt_stdio_output@@@2@@__crt_stdio_output@@AEAA_NI_N@Z 0000000180039330 f i libucrt:output.obj
 0001:000384b0       ?type_case_n@?$output_processor@DV?$string_output_adapter@D@__crt_stdio_output@@V?$format_validation_base@DV?$string_output_adapter@D@__crt_stdio_output@@@2@@__crt_stdio_output@@AEAA_NXZ 00000001800394b0 f i libucrt:output.obj
 0001:000384b0       ?type_case_n@?$output_processor@DV?$string_output_adapter@D@__crt_stdio_output@@V?$standard_base@DV?$string_output_adapter@D@__crt_stdio_output@@@2@@__crt_stdio_output@@AEAA_NXZ 00000001800394b0 f i libucrt:output.obj
 0001:00038538       ?type_case_s@?$output_processor@DV?$string_output_adapter@D@__crt_stdio_output@@V?$format_validation_base@DV?$string_output_adapter@D@__crt_stdio_output@@@2@@__crt_stdio_output@@AEAA_NXZ 0000000180039538 f i libucrt:output.obj
 0001:00038538       ?type_case_s@?$output_processor@DV?$string_output_adapter@D@__crt_stdio_output@@V?$standard_base@DV?$string_output_adapter@D@__crt_stdio_output@@@2@@__crt_stdio_output@@AEAA_NXZ 0000000180039538 f i libucrt:output.obj
 0001:000385d0       ?write_stored_string_tchar@?$output_processor@DV?$string_output_adapter@D@__crt_stdio_output@@V?$format_validation_base@DV?$string_output_adapter@D@__crt_stdio_output@@@2@@__crt_stdio_output@@AEAA_ND@Z 00000001800395d0 f i libucrt:output.obj
 0001:000385d0       ?write_stored_string_tchar@?$output_processor@DV?$string_output_adapter@D@__crt_stdio_output@@V?$standard_base@DV?$string_output_adapter@D@__crt_stdio_output@@@2@@__crt_stdio_output@@AEAA_ND@Z 00000001800395d0 f i libucrt:output.obj
 0001:000386ac       ?write_string@?$string_output_adapter@D@__crt_stdio_output@@QEBAXQEBDHQEAHAEAV__crt_deferred_errno_cache@@@Z 00000001800396ac f i libucrt:output.obj
 0001:00038750       __stdio_common_vsprintf    0000000180039750 f   libucrt:output.obj
 0001:00038758       __stdio_common_vsprintf_s  0000000180039758 f   libucrt:output.obj
 0001:000387bc       ??$parse_integer@KV?$c_string_character_source@D@__crt_strtox@@@__crt_strtox@@YAKQEAU__crt_locale_pointers@@V?$c_string_character_source@D@0@H_N@Z 00000001800397bc f i libucrt:atox.obj
 0001:00038ac0       _ischartype_l              0000000180039ac0 f i libucrt:atox.obj
 0001:00038b38       atol                       0000000180039b38 f   libucrt:atox.obj
 0001:00038b80       strncmp                    0000000180039b80 f   libucrt:strncmp.obj
 0001:00038c00       calloc                     0000000180039c00 f   libucrt:calloc.obj
 0001:00038c08       wcsncmp                    0000000180039c08 f   libucrt:wcsncmp.obj
 0001:00038c34       _clrfp                     0000000180039c34 f   libucrt:fpctrl.obj
 0001:00038c54       _ctrlfp                    0000000180039c54 f   libucrt:fpctrl.obj
 0001:00038cd0       _set_statfp                0000000180039cd0 f   libucrt:fpctrl.obj
 0001:00038cf0       _statfp                    0000000180039cf0 f   libucrt:fpctrl.obj
 0001:00038e28       _handle_error              0000000180039e28 f   libucrt:libm_error.obj
 0001:00038f50       _handle_errorf             0000000180039f50 f   libucrt:libm_error.obj
 0001:00039084       _handle_nan                000000018003a084 f   libucrt:libm_error.obj
 0001:000390a0       _handle_nanf               000000018003a0a0 f   libucrt:libm_error.obj
 0001:000390b0       __remainder_piby2d2f_forAsm 000000018003a0b0 f   libucrt:remainder_piby2f_forasm.obj
 0001:00039200       __remainder_piby2_fma3     000000018003a200 f   libucrt:remainder_piby2_forfma3.obj
 0001:000393f0       __remainder_piby2_fma3_bdl 000000018003a3f0 f   libucrt:remainder_piby2_forfma3.obj
 0001:00039468       _cosf_special              000000018003a468 f   libucrt:sincos_special.obj
 0001:00039508       _sinf_special              000000018003a508 f   libucrt:sincos_special.obj
 0001:00039520       __acrt_initialize_fma3     000000018003a520 f   libucrt:fma3_available.obj
 0001:00039590       __remainder_piby2d2f_forC  000000018003a590 f   libucrt:remainder_piby2f_forc.obj
 0001:0003971c       _free_base                 000000018003a71c f   libucrt:free_base.obj
 0001:00039ad4       __acrt_freeptd             000000018003aad4 f   libucrt:per_thread_data.obj
 0001:00039b18       __acrt_getptd              000000018003ab18 f   libucrt:per_thread_data.obj
 0001:00039bec       __acrt_getptd_head         000000018003abec f   libucrt:per_thread_data.obj
 0001:00039c94       __acrt_getptd_noexit       000000018003ac94 f   libucrt:per_thread_data.obj
 0001:00039d60       __acrt_initialize_ptd      000000018003ad60 f   libucrt:per_thread_data.obj
 0001:00039d9c       __acrt_uninitialize_ptd    000000018003ad9c f   libucrt:per_thread_data.obj
 0001:00039dc0       __acrt_initialize_locks    000000018003adc0 f   libucrt:locks.obj
 0001:00039e08       __acrt_lock                000000018003ae08 f   libucrt:locks.obj
 0001:00039e24       __acrt_uninitialize_locks  000000018003ae24 f   libucrt:locks.obj
 0001:00039e5c       __acrt_unlock              000000018003ae5c f   libucrt:locks.obj
 0001:00039e78       __acrt_get_process_end_policy 000000018003ae78 f   libucrt:win_policies.obj
 0001:00039eb4       __acrt_call_reportfault    000000018003aeb4 f   libucrt:invalid_parameter.obj
 0001:0003a010       __acrt_initialize_invalid_parameter_handler 000000018003b010 f   libucrt:invalid_parameter.obj
 0001:0003a018       _invalid_parameter         000000018003b018 f   libucrt:invalid_parameter.obj
 0001:0003a0c8       _invalid_parameter_noinfo  000000018003b0c8 f   libucrt:invalid_parameter.obj
 0001:0003a0e8       _invoke_watson             000000018003b0e8 f   libucrt:invalid_parameter.obj
 0001:0003a130       __acrt_errno_from_os_error 000000018003b130 f   libucrt:errno.obj
 0001:0003a178       __acrt_errno_map_os_error  000000018003b178 f   libucrt:errno.obj
 0001:0003a1c8       __doserrno                 000000018003b1c8 f   libucrt:errno.obj
 0001:0003a1e8       _errno                     000000018003b1e8 f   libucrt:errno.obj
 0001:0003a208       _calloc_base               000000018003b208 f   libucrt:calloc_base.obj
 0001:0003a294       ??$__acrt_mbs_to_wcs_cp@U__crt_win32_buffer_internal_dynamic_resizing@@@@YAHQEBDAEAV?$__crt_win32_buffer@_WU__crt_win32_buffer_internal_dynamic_resizing@@@@I@Z 000000018003b294 f i libucrt:argv_wildcards.obj
 0001:0003a40c       ??$__acrt_wcs_to_mbs_cp@U__crt_win32_buffer_internal_dynamic_resizing@@@@YAHQEB_WAEAV?$__crt_win32_buffer@DU__crt_win32_buffer_internal_dynamic_resizing@@@@I@Z 000000018003b40c f i libucrt:argv_wildcards.obj
 0001:0003ac3c       __acrt_expand_narrow_argv_wildcards 000000018003bc3c f   libucrt:argv_wildcards.obj
 0001:0003ac44       ??$__acrt_wcs_to_mbs_cp@U__crt_win32_buffer_no_resizing@@@@YAHQEB_WAEAV?$__crt_win32_buffer@DU__crt_win32_buffer_no_resizing@@@@I@Z 000000018003bc44 f i libucrt:getmodulefilenamea.obj
 0001:0003ad58       __acrt_GetModuleFileNameA  000000018003bd58 f   libucrt:getmodulefilenamea.obj
 0001:0003b5a0       __acrt_initialize_multibyte 000000018003c5a0 f   libucrt:mbctype.obj
 0001:0003b600       __acrt_update_thread_multibyte_data 000000018003c600 f   libucrt:mbctype.obj
 0001:0003b61c       _setmbcp_nolock            000000018003c61c f   libucrt:mbctype.obj
 0001:0003b950       _ismbblead                 000000018003c950 f   libucrt:ismbbyte.obj
 0001:0003b964       __acrt_initialize_command_line 000000018003c964 f   libucrt:argv_data.obj
 0001:0003b98c       __acrt_MultiByteToWideChar 000000018003c98c f   libucrt:multibytetowidechar.obj
 0001:0003b9e8       __acrt_WideCharToMultiByte 000000018003c9e8 f   libucrt:widechartomultibyte.obj
 0001:0003ba98       __dcrt_get_narrow_environment_from_os 000000018003ca98 f   libucrt:get_environment_from_os.obj
 0001:0003bb9c       _recalloc_base             000000018003cb9c f   libucrt:recalloc.obj
 0001:0003be0c       __acrt_AppPolicyGetProcessTerminationMethodInternal 000000018003ce0c f   libucrt:winapi_thunks.obj
 0001:0003be5c       __acrt_AreFileApisANSI     000000018003ce5c f   libucrt:winapi_thunks.obj
 0001:0003be98       __acrt_FlsAlloc            000000018003ce98 f   libucrt:winapi_thunks.obj
 0001:0003bee0       __acrt_FlsFree             000000018003cee0 f   libucrt:winapi_thunks.obj
 0001:0003bf28       __acrt_FlsGetValue         000000018003cf28 f   libucrt:winapi_thunks.obj
 0001:0003bf70       __acrt_FlsSetValue         000000018003cf70 f   libucrt:winapi_thunks.obj
 0001:0003bfc4       __acrt_InitializeCriticalSectionEx 000000018003cfc4 f   libucrt:winapi_thunks.obj
 0001:0003c028       __acrt_LCMapStringEx       000000018003d028 f   libucrt:winapi_thunks.obj
 0001:0003c104       __acrt_LocaleNameToLCID    000000018003d104 f   libucrt:winapi_thunks.obj
 0001:0003c154       __acrt_initialize_winapi_thunks 000000018003d154 f   libucrt:winapi_thunks.obj
 0001:0003c188       __acrt_uninitialize_winapi_thunks 000000018003d188 f   libucrt:winapi_thunks.obj
 0001:0003c1cc       __acrt_initialize_heap     000000018003d1cc f   libucrt:heap_handle.obj
 0001:0003c1e8       __acrt_uninitialize_heap   000000018003d1e8 f   libucrt:heap_handle.obj
 0001:0003c3f0       __acrt_initialize_lowio    000000018003d3f0 f   libucrt:ioinit.obj
 0001:0003c42c       __acrt_uninitialize_lowio  000000018003d42c f   libucrt:ioinit.obj
 0001:0003c46c       __acrt_execute_initializers 000000018003d46c f   libucrt:shared_initialization.obj
 0001:0003c4ec       __acrt_execute_uninitializers 000000018003d4ec f   libucrt:shared_initialization.obj
 0001:0003c528       __acrt_initialize_new_handler 000000018003d528 f   libucrt:new_handler.obj
 0001:0003c530       _callnewh                  000000018003d530 f   libucrt:new_handler.obj
 0001:0003c560       _query_new_handler         000000018003d560 f   libucrt:new_handler.obj
 0001:0003c5dc       __acrt_get_sigabrt_handler 000000018003d5dc f   libucrt:signal.obj
 0001:0003c60c       __acrt_initialize_signal_handlers 000000018003d60c f   libucrt:signal.obj
 0001:0003c62c       raise                      000000018003d62c f   libucrt:signal.obj
 0001:0003c898       __acrt_has_user_matherr    000000018003d898 f   libucrt:matherr.obj
 0001:0003c8b8       __acrt_initialize_user_matherr 000000018003d8b8 f   libucrt:matherr.obj
 0001:0003c8c0       __acrt_invoke_user_matherr 000000018003d8c0 f   libucrt:matherr.obj
 0001:0003cacc       __acrt_stdio_flush_nolock  000000018003dacc f   libucrt:fflush.obj
 0001:0003cb48       _fflush_nolock             000000018003db48 f   libucrt:fflush.obj
 0001:0003cb94       _flushall                  000000018003db94 f   libucrt:fflush.obj
 0001:0003cb9c       __acrt_initialize_stdio    000000018003db9c f   libucrt:_file.obj
 0001:0003ccbc       __acrt_uninitialize_stdio  000000018003dcbc f   libucrt:_file.obj
 0001:0003cd18       _lock_file                 000000018003dd18 f   libucrt:_file.obj
 0001:0003cd24       _unlock_file               000000018003dd24 f   libucrt:_file.obj
 0001:0003cd30       _malloc_base               000000018003dd30 f   libucrt:malloc_base.obj
 0001:0003cd90       strtol                     000000018003dd90 f   libucrt:strtox.obj
 0001:0003cdbc       _mbtowc_l                  000000018003ddbc f   libucrt:mbtowc.obj
 0001:0003cf3c       mbtowc                     000000018003df3c f   libucrt:mbtowc.obj
 0001:0003cf44       _wctomb_s_l                000000018003df44 f   libucrt:wctomb.obj
 0001:0003d0e0       strnlen                    000000018003e0e0 f   libucrt:strnlen.obj
 0001:0003d230       wcsnlen                    000000018003e230 f   libucrt:strnlen.obj
 0001:0003d408       __acrt_update_locale_info  000000018003e408 f   libucrt:locale_update.obj
 0001:0003d43c       __acrt_update_multibyte_info 000000018003e43c f   libucrt:locale_update.obj
 0001:0003de7c       __acrt_fp_format           000000018003ee7c f   libucrt:cvt.obj
 0001:0003e1b4       _fileno                    000000018003f1b4 f   libucrt:fileno.obj
 0001:0003e1dc       _get_printf_count_output   000000018003f1dc f   libucrt:printf_count_output.obj
 0001:0003e264       __acrt_set_locale_changed  000000018003f264 f   libucrt:wsetlocale.obj
 0001:0003e270       __acrt_uninitialize_locale 000000018003f270 f   libucrt:wsetlocale.obj
 0001:0003e2a0       __pctype_func              000000018003f2a0 f   libucrt:ctype.obj
 0001:0003e2d0       _isctype_l                 000000018003f2d0 f   libucrt:isctype.obj
 0001:0003e3f0       _get_fpsr                  000000018003f3f0 f   libucrt:fpsr.obj
 0001:0003e400       _set_fpsr                  000000018003f400 f   libucrt:fpsr.obj
 0001:0003e40a       _fclrf                     000000018003f40a f   libucrt:fpsr.obj
 0001:0003e41e       _frnd                      000000018003f41e f   libucrt:fpsr.obj
 0001:0003e440       _raise_exc                 000000018003f440 f   libucrt:fpexcept.obj
 0001:0003e468       _raise_exc_ex              000000018003f468 f   libucrt:fpexcept.obj
 0001:0003e778       _raise_excf                000000018003f778 f   libucrt:fpexcept.obj
 0001:0003e7a4       _set_errno_from_matherr    000000018003f7a4 f   libucrt:fpexcept.obj
 0001:0003e7d4       __acrt_add_locale_ref      000000018003f7d4 f   libucrt:locale_refcounting.obj
 0001:0003e860       __acrt_free_locale         000000018003f860 f   libucrt:locale_refcounting.obj
 0001:0003e9d8       __acrt_locale_add_lc_time_reference 000000018003f9d8 f   libucrt:locale_refcounting.obj
 0001:0003ea00       __acrt_locale_free_lc_time_if_unreferenced 000000018003fa00 f   libucrt:locale_refcounting.obj
 0001:0003ea38       __acrt_locale_release_lc_time_reference 000000018003fa38 f   libucrt:locale_refcounting.obj
 0001:0003ea60       __acrt_release_locale_ref  000000018003fa60 f   libucrt:locale_refcounting.obj
 0001:0003eb08       __acrt_update_thread_locale_data 000000018003fb08 f   libucrt:locale_refcounting.obj
 0001:0003eb78       _updatetlocinfoEx_nolock   000000018003fb78 f   libucrt:locale_refcounting.obj
 0001:0003ebe0       _query_new_mode            000000018003fbe0 f   libucrt:new_mode.obj
 0001:0003ebf0       qsort                      000000018003fbf0 f   libucrt:qsort.obj
 0001:0003ef90       strncpy_s                  000000018003ff90 f   libucrt:strncpy_s.obj
 0001:0003f110       strpbrk                    0000000180040110 f   libucrt:strpbrk.obj
 0001:0003f4d8       _mbsdec                    00000001800404d8 f   libucrt:mbsdec.obj
 0001:0003f4e0       _mbsdec_l                  00000001800404e0 f   libucrt:mbsdec.obj
 0001:0003f574       __acrt_GetStringTypeA      0000000180040574 f   libucrt:getstringtypea.obj
 0001:0003fa1c       __acrt_LCMapStringA        0000000180040a1c f   libucrt:lcmapstringa.obj
 0001:0003facc       _msize_base                0000000180040acc f   libucrt:msize.obj
 0001:0003fb08       _realloc_base              0000000180040b08 f   libucrt:realloc_base.obj
 0001:0003fb84       __acrt_DownlevelLocaleNameToLCID 0000000180040b84 f   libucrt:lcidtoname_downlevel.obj
 0001:0003fc34       __acrt_lowio_create_handle_array 0000000180040c34 f   libucrt:osfinfo.obj
 0001:0003fcdc       __acrt_lowio_destroy_handle_array 0000000180040cdc f   libucrt:osfinfo.obj
 0001:0003fd2c       __acrt_lowio_ensure_fh_exists 0000000180040d2c f   libucrt:osfinfo.obj
 0001:0003fdd4       __acrt_lowio_lock_fh       0000000180040dd4 f   libucrt:osfinfo.obj
 0001:0003fdfc       __acrt_lowio_unlock_fh     0000000180040dfc f   libucrt:osfinfo.obj
 0001:0003fe24       _free_osfhnd               0000000180040e24 f   libucrt:osfinfo.obj
 0001:0003fee0       _get_osfhandle             0000000180040ee0 f   libucrt:osfinfo.obj
 0001:0003ffe4       _commit                    0000000180040fe4 f   libucrt:commit.obj
 0001:000408f4       _write                     00000001800418f4 f   libucrt:write.obj
 0001:000409e0       _write_nolock              00000001800419e0 f   libucrt:write.obj
 0001:00040cc4       _fcloseall                 0000000180041cc4 f   libucrt:closeall.obj
 0001:00040d78       __acrt_stdio_free_buffer_nolock 0000000180041d78 f   libucrt:_freebuf.obj
 0001:00040db8       _isatty                    0000000180041db8 f   libucrt:isatty.obj
 0001:00040e18       _isleadbyte_l              0000000180041e18 f i libucrt:_wctype.obj
 0001:00040e64       ?__mbrtowc_utf8@__crt_mbstring@@YA_KPEA_WPEBD_KPEAU_Mbstatet@@@Z 0000000180041e64 f   libucrt:mbrtowc.obj
 0001:00040ea0       ?__mbsrtowcs_utf8@__crt_mbstring@@YA_KPEA_WPEAPEBD_KPEAU_Mbstatet@@@Z 0000000180041ea0 f   libucrt:mbrtowc.obj
 0001:00041018       ?__c32rtomb_utf8@__crt_mbstring@@YA_KPEAD_UPEAU_Mbstatet@@@Z 0000000180042018 f   libucrt:c32rtomb.obj
 0001:000410cc       __acrt_fp_strflt_to_string 00000001800420cc f   libucrt:_fptostr.obj
 0001:00041230       ?divide@__crt_strtox@@YA_KAEAUbig_integer@1@AEBU21@@Z 0000000180042230 f i libucrt:cfout.obj
 0001:0004165c       __acrt_fltout              000000018004265c f   libucrt:cfout.obj
 0001:00042928       fegetround                 0000000180043928 f   libucrt:fegetround.obj
 0001:0004293c       __acrt_locale_free_monetary 000000018004393c f   libucrt:initmon.obj
 0001:00042a48       __acrt_locale_free_numeric 0000000180043a48 f   libucrt:initnum.obj
 0001:00042b0c       __acrt_locale_free_time    0000000180043b0c f   libucrt:inittime.obj
 0001:00042c14       __strncnt                  0000000180043c14 f   libucrt:strncnt.obj
 0001:00042c2c       __ascii_wcsnicmp           0000000180043c2c f   libucrt:wcsnicmp.obj
 0001:00042c78       _query_app_type            0000000180043c78 f   libucrt:report_runtime_error.obj
 0001:00042d1c       _lseeki64_nolock           0000000180043d1c f   libucrt:lseek.obj
 0001:00042d24       _putwch_nolock             0000000180043d24 f   libucrt:putwch.obj
 0001:00042d60       _fclose_nolock             0000000180043d60 f   libucrt:fclose.obj
 0001:00042de4       fclose                     0000000180043de4 f   libucrt:fclose.obj
 0001:00042e48       ?__mbrtoc32_utf8@__crt_mbstring@@YA_KPEA_UPEBD_KPEAU_Mbstatet@@@Z 0000000180043e48 f   libucrt:mbrtoc32.obj
 0001:00043020       _controlfp_s               0000000180044020 f   libucrt:contrlfp.obj
 0001:00043084       fegetenv                   0000000180044084 f   libucrt:fegetenv.obj
 0001:000430a4       fesetenv                   00000001800440a4 f   libucrt:fesetenv.obj
 0001:000430f0       feholdexcept               00000001800440f0 f   libucrt:feholdexcept.obj
 0001:00043140       ceil                       0000000180044140 f   libucrt:ceil.obj
 0001:00043210       log10                      0000000180044210 f   libucrt:log10.obj
 0001:000437bc       __acrt_fenv_get_common_round_control 00000001800447bc f   libucrt:_fenvutils.obj
 0001:000437c8       __acrt_fenv_get_control    00000001800447c8 f   libucrt:_fenvutils.obj
 0001:000438bc       __acrt_fenv_get_status     00000001800448bc f   libucrt:_fenvutils.obj
 0001:00043910       __acrt_fenv_set_control    0000000180044910 f   libucrt:_fenvutils.obj
 0001:00043a58       __acrt_fenv_set_status     0000000180044a58 f   libucrt:_fenvutils.obj
 0001:00043adc       __dcrt_lowio_ensure_console_output_initialized 0000000180044adc f   libucrt:initcon.obj
 0001:00043b30       __dcrt_terminate_console_output 0000000180044b30 f   libucrt:initcon.obj
 0001:00043b4c       __dcrt_write_console       0000000180044b4c f   libucrt:initcon.obj
 0001:00043c80       _close                     0000000180044c80 f   libucrt:close.obj
 0001:00043d24       _close_nolock              0000000180044d24 f   libucrt:close.obj
 0001:00043de4       ?__acrt_stdio_free_stream@@YAXV__crt_stdio_stream@@@Z 0000000180044de4 f   libucrt:stream.obj
 0001:00043e00       _clearfp                   0000000180044e00 f   libucrt:ieee.obj
 0001:00043e70       _control87                 0000000180044e70 f   libucrt:ieee.obj
 0001:00044140       _log10_special             0000000180045140 f   libucrt:log_special.obj
 0001:00044200       _FindPESection             0000000180045200 f   LIBCMT:pesect.obj
 0001:00044250       _IsNonwritableInCurrentImage 0000000180045250 f   LIBCMT:pesect.obj
 0001:000442a0       _ValidateImageBase         00000001800452a0 f   LIBCMT:pesect.obj
 0001:000442cc       __GSHandlerCheck           00000001800452cc f   LIBCMT:gshandler.obj
 0001:000442ec       __GSHandlerCheckCommon     00000001800452ec f   LIBCMT:gshandler.obj
 0001:00044360       __security_check_cookie    0000000180045360 f   LIBCMT:amdsecgs.obj
 0001:00044380       __GSHandlerCheck_SEH       0000000180045380 f   LIBCMT:gshandlerseh.obj
 0001:00044408       __raise_securityfailure    0000000180045408 f   LIBCMT:gs_report.obj
 0001:0004443c       __report_gsfailure         000000018004543c f   LIBCMT:gs_report.obj
 0001:00044510       __report_rangecheckfailure 0000000180045510 f   LIBCMT:gs_report.obj
 0001:00044524       __report_securityfailure   0000000180045524 f   LIBCMT:gs_report.obj
 0001:000446a4       strrchr                    00000001800456a4 f   libvcruntime:strrchr.obj
 0001:000447f0       memcmp                     00000001800457f0 f   libvcruntime:memcmp.obj
 0001:000448d0       _guard_dispatch_icall_nop  00000001800458d0 f   LIBCMT:guard_dispatch.obj
 0001:000448f0       _guard_xfg_dispatch_icall_nop 00000001800458f0 f   LIBCMT:guard_xfg_dispatch.obj
 0002:00000000       __imp_LoadLibraryA         0000000180046000     kernel32:KERNEL32.dll
 0002:00000008       __imp_WriteConsoleW        0000000180046008     kernel32:KERNEL32.dll
 0002:00000010       __imp_RaiseException       0000000180046010     kernel32:KERNEL32.dll
 0002:00000018       __imp_GetLastError         0000000180046018     kernel32:KERNEL32.dll
 0002:00000020       __imp_GetSystemInfo        0000000180046020     kernel32:KERNEL32.dll
 0002:00000028       __imp_VirtualProtect       0000000180046028     kernel32:KERNEL32.dll
 0002:00000030       __imp_VirtualQuery         0000000180046030     kernel32:KERNEL32.dll
 0002:00000038       __imp_FreeLibrary          0000000180046038     kernel32:KERNEL32.dll
 0002:00000040       __imp_GetModuleHandleW     0000000180046040     kernel32:KERNEL32.dll
 0002:00000048       __imp_GetProcAddress       0000000180046048     kernel32:KERNEL32.dll
 0002:00000050       __imp_LoadLibraryExA       0000000180046050     kernel32:KERNEL32.dll
 0002:00000058       __imp_InitializeSListHead  0000000180046058     kernel32:KERNEL32.dll
 0002:00000060       __imp_QueryPerformanceCounter 0000000180046060     kernel32:KERNEL32.dll
 0002:00000068       __imp_GetCurrentProcessId  0000000180046068     kernel32:KERNEL32.dll
 0002:00000070       __imp_GetCurrentThreadId   0000000180046070     kernel32:KERNEL32.dll
 0002:00000078       __imp_GetSystemTimeAsFileTime 0000000180046078     kernel32:KERNEL32.dll
 0002:00000080       __imp_RtlCaptureContext    0000000180046080     kernel32:KERNEL32.dll
 0002:00000088       __imp_RtlLookupFunctionEntry 0000000180046088     kernel32:KERNEL32.dll
 0002:00000090       __imp_RtlVirtualUnwind     0000000180046090     kernel32:KERNEL32.dll
 0002:00000098       __imp_IsDebuggerPresent    0000000180046098     kernel32:KERNEL32.dll
 0002:000000a0       __imp_UnhandledExceptionFilter 00000001800460a0     kernel32:KERNEL32.dll
 0002:000000a8       __imp_SetUnhandledExceptionFilter 00000001800460a8     kernel32:KERNEL32.dll
 0002:000000b0       __imp_GetStartupInfoW      00000001800460b0     kernel32:KERNEL32.dll
 0002:000000b8       __imp_IsProcessorFeaturePresent 00000001800460b8     kernel32:KERNEL32.dll
 0002:000000c0       __imp_InterlockedPushEntrySList 00000001800460c0     kernel32:KERNEL32.dll
 0002:000000c8       __imp_InterlockedFlushSList 00000001800460c8     kernel32:KERNEL32.dll
 0002:000000d0       __imp_RtlUnwindEx          00000001800460d0     kernel32:KERNEL32.dll
 0002:000000d8       __imp_SetLastError         00000001800460d8     kernel32:KERNEL32.dll
 0002:000000e0       __imp_EnterCriticalSection 00000001800460e0     kernel32:KERNEL32.dll
 0002:000000e8       __imp_LeaveCriticalSection 00000001800460e8     kernel32:KERNEL32.dll
 0002:000000f0       __imp_DeleteCriticalSection 00000001800460f0     kernel32:KERNEL32.dll
 0002:000000f8       __imp_InitializeCriticalSectionAndSpinCount 00000001800460f8     kernel32:KERNEL32.dll
 0002:00000100       __imp_TlsAlloc             0000000180046100     kernel32:KERNEL32.dll
 0002:00000108       __imp_TlsGetValue          0000000180046108     kernel32:KERNEL32.dll
 0002:00000110       __imp_TlsSetValue          0000000180046110     kernel32:KERNEL32.dll
 0002:00000118       __imp_TlsFree              0000000180046118     kernel32:KERNEL32.dll
 0002:00000120       __imp_LoadLibraryExW       0000000180046120     kernel32:KERNEL32.dll
 0002:00000128       __imp_EncodePointer        0000000180046128     kernel32:KERNEL32.dll
 0002:00000130       __imp_RtlPcToFileHeader    0000000180046130     kernel32:KERNEL32.dll
 0002:00000138       __imp_GetCurrentProcess    0000000180046138     kernel32:KERNEL32.dll
 0002:00000140       __imp_ExitProcess          0000000180046140     kernel32:KERNEL32.dll
 0002:00000148       __imp_TerminateProcess     0000000180046148     kernel32:KERNEL32.dll
 0002:00000150       __imp_GetModuleHandleExW   0000000180046150     kernel32:KERNEL32.dll
 0002:00000158       __imp_GetModuleFileNameW   0000000180046158     kernel32:KERNEL32.dll
 0002:00000160       __imp_HeapFree             0000000180046160     kernel32:KERNEL32.dll
 0002:00000168       __imp_HeapAlloc            0000000180046168     kernel32:KERNEL32.dll
 0002:00000170       __imp_FindClose            0000000180046170     kernel32:KERNEL32.dll
 0002:00000178       __imp_FindFirstFileExW     0000000180046178     kernel32:KERNEL32.dll
 0002:00000180       __imp_FindNextFileW        0000000180046180     kernel32:KERNEL32.dll
 0002:00000188       __imp_IsValidCodePage      0000000180046188     kernel32:KERNEL32.dll
 0002:00000190       __imp_GetACP               0000000180046190     kernel32:KERNEL32.dll
 0002:00000198       __imp_GetOEMCP             0000000180046198     kernel32:KERNEL32.dll
 0002:000001a0       __imp_GetCPInfo            00000001800461a0     kernel32:KERNEL32.dll
 0002:000001a8       __imp_GetCommandLineA      00000001800461a8     kernel32:KERNEL32.dll
 0002:000001b0       __imp_GetCommandLineW      00000001800461b0     kernel32:KERNEL32.dll
 0002:000001b8       __imp_MultiByteToWideChar  00000001800461b8     kernel32:KERNEL32.dll
 0002:000001c0       __imp_WideCharToMultiByte  00000001800461c0     kernel32:KERNEL32.dll
 0002:000001c8       __imp_GetEnvironmentStringsW 00000001800461c8     kernel32:KERNEL32.dll
 0002:000001d0       __imp_FreeEnvironmentStringsW 00000001800461d0     kernel32:KERNEL32.dll
 0002:000001d8       __imp_LCMapStringW         00000001800461d8     kernel32:KERNEL32.dll
 0002:000001e0       __imp_GetProcessHeap       00000001800461e0     kernel32:KERNEL32.dll
 0002:000001e8       __imp_GetStdHandle         00000001800461e8     kernel32:KERNEL32.dll
 0002:000001f0       __imp_GetFileType          00000001800461f0     kernel32:KERNEL32.dll
 0002:000001f8       __imp_GetStringTypeW       00000001800461f8     kernel32:KERNEL32.dll
 0002:00000200       __imp_HeapSize             0000000180046200     kernel32:KERNEL32.dll
 0002:00000208       __imp_HeapReAlloc          0000000180046208     kernel32:KERNEL32.dll
 0002:00000210       __imp_SetStdHandle         0000000180046210     kernel32:KERNEL32.dll
 0002:00000218       __imp_FlushFileBuffers     0000000180046218     kernel32:KERNEL32.dll
 0002:00000220       __imp_WriteFile            0000000180046220     kernel32:KERNEL32.dll
 0002:00000228       __imp_GetConsoleOutputCP   0000000180046228     kernel32:KERNEL32.dll
 0002:00000230       __imp_GetConsoleMode       0000000180046230     kernel32:KERNEL32.dll
 0002:00000238       __imp_SetFilePointerEx     0000000180046238     kernel32:KERNEL32.dll
 0002:00000240       __imp_CreateFileW          0000000180046240     kernel32:KERNEL32.dll
 0002:00000248       __imp_CloseHandle          0000000180046248     kernel32:KERNEL32.dll
 0002:00000250       \177KERNEL32_NULL_THUNK_DATA 0000000180046250     kernel32:KERNEL32.dll
 0002:00000258       __guard_check_icall_fptr   0000000180046258     LIBCMT:guard_support.obj
 0002:00000260       __guard_xfg_check_icall_fptr 0000000180046260     LIBCMT:guard_support.obj
 0002:00000268       __guard_dispatch_icall_fptr 0000000180046268     LIBCMT:guard_support.obj
 0002:00000270       __guard_xfg_dispatch_icall_fptr 0000000180046270     LIBCMT:guard_support.obj
 0002:00000278       __guard_xfg_table_dispatch_icall_fptr 0000000180046278     LIBCMT:guard_support.obj
 0002:00000280       __castguard_check_failure_os_handled_fptr 0000000180046280     LIBCMT:guard_support.obj
 0002:00000288       __guard_memcpy_fptr        0000000180046288     libvcruntime:softmemtag.obj
 0002:00000290       __xc_a                     0000000180046290     LIBCMT:initializers.obj
 0002:00000478       __xc_z                     0000000180046478     LIBCMT:initializers.obj
 0002:00000480       __xi_a                     0000000180046480     LIBCMT:initializers.obj
 0002:00000488       __acrt_tran_fma3_initializer 0000000180046488     libucrt:fma3_initializer.obj
 0002:00000490       __acrt_multibyte_initializer 0000000180046490     libucrt:multibyte_initializer.obj
 0002:00000498       __acrt_stdio_initializer   0000000180046498     libucrt:stdio_initializer.obj
 0002:000004a0       __xi_z                     00000001800464a0     LIBCMT:initializers.obj
 0002:000004a8       __xp_a                     00000001800464a8     LIBCMT:initializers.obj
 0002:000004b0       __acrt_locale_terminator   00000001800464b0     libucrt:locale_initializer.obj
 0002:000004b8       __dcrt_console_output_terminator 00000001800464b8     libucrt:console_output_initializer.obj
 0002:000004c0       __acrt_stdio_terminator    00000001800464c0     libucrt:stdio_initializer.obj
 0002:000004c8       __xp_z                     00000001800464c8     LIBCMT:initializers.obj
 0002:000004d0       __xt_a                     00000001800464d0     LIBCMT:initializers.obj
 0002:000004d8       __xt_z                     00000001800464d8     LIBCMT:initializers.obj
 0002:000004e0       ??_7PxFoundation@physx@@6B@ 00000001800464e0     Adjacencies.obj
 0002:00000520       ??_C@_0FJ@EILLOLMD@E?3?2UnityProjects?2_Iterum?2PhysXS@ 0000000180046520     Adjacencies.obj
 0002:00000580       ??_C@_0DA@FMEHLBKI@Adjacencies?3?3UpdateLink?3?5invali@ 0000000180046580     Adjacencies.obj
 0002:000005b0       ??_C@_0EA@CPHOACLK@Adjacencies?3?3CreateDatabase?3?5ca@ 00000001800465b0     Adjacencies.obj
 0002:000005f0       ??_C@_0BM@OIFKLHDN@?$DMallocation?5names?5disabled?$DO@ 00000001800465f0     Adjacencies.obj
 0002:00000630       ?sBufferSize@DebugText@Cm@physx@@2HB 0000000180046630     Cooking.obj
 0002:00000634       ??_C@_06EJKDJEDO@PxBase@   0000000180046634     Cooking.obj
 0002:00000640       ??_C@_0N@CDGINLLF@PxConvexMesh@ 0000000180046640     Cooking.obj
 0002:00000650       ??_C@_0O@PBAKPCEC@PxHeightField@ 0000000180046650     Cooking.obj
 0002:00000660       ??_7PxBase@physx@@6B@      0000000180046660     Cooking.obj
 0002:00000688       ??_7PxCooking@physx@@6B@   0000000180046688     Cooking.obj
 0002:00000708       ??_7Cooking@physx@@6B@     0000000180046708     Cooking.obj
 0002:00000790       ??_C@_0FC@PJIHAFK@Cooking?3?3validateTriangleMesh?3?5@ 0000000180046790     Cooking.obj
 0002:000007f0       ??_C@_0FF@PNIOGODK@E?3?2UnityProjects?2_Iterum?2PhysXS@ 00000001800467f0     Cooking.obj
 0002:00000850       ??_C@_0EK@EKAIJEBL@Cooking?3?3cookConvexMesh?3?5user?9p@ 0000000180046850     Cooking.obj
 0002:000008a0       ??_C@_0FA@GFFGAPML@Cooking?3?3cookConvexMesh?3?5provid@ 00000001800468a0     Cooking.obj
 0002:000008f0       ??_C@_0EP@PKDCPNNO@Cooking?3?3cookConvexMesh?3?5provid@ 00000001800468f0     Cooking.obj
 0002:00000940       ??_C@_0EO@LKFMMDE@Cooking?3?3cookConvexMesh?3?5user?9p@ 0000000180046940     Cooking.obj
 0002:00000990       ??_C@_0FF@PGOGAKFH@E?3?2UnityProjects?2_Iterum?2PhysXS@ 0000000180046990     Cooking.obj
 0002:000009e8       __real@3f800000            00000001800469e8     Cooking.obj
 0002:000009f0       __xmm@000000003a83126f3a83126f3a83126f 00000001800469f0     Cooking.obj
 0002:00000a00       __xmm@00000000ba83126fba83126fba83126f 0000000180046a00     Cooking.obj
 0002:00000a10       __xmm@3a83126f3a83126f3a83126f3a83126f 0000000180046a10     Cooking.obj
 0002:00000a20       __xmm@80000000800000008000000080000000 0000000180046a20     Cooking.obj
 0002:00000a30       __xmm@ba83126fba83126fba83126fba83126f 0000000180046a30     Cooking.obj
 0002:00000a40       ??_C@_0BA@DLCJDKDM@NonTrackedAlloc@ 0000000180046a40     CookingUtils.obj
 0002:00000a50       ??_C@_0FK@NOEJKDEB@E?3?2UnityProjects?2_Iterum?2PhysXS@ 0000000180046a50     CookingUtils.obj
 0002:00000ab0       ??_C@_0FG@ICFLLNDP@E?3?2UnityProjects?2_Iterum?2PhysXS@ 0000000180046ab0     EdgeList.obj
 0002:00000b08       ??_C@_0CO@GBNJFPN@EdgeList?3?3CreateFacesToEdges?3?5N@ 0000000180046b08     EdgeList.obj
 0002:00000b38       ??_C@_0CO@EHJBBMNK@EdgeList?3?3ComputeActiveEdges?3?5N@ 0000000180046b38     EdgeList.obj
 0002:00000b68       ??_C@_0DI@GBHLFOFP@ActiveEdges?3?3ComputeConvexEdges@ 0000000180046b68     EdgeList.obj
 0002:00000ba0       ??_C@_0DM@JOGBLHDI@ActiveEdges?3?3ComputeConvexEdges@ 0000000180046ba0     EdgeList.obj
 0002:00000be0       ??_C@_0ED@FEMJKPEL@ActiveEdges?3?3ComputeConvexEdges@ 0000000180046be0     EdgeList.obj
 0002:00000c30       ??_C@_0EB@BFDPMFCD@ActiveEdges?3?3ComputeConvexEdges@ 0000000180046c30     EdgeList.obj
 0002:00000c74       __real@bf7fbe77            0000000180046c74     EdgeList.obj
 0002:00000c80       __xmm@7fffffff7fffffff7fffffff7fffffff 0000000180046c80     EdgeList.obj
 0002:00000c90       ??_C@_0FJ@GNOAMGJH@E?3?2UnityProjects?2_Iterum?2PhysXS@ 0000000180046c90     MeshCleaner.obj
 0002:00000cec       __real@3f000000            0000000180046cec     MeshCleaner.obj
 0002:00000cf0       ??_7Quantizer@physx@@6B@   0000000180046cf0     Quantizer.obj
 0002:00000d18       ??_7QuantizerImpl@@6B@     0000000180046d18     Quantizer.obj
 0002:00000d40       ??_C@_0FH@HPAJADGC@E?3?2UnityProjects?2_Iterum?2PhysXS@ 0000000180046d40     Quantizer.obj
 0002:00000d98       __real@38d1b717            0000000180046d98     Quantizer.obj
 0002:00000d9c       __real@3c23d70a            0000000180046d9c     Quantizer.obj
 0002:00000da0       __real@3f0020c5            0000000180046da0     Quantizer.obj
 0002:00000da4       __real@3f8020c5            0000000180046da4     Quantizer.obj
 0002:00000da8       __real@7e7fffff            0000000180046da8     Quantizer.obj
 0002:00000dac       __real@7f7fffff            0000000180046dac     Quantizer.obj
 0002:00000db0       __real@fe7fffff            0000000180046db0     Quantizer.obj
 0002:00000dc0       __xmm@fe7fffff7e7fffff7e7fffff7e7fffff 0000000180046dc0     Quantizer.obj
 0002:00000df0       ??_C@_0GB@FGLADLMP@E?3?2UnityProjects?2_Iterum?2PhysXS@ 0000000180046df0     BVHStructureBuilder.obj
 0002:00000e60       __xmm@3ba3d70a3ba3d70a3ba3d70a3ba3d70a 0000000180046e60     BVHStructureBuilder.obj
 0002:00000e80       ?reductionFactors@SubSortQuick@physx@@2QBMB 0000000180046e80     RTreeCooking.obj
 0002:00000e90       ?stopAtTrisPerLeaf1@SubSortQuick@physx@@2QBIB 0000000180046e90     RTreeCooking.obj
 0002:00000f50       ??_C@_0FP@LAEHHLNC@E?3?2UnityProjects?2_Iterum?2PhysXS@ 0000000180046f50     RTreeCooking.obj
 0002:00000fb0       ??_C@_0FE@PLFLAOAG@E?3?2UnityProjects?2_Iterum?2PhysXS@ 0000000180046fb0     RTreeCooking.obj
 0002:00001010       ??_C@_0FN@CJNFPDDD@E?3?2UnityProjects?2_Iterum?2PhysXS@ 0000000180047010     RTreeCooking.obj
 0002:00001070       __real@37800080            0000000180047070     RTreeCooking.obj
 0002:00001074       __real@41100000            0000000180047074     RTreeCooking.obj
 0002:00001078       __real@41700000            0000000180047078     RTreeCooking.obj
 0002:0000107c       __real@42200000            000000018004707c     RTreeCooking.obj
 0002:00001080       __real@ff7fffff            0000000180047080     RTreeCooking.obj
 0002:00001090       __xmm@00000004000000030000000200000001 0000000180047090     RTreeCooking.obj
 0002:000010a0       __xmm@3a03126f3a03126f3a03126f3a03126f 00000001800470a0     RTreeCooking.obj
 0002:000010b0       __xmm@7f7fffff7f7fffff7f7fffff7f7fffff 00000001800470b0     RTreeCooking.obj
 0002:000010c0       __xmm@ff7fffffff7fffffff7fffffff7fffff 00000001800470c0     RTreeCooking.obj
 0002:000010f0       __real@34800000            00000001800470f0     MeshBuilder.obj
 0002:00001120       ??_7MeshDataBase@Gu@physx@@6B@ 0000000180047120     TriangleMeshBuilder.obj
 0002:00001130       ??_C@_0FI@CIPOCONF@E?3?2UnityProjects?2_Iterum?2PhysXS@ 0000000180047130     TriangleMeshBuilder.obj
 0002:00001188       ??_7TriangleMeshData@Gu@physx@@6B@ 0000000180047188     TriangleMeshBuilder.obj
 0002:00001190       ??_7RTreeTriangleData@Gu@physx@@6B@ 0000000180047190     TriangleMeshBuilder.obj
 0002:00001198       ??_7BV4TriangleData@Gu@physx@@6B@ 0000000180047198     TriangleMeshBuilder.obj
 0002:000011a0       ??_7RemapCallback@RTreeCooker@physx@@6B@ 00000001800471a0     TriangleMeshBuilder.obj
 0002:000011b0       ??_7TriangleMeshBuilder@physx@@6B@ 00000001800471b0     TriangleMeshBuilder.obj
 0002:000011d8       ??_7RTreeTriangleMeshBuilder@physx@@6B@ 00000001800471d8     TriangleMeshBuilder.obj
 0002:00001200       ??_7BV4TriangleMeshBuilder@physx@@6B@ 0000000180047200     TriangleMeshBuilder.obj
 0002:00001230       ??_C@_0GH@BPOEDALO@E?3?2UnityProjects?2_Iterum?2PhysXS@ 0000000180047230     TriangleMeshBuilder.obj
 0002:000012a0       ??_C@_0GG@BFFIBMO@E?3?2UnityProjects?2_Iterum?2PhysXS@ 00000001800472a0     TriangleMeshBuilder.obj
 0002:00001308       ??_C@_0DJ@IGODLHLP@TriangleMesh?3?5Enable?5mesh?5weldi@ 0000000180047308     TriangleMeshBuilder.obj
 0002:00001350       ??_C@_0FJ@HHJLKGDF@TriangleMesh?3?5triangles?5are?5too@ 0000000180047350     TriangleMeshBuilder.obj
 0002:000013b0       ??_C@_0CN@KGPHHHLK@TriangleMesh?3?5mesh?5is?5too?5big?5f@ 00000001800473b0     TriangleMeshBuilder.obj
 0002:000013e0       ??_C@_0DD@CMJGDCNN@TriangleMesh?3?3loadFromDesc?3?5des@ 00000001800473e0     TriangleMeshBuilder.obj
 0002:00001420       ??_C@_0ED@ILJJNHIP@TriangleMesh?3?3loadFromDesc?3?5mPa@ 0000000180047420     TriangleMeshBuilder.obj
 0002:00001468       ??_C@_0BJ@BKHDBBHO@cleaning?5the?5mesh?5failed@ 0000000180047468     TriangleMeshBuilder.obj
 0002:00001488       ??_C@_0BK@JIDHMMCE@BV4?5tree?5failed?5to?5build?4@ 0000000180047488     TriangleMeshBuilder.obj
 0002:000014a8       ??_C@_0BL@DHNECNBE@BV32?5tree?5failed?5to?5build?4@ 00000001800474a8     TriangleMeshBuilder.obj
 0002:000014c8       ??_7RTreeCookerRemap@physx@@6B@ 00000001800474c8     TriangleMeshBuilder.obj
 0002:000014d8       __real@3951b717            00000001800474d8     TriangleMeshBuilder.obj
 0002:000014dc       __real@3dcccccd            00000001800474dc     TriangleMeshBuilder.obj
 0002:000014e0       __real@48742400            00000001800474e0     TriangleMeshBuilder.obj
 0002:000014f0       __xmm@00000003000000020000000100000000 00000001800474f0     TriangleMeshBuilder.obj
 0002:00001520       ??_C@_0GJ@JPMPOIAK@E?3?2UnityProjects?2_Iterum?2PhysXS@ 0000000180047520     BigConvexDataBuilder.obj
 0002:0000158c       __real@40000000            000000018004758c     BigConvexDataBuilder.obj
 0002:000015b0       ??_C@_0GG@JDOLGDKL@E?3?2UnityProjects?2_Iterum?2PhysXS@ 00000001800475b0     ConvexHullBuilder.obj
 0002:00001620       ??_C@_0EB@DCEIFDGC@ConvexHullBuilder?3?3init?3?5convex@ 0000000180047620     ConvexHullBuilder.obj
 0002:00001670       ??_C@_0FM@KICBLCBH@Gu?3?3ConvexMesh?3?3checkHullPolygo@ 0000000180047670     ConvexHullBuilder.obj
 0002:000016d0       ??_C@_0GO@HBFIOGLL@Gu?3?3ConvexMesh?3?3checkHullPolygo@ 00000001800476d0     ConvexHullBuilder.obj
 0002:00001740       ??_C@_0HF@OLJFBIEL@ConvexHullBuilder?3?5convex?5hull?5@ 0000000180047740     ConvexHullBuilder.obj
 0002:000017c0       ??_C@_0OG@JNHFOIL@ConvexHullBuilder?3?5convex?5hull?5@ 00000001800477c0     ConvexHullBuilder.obj
 0002:000018b0       ??_C@_0EJ@NIOIBAKH@Cooking?3?3cookConvexMesh?3?5non?9ma@ 00000001800478b0     ConvexHullBuilder.obj
 0002:000018fc       __real@3ca3d70a            00000001800478fc     ConvexHullBuilder.obj
 0002:00001900       __real@3eaaaaab            0000000180047900     ConvexHullBuilder.obj
 0002:00001908       ??_7ConvexHullLib@physx@@6B@ 0000000180047908     ConvexHullLib.obj
 0002:00001930       ??_C@_0GC@MMGLMDLD@E?3?2UnityProjects?2_Iterum?2PhysXS@ 0000000180047930     ConvexHullLib.obj
 0002:000019a0       ??_C@_0JE@PABBNGEL@ConvexHullLib?3?3cleanupVertices?3@ 00000001800479a0     ConvexHullLib.obj
 0002:00001a34       __real@358637bd            0000000180047a34     ConvexHullLib.obj
 0002:00001a38       __real@3d4ccccd            0000000180047a38     ConvexHullLib.obj
 0002:00001a60       ??_C@_0GE@HINIEPPO@E?3?2UnityProjects?2_Iterum?2PhysXS@ 0000000180047a60     ConvexHullUtils.obj
 0002:00001ac4       __real@3e20d97c            0000000180047ac4     ConvexHullUtils.obj
 0002:00001ad0       __xmm@00800000008000000080000000800000 0000000180047ad0     ConvexHullUtils.obj
 0002:00001ae0       __xmm@3f0000003f0000003f0000003f000000 0000000180047ae0     ConvexHullUtils.obj
 0002:00001af0       __xmm@bf000000bf000000bf000000bf000000 0000000180047af0     ConvexHullUtils.obj
 0002:00001b20       ??_C@_0DF@LLFJIJGM@Gu?3?3ConvexMesh?3?3loadFromDesc?3?5d@ 0000000180047b20     ConvexMeshBuilder.obj
 0002:00001b60       ??_C@_0GG@FNEPMDPO@E?3?2UnityProjects?2_Iterum?2PhysXS@ 0000000180047b60     ConvexMeshBuilder.obj
 0002:00001bd0       ??_C@_0HK@JOGKIEAA@Gu?3?3ConvexMesh?3?5Mesh?5has?5a?5nega@ 0000000180047bd0     ConvexMeshBuilder.obj
 0002:00001c50       ??_C@_0DH@NJPPHFFD@Gu?3?3ConvexMesh?3?5Error?5computing@ 0000000180047c50     ConvexMeshBuilder.obj
 0002:00001c88       ??_C@_0DJ@LJDLGLDJ@Gu?3?3ConvexMesh?3?3loadConvexHull?3@ 0000000180047c88     ConvexMeshBuilder.obj
 0002:00001cd0       ??_C@_0HJ@KJANPPOE@ConvexMeshBuilder?3?3computeHullP@ 0000000180047cd0     ConvexMeshBuilder.obj
 0002:00001d4c       ??_C@_06KDGGGLIJ@PxVec3@   0000000180047d4c     ConvexMeshBuilder.obj
 0002:00001d54       ??_C@_05LMJPANIN@PxU32@    0000000180047d54     ConvexMeshBuilder.obj
 0002:00001d60       ??_C@_0O@JMAGMMGG@PxHullPolygon@ 0000000180047d60     ConvexMeshBuilder.obj
 0002:00001d70       __real@33d6bf95            0000000180047d70     ConvexMeshBuilder.obj
 0002:00001d74       __real@3f13cd3a            0000000180047d74     ConvexMeshBuilder.obj
 0002:00001d78       __real@b3d6bf95            0000000180047d78     ConvexMeshBuilder.obj
 0002:00001d7c       __real@bf800000            0000000180047d7c     ConvexMeshBuilder.obj
 0002:00001d80       __xmm@80000000000000008000000000000000 0000000180047d80     ConvexMeshBuilder.obj
 0002:00001d90       ??_C@_0DP@PJBJBEGF@Meshmerizer?3?3extractHullPolygon@ 0000000180047d90     ConvexPolygonsBuilder.obj
 0002:00001dd0       ??_C@_0GK@GEOEJOLJ@E?3?2UnityProjects?2_Iterum?2PhysXS@ 0000000180047dd0     ConvexPolygonsBuilder.obj
 0002:00001e40       ??_C@_0DL@IAFKOCCK@ConvexHullBuilder?3?5convex?5hull?5@ 0000000180047e40     ConvexPolygonsBuilder.obj
 0002:00001e80       ??_C@_0GF@OJLJHAMH@ConvexHullBuilder?3?3CreateTriang@ 0000000180047e80     ConvexPolygonsBuilder.obj
 0002:00001ee8       __real@3ba3d70a            0000000180047ee8     ConvexPolygonsBuilder.obj
 0002:00001ef0       ??_7QuickHullConvexHullLib@physx@@6B@ 0000000180047ef0     QuickHullConvexHullLib.obj
 0002:00001f10       ??_C@_0GL@FJFIMEKC@E?3?2UnityProjects?2_Iterum?2PhysXS@ 0000000180047f10     QuickHullConvexHullLib.obj
 0002:00001f80       ??_C@_0GA@EPPAEJPM@QuickHullConvexHullLib?3?3findSim@ 0000000180047f80     QuickHullConvexHullLib.obj
 0002:00001fe0       ??_C@_0FB@NEBIJMML@QuickHullConvexHullLib?3?3findSim@ 0000000180047fe0     QuickHullConvexHullLib.obj
 0002:00002040       ??_C@_0FB@CLLCBEMM@QuickHullConvexHullLib?3?3findSim@ 0000000180048040     QuickHullConvexHullLib.obj
 0002:00002094       __real@34c00000            0000000180048094     QuickHullConvexHullLib.obj
 0002:00002098       __real@3e800000            0000000180048098     QuickHullConvexHullLib.obj
 0002:000020c0       __real@00000000            00000001800480c0     VolumeIntegration.obj
 0002:000020c8       __real@3fe0000000000000    00000001800480c8     VolumeIntegration.obj
 0002:000020d0       __real@3ff0000000000000    00000001800480d0     VolumeIntegration.obj
 0002:000020e0       __xmm@3c0888893c0888893c0888893c088889 00000001800480e0     VolumeIntegration.obj
 0002:000020f0       __xmm@3c8888893c8888893c8888893c888889 00000001800480f0     VolumeIntegration.obj
 0002:00002100       __xmm@3d2aaaab3d2aaaab3d2aaaab3d2aaaab 0000000180048100     VolumeIntegration.obj
 0002:00002110       __xmm@3e2aaaab3e2aaaab3e2aaaab3e2aaaab 0000000180048110     VolumeIntegration.obj
 0002:00002120       __xmm@3f811111111111113f81111111111111 0000000180048120     VolumeIntegration.obj
 0002:00002130       __xmm@3f811111111111113f91111111111111 0000000180048130     VolumeIntegration.obj
 0002:00002140       __xmm@3f911111111111113f91111111111111 0000000180048140     VolumeIntegration.obj
 0002:00002150       __xmm@3fa55555555555553fa5555555555555 0000000180048150     VolumeIntegration.obj
 0002:00002160       __xmm@3fa55555555555553fc5555555555555 0000000180048160     VolumeIntegration.obj
 0002:00002170       ??_C@_0BA@EGLNOO@PhysXFoundation@ 0000000180048170     WindowsCookingDelayLoadHook.obj
 0002:00002180       ??_C@_0M@ILKNCJKN@PhysXCommon@ 0000000180048180     WindowsCookingDelayLoadHook.obj
 0002:00002190       __sz_PhysXCommon_64_dll    0000000180048190     PhysXCommon_64:PhysXCommon_64.dll
 0002:000021b0       __sz_PhysXFoundation_64_dll 00000001800481b0     PhysXFoundation_64:PhysXFoundation_64.dll
 0002:000021c8       ??_C@_1BK@DBDEIDLH@?$AAK?$AAE?$AAR?$AAN?$AAE?$AAL?$AA3?$AA2?$AA?4?$AAD?$AAL?$AAL@ 00000001800481c8     Delayimp:delayhlp.obj
 0002:000021e8       ??_C@_0BI@OMNLIJDB@AcquireSRWLockExclusive@ 00000001800481e8     Delayimp:delayhlp.obj
 0002:00002200       ??_C@_0BI@HMIEPCNJ@ReleaseSRWLockExclusive@ 0000000180048200     Delayimp:delayhlp.obj
 0002:00002218       __pfnDliFailureHook2       0000000180048218     Delayimp:delayhk1.obj
 0002:00002228       ??_7type_info@@6B@         0000000180048228     LIBCMT:std_type_info_static.obj
 0002:00002290       _pDefaultRawDllMain        0000000180048290     LIBCMT:dll_dllmain.obj
 0002:00002290       _pRawDllMain               0000000180048290     LIBCMT:dll_dllmain.obj
 0002:000022a0       _load_config_used          00000001800482a0     LIBCMT:loadcfg.obj
 0002:000023e0       __xmm@ffffffffffffffffffffffffffffffff 00000001800483e0     LIBCMT:utility.obj
 0002:000023f0       _pDestructExceptionObject  00000001800483f0     libvcruntime:ehhelpers.obj
 0002:00002b10       ??_C@_08EHJDFFNH@__based?$CI@ 0000000180048b10     libvcruntime:undname.obj
 0002:00002b20       ??_C@_07KOLFKCDI@__cdecl@  0000000180048b20     libvcruntime:undname.obj
 0002:00002b28       ??_C@_08GHMPAG@__pascal@   0000000180048b28     libvcruntime:undname.obj
 0002:00002b38       ??_C@_09IFJBGAPI@__stdcall@ 0000000180048b38     libvcruntime:undname.obj
 0002:00002b48       ??_C@_0L@NPHFGOKO@__thiscall@ 0000000180048b48     libvcruntime:undname.obj
 0002:00002b58       ??_C@_0L@JMKHOMEK@__fastcall@ 0000000180048b58     libvcruntime:undname.obj
 0002:00002b68       ??_C@_0N@BCKKPABJ@__vectorcall@ 0000000180048b68     libvcruntime:undname.obj
 0002:00002b78       ??_C@_09HIJEGCPM@__clrcall@ 0000000180048b78     libvcruntime:undname.obj
 0002:00002b84       ??_C@_06GHPCKEAG@__eabi@   0000000180048b84     libvcruntime:undname.obj
 0002:00002b90       ??_C@_09IOPIDJLG@__swift_1@ 0000000180048b90     libvcruntime:undname.obj
 0002:00002ba0       ??_C@_09KFNFGKHF@__swift_2@ 0000000180048ba0     libvcruntime:undname.obj
 0002:00002bb0       ??_C@_09LMMOFLDE@__swift_3@ 0000000180048bb0     libvcruntime:undname.obj
 0002:00002bc0       ??_C@_07JOMMBBKO@__ptr64@  0000000180048bc0     libvcruntime:undname.obj
 0002:00002bc8       ??_C@_0L@PILCLIHE@__restrict@ 0000000180048bc8     libvcruntime:undname.obj
 0002:00002bd8       ??_C@_0M@GFIIJFMG@__unaligned@ 0000000180048bd8     libvcruntime:undname.obj
 0002:00002be8       ??_C@_09DHDLOLLB@restrict?$CI@ 0000000180048be8     libvcruntime:undname.obj
 0002:00002bf2       ??_C@_00CNPNBAHC@@         0000000180048bf2     libvcruntime:undname.obj
 0002:00002bf4       ??_C@_04NIHEBCM@?5new@     0000000180048bf4     libvcruntime:undname.obj
 0002:00002c00       ??_C@_07FPCDHGMM@?5delete@ 0000000180048c00     libvcruntime:undname.obj
 0002:00002c08       ??_C@_01NEMOKFLO@?$DN@     0000000180048c08     libvcruntime:undname.obj
 0002:00002c0c       ??_C@_02GPIOPFAK@?$DO?$DO@ 0000000180048c0c     libvcruntime:undname.obj
 0002:00002c10       ??_C@_02FODMEDOG@?$DM?$DM@ 0000000180048c10     libvcruntime:undname.obj
 0002:00002c14       ??_C@_01DCLJPIOD@?$CB@     0000000180048c14     libvcruntime:undname.obj
 0002:00002c18       ??_C@_02EGOFBIJA@?$DN?$DN@ 0000000180048c18     libvcruntime:undname.obj
 0002:00002c1c       ??_C@_02FDNJECIE@?$CB?$DN@ 0000000180048c1c     libvcruntime:undname.obj
 0002:00002c20       ??_C@_02GPECMEKF@?$FL?$FN@ 0000000180048c20     libvcruntime:undname.obj
 0002:00002c28       ??_C@_08LHJFAFGD@operator@ 0000000180048c28     libvcruntime:undname.obj
 0002:00002c34       ??_C@_02HBOOOICD@?9?$DO@   0000000180048c34     libvcruntime:undname.obj
 0002:00002c38       ??_C@_01NBENCBCI@?$CK@     0000000180048c38     libvcruntime:undname.obj
 0002:00002c3c       ??_C@_02ECNGHCIF@?$CL?$CL@ 0000000180048c3c     libvcruntime:undname.obj
 0002:00002c40       ??_C@_02BAABKJLB@?9?9@     0000000180048c40     libvcruntime:undname.obj
 0002:00002c44       ??_C@_01JOAMLHOP@?9@       0000000180048c44     libvcruntime:undname.obj
 0002:00002c48       ??_C@_01MIFGBAGJ@?$CL@     0000000180048c48     libvcruntime:undname.obj
 0002:00002c4c       ??_C@_01HNPIGOCE@?$CG@     0000000180048c4c     libvcruntime:undname.obj
 0002:00002c50       ??_C@_03MNHNFDLC@?9?$DO?$CK@ 0000000180048c50     libvcruntime:undname.obj
 0002:00002c54       ??_C@_01KMDKNFGN@?1@       0000000180048c54     libvcruntime:undname.obj
 0002:00002c58       ??_C@_01FGNFDNOH@?$CF@     0000000180048c58     libvcruntime:undname.obj
 0002:00002c5c       ??_C@_01MNNFJEPP@?$DM@     0000000180048c5c     libvcruntime:undname.obj
 0002:00002c60       ??_C@_02EHCHHCKH@?$DM?$DN@ 0000000180048c60     libvcruntime:undname.obj
 0002:00002c64       ??_C@_01PPODPGHN@?$DO@     0000000180048c64     libvcruntime:undname.obj
 0002:00002c68       ??_C@_02EEKDKGMJ@?$DO?$DN@ 0000000180048c68     libvcruntime:undname.obj
 0002:00002c6c       ??_C@_01IHBHIGKO@?0@       0000000180048c6c     libvcruntime:undname.obj
 0002:00002c70       ??_C@_02HCKGKOFO@?$CI?$CJ@ 0000000180048c70     libvcruntime:undname.obj
 0002:00002c74       ??_C@_01PJKLJHI@?$HO@      0000000180048c74     libvcruntime:undname.obj
 0002:00002c78       ??_C@_01JKBOJNNK@?$FO@     0000000180048c78     libvcruntime:undname.obj
 0002:00002c7c       ??_C@_01DNKMNLPK@?$HM@     0000000180048c7c     libvcruntime:undname.obj
 0002:00002c80       ??_C@_02PPKAJPJL@?$CG?$CG@ 0000000180048c80     libvcruntime:undname.obj
 0002:00002c84       ??_C@_02NONPIBCD@?$HM?$HM@ 0000000180048c84     libvcruntime:undname.obj
 0002:00002c88       ??_C@_02FPIMKNGF@?$CK?$DN@ 0000000180048c88     libvcruntime:undname.obj
 0002:00002c8c       ??_C@_02FOEOMHFC@?$CL?$DN@ 0000000180048c8c     libvcruntime:undname.obj
 0002:00002c90       ??_C@_02FKMDLLOA@?9?$DN@   0000000180048c90     libvcruntime:undname.obj
 0002:00002c94       ??_C@_02FJEHGPIO@?1?$DN@   0000000180048c94     libvcruntime:undname.obj
 0002:00002c98       ??_C@_02FENAOKFI@?$CF?$DN@ 0000000180048c98     libvcruntime:undname.obj
 0002:00002c9c       ??_C@_03IKFCCPFF@?$DO?$DO?$DN@ 0000000180048c9c     libvcruntime:undname.obj
 0002:00002ca0       ??_C@_03CDNPDDLA@?$DM?$DM?$DN@ 0000000180048ca0     libvcruntime:undname.obj
 0002:00002ca4       ??_C@_02FGJGFEAB@?$CG?$DN@ 0000000180048ca4     libvcruntime:undname.obj
 0002:00002ca8       ??_C@_02DHLNPPGH@?$HM?$DN@ 0000000180048ca8     libvcruntime:undname.obj
 0002:00002cac       ??_C@_02MHEGNOJ@?$FO?$DN@  0000000180048cac     libvcruntime:undname.obj
 0002:00002cb0       ??_C@_09IFPLHPGF@?$GAvftable?8@ 0000000180048cb0     libvcruntime:undname.obj
 0002:00002cc0       ??_C@_09BLBHBJP@?$GAvbtable?8@ 0000000180048cc0     libvcruntime:undname.obj
 0002:00002cd0       ??_C@_07FEEIOKP@?$GAvcall?8@ 0000000180048cd0     libvcruntime:undname.obj
 0002:00002cd8       ??_C@_08LLFFHHDJ@?$GAtypeof?8@ 0000000180048cd8     libvcruntime:undname.obj
 0002:00002ce8       ??_C@_0BF@KDPPACIK@?$GAlocal?5static?5guard?8@ 0000000180048ce8     libvcruntime:undname.obj
 0002:00002d00       ??_C@_08OBABFOLI@?$GAstring?8@ 0000000180048d00     libvcruntime:undname.obj
 0002:00002d10       ??_C@_0BD@JDLKDPAB@?$GAvbase?5destructor?8@ 0000000180048d10     libvcruntime:undname.obj
 0002:00002d28       ??_C@_0BN@DEGPLNFK@?$GAvector?5deleting?5destructor?8@ 0000000180048d28     libvcruntime:undname.obj
 0002:00002d48       ??_C@_0BO@OBMKPJIG@?$GAdefault?5constructor?5closure?8@ 0000000180048d48     libvcruntime:undname.obj
 0002:00002d68       ??_C@_0BN@IMDCHIKM@?$GAscalar?5deleting?5destructor?8@ 0000000180048d68     libvcruntime:undname.obj
 0002:00002d88       ??_C@_0BO@PFGOCPJJ@?$GAvector?5constructor?5iterator?8@ 0000000180048d88     libvcruntime:undname.obj
 0002:00002da8       ??_C@_0BN@LFPFMEDL@?$GAvector?5destructor?5iterator?8@ 0000000180048da8     libvcruntime:undname.obj
 0002:00002dc8       ??_C@_0CE@IKBNEHA@?$GAvector?5vbase?5constructor?5itera@ 0000000180048dc8     libvcruntime:undname.obj
 0002:00002df0       ??_C@_0BL@NILFHHPC@?$GAvirtual?5displacement?5map?8@ 0000000180048df0     libvcruntime:undname.obj
 0002:00002e10       ??_C@_0CB@JONCMFFK@?$GAeh?5vector?5constructor?5iterator@ 0000000180048e10     libvcruntime:undname.obj
 0002:00002e38       ??_C@_0CA@GCEOPDGL@?$GAeh?5vector?5destructor?5iterator?8@ 0000000180048e38     libvcruntime:undname.obj
 0002:00002e58       ??_C@_0CH@OOJPLCPH@?$GAeh?5vector?5vbase?5constructor?5it@ 0000000180048e58     libvcruntime:undname.obj
 0002:00002e80       ??_C@_0BL@LLKPOHJI@?$GAcopy?5constructor?5closure?8@ 0000000180048e80     libvcruntime:undname.obj
 0002:00002ea0       ??_C@_0BA@KBCDOMBN@?$GAudt?5returning?8@ 0000000180048ea0     libvcruntime:undname.obj
 0002:00002eb0       ??_C@_03KLGMFNMG@?$GAEH@   0000000180048eb0     libvcruntime:undname.obj
 0002:00002eb4       ??_C@_05KHLCHHI@?$GARTTI@  0000000180048eb4     libvcruntime:undname.obj
 0002:00002ec0       ??_C@_0BA@KKLDJDLB@?$GAlocal?5vftable?8@ 0000000180048ec0     libvcruntime:undname.obj
 0002:00002ed0       ??_C@_0CE@IIHCMGGL@?$GAlocal?5vftable?5constructor?5clos@ 0000000180048ed0     libvcruntime:undname.obj
 0002:00002ef4       ??_C@_06FHBGPFGH@?5new?$FL?$FN@ 0000000180048ef4     libvcruntime:undname.obj
 0002:00002f00       ??_C@_09LBNFPBCA@?5delete?$FL?$FN@ 0000000180048f00     libvcruntime:undname.obj
 0002:00002f10       ??_C@_0P@HJKNJFNN@?$GAomni?5callsig?8@ 0000000180048f10     libvcruntime:undname.obj
 0002:00002f20       ??_C@_0BL@CNOONJFP@?$GAplacement?5delete?5closure?8@ 0000000180048f20     libvcruntime:undname.obj
 0002:00002f40       ??_C@_0BN@CKNJLHMB@?$GAplacement?5delete?$FL?$FN?5closure?8@ 0000000180048f40     libvcruntime:undname.obj
 0002:00002f60       ??_C@_0CG@CFDHKGGD@?$GAmanaged?5vector?5constructor?5ite@ 0000000180048f60     libvcruntime:undname.obj
 0002:00002f88       ??_C@_0CF@IMGKMJNO@?$GAmanaged?5vector?5destructor?5iter@ 0000000180048f88     libvcruntime:undname.obj
 0002:00002fb0       ??_C@_0CG@HLDDJMAG@?$GAeh?5vector?5copy?5constructor?5ite@ 0000000180048fb0     libvcruntime:undname.obj
 0002:00002fd8       ??_C@_0CM@FCBBDIGB@?$GAeh?5vector?5vbase?5copy?5construct@ 0000000180048fd8     libvcruntime:undname.obj
 0002:00003008       ??_C@_0BL@CLIPGLGB@?$GAdynamic?5initializer?5for?5?8@ 0000000180049008     libvcruntime:undname.obj
 0002:00003028       ??_C@_0CB@PDBIFEP@?$GAdynamic?5atexit?5destructor?5for?5@ 0000000180049028     libvcruntime:undname.obj
 0002:00003050       ??_C@_0CD@CGAJBKEJ@?$GAvector?5copy?5constructor?5iterat@ 0000000180049050     libvcruntime:undname.obj
 0002:00003078       ??_C@_0CJ@GJELGAMM@?$GAvector?5vbase?5copy?5constructor?5@ 0000000180049078     libvcruntime:undname.obj
 0002:000030a8       ??_C@_0CL@FGIJHLCE@?$GAmanaged?5vector?5copy?5constructo@ 00000001800490a8     libvcruntime:undname.obj
 0002:000030d8       ??_C@_0BM@PMGGMLDN@?$GAlocal?5static?5thread?5guard?8@ 00000001800490d8     libvcruntime:undname.obj
 0002:000030f8       ??_C@_0N@BDNMDMOL@operator?5?$CC?$CC?5@ 00000001800490f8     libvcruntime:undname.obj
 0002:00003108       ??_C@_0BC@GGEBGALA@operator?5co_await@ 0000000180049108     libvcruntime:undname.obj
 0002:00003120       ??_C@_0M@GAAIMMOH@operator?$DM?$DN?$DO@ 0000000180049120     libvcruntime:undname.obj
 0002:00003130       ??_C@_0BC@DAFEJGAK@?5Type?5Descriptor?8@ 0000000180049130     libvcruntime:undname.obj
 0002:00003148       ??_C@_0BM@LDKODKLH@?5Base?5Class?5Descriptor?5at?5?$CI@ 0000000180049148     libvcruntime:undname.obj
 0002:00003168       ??_C@_0BD@LGICGFMM@?5Base?5Class?5Array?8@ 0000000180049168     libvcruntime:undname.obj
 0002:00003180       ??_C@_0BN@MECKDCOJ@?5Class?5Hierarchy?5Descriptor?8@ 0000000180049180     libvcruntime:undname.obj
 0002:000031a0       ??_C@_0BK@CFCOFLF@?5Complete?5Object?5Locator?8@ 00000001800491a0     libvcruntime:undname.obj
 0002:000031c0       ??_C@_0BG@JNJLAMPM@?$GAanonymous?5namespace?8@ 00000001800491c0     libvcruntime:undname.obj
 0002:000031d8       ??_C@_04HEJADOOB@CV?3?5@   00000001800491d8     libvcruntime:undname.obj
 0002:000031e0       ??_C@_02MOLJINC@?3?3@      00000001800491e0     libvcruntime:undname.obj
 0002:000031e8       ??_C@_0BE@JAEOCHPE@template?9parameter?9@ 00000001800491e8     libvcruntime:undname.obj
 0002:00003200       ??_C@_0BF@LNLGBBNL@?$GAtemplate?9parameter?9@ 0000000180049200     libvcruntime:undname.obj
 0002:00003218       ??_C@_0O@KHGCOMHP@generic?9type?9@ 0000000180049218     libvcruntime:undname.obj
 0002:00003228       ??_C@_0P@ODDENDLM@?$GAgeneric?9type?9@ 0000000180049228     libvcruntime:undname.obj
 0002:00003238       ??_C@_02OHHJMEON@?8?8@     0000000180049238     libvcruntime:undname.obj
 0002:00003240       ??_C@_0BN@IBLMMFAP@?$GAnon?9type?9template?9parameter@ 0000000180049240     libvcruntime:undname.obj
 0002:00003260       ??_C@_03DLDNIBIK@?$CFlf@   0000000180049260     libvcruntime:undname.obj
 0002:00003264       ??_C@_04OFALKAJ@?$DP?$DP_C@ 0000000180049264     libvcruntime:undname.obj
 0002:0000326c       ??_C@_03KHICJKCI@?4?4?4@   000000018004926c     libvcruntime:undname.obj
 0002:00003270       ??_C@_04HIBGFPH@NULL@      0000000180049270     libvcruntime:undname.obj
 0002:00003278       ??_C@_02DPKJAMEF@?$CFd@    0000000180049278     libvcruntime:undname.obj
 0002:00003280       ??_C@_0BK@IHCCFNEL@?$GAtemplate?9type?9parameter?9@ 0000000180049280     libvcruntime:undname.obj
 0002:000032a0       ??_C@_0BK@OFCNNNKO@?$GAgeneric?9class?9parameter?9@ 00000001800492a0     libvcruntime:undname.obj
 0002:000032c0       ??_C@_0BL@NGJBLFIL@?$GAgeneric?9method?9parameter?9@ 00000001800492c0     libvcruntime:undname.obj
 0002:000032e0       ??_C@_07OHNGEDJK@nullptr@  00000001800492e0     libvcruntime:undname.obj
 0002:000032e8       ??_C@_06COJIGPIB@lambda@   00000001800492e8     libvcruntime:undname.obj
 0002:000032f0       ??_C@_04GKJNKENE@void@     00000001800492f0     libvcruntime:undname.obj
 0002:000032f8       ??_C@_0BE@EODMJLIF@?$GAtemplate?9parameter@ 00000001800492f8     libvcruntime:undname.obj
 0002:0000330c       ??_C@_03OPGICMGF@?$HN?8?5@ 000000018004930c     libvcruntime:undname.obj
 0002:00003310       ??_C@_02IGFCGPIL@?$HN?8@   0000000180049310     libvcruntime:undname.obj
 0002:00003318       ??_C@_0N@CBHHHENL@?$GAvtordispex?$HL@ 0000000180049318     libvcruntime:undname.obj
 0002:00003328       ??_C@_0L@GHPFDFH@?$GAvtordisp?$HL@ 0000000180049328     libvcruntime:undname.obj
 0002:00003338       ??_C@_0L@HNGCOGAE@?$GAadjustor?$HL@ 0000000180049338     libvcruntime:undname.obj
 0002:00003348       ??_C@_0CB@KJDOOODE@?$GAlocal?5static?5destructor?5helper@ 0000000180049348     libvcruntime:undname.obj
 0002:00003370       ??_C@_0DB@ILEFOCIJ@?$GAtemplate?5static?5data?5member?5co@ 0000000180049370     libvcruntime:undname.obj
 0002:000033a8       ??_C@_0DA@HGFJFBBE@?$GAtemplate?5static?5data?5member?5de@ 00000001800493a8     libvcruntime:undname.obj
 0002:000033d8       ??_C@_07PGOEDBHP@static?5@ 00000001800493d8     libvcruntime:undname.obj
 0002:000033e0       ??_C@_08NIEOINHE@virtual?5@ 00000001800493e0     libvcruntime:undname.obj
 0002:000033f0       ??_C@_09LAPHOOG@private?3?5@ 00000001800493f0     libvcruntime:undname.obj
 0002:00003400       ??_C@_0M@GAIFPFIP@protected?3?5@ 0000000180049400     libvcruntime:undname.obj
 0002:00003410       ??_C@_08GPDDCMKI@public?3?5@ 0000000180049410     libvcruntime:undname.obj
 0002:00003420       ??_C@_08KJLFOPNE@?$FLthunk?$FN?3@ 0000000180049420     libvcruntime:undname.obj
 0002:00003430       ??_C@_0M@DHNBOJMP@extern?5?$CCC?$CC?5@ 0000000180049430     libvcruntime:undname.obj
 0002:0000343c       ??_C@_02KCKGHPCA@?$CJ?5@   000000018004943c     libvcruntime:undname.obj
 0002:00003440       ??_C@_05CIHEBHNO@char?5@   0000000180049440     libvcruntime:undname.obj
 0002:00003448       ??_C@_06EHJMALKF@short?5@  0000000180049448     libvcruntime:undname.obj
 0002:00003450       ??_C@_04LAHKHJMA@int?5@    0000000180049450     libvcruntime:undname.obj
 0002:00003458       ??_C@_05CJIMAING@long?5@   0000000180049458     libvcruntime:undname.obj
 0002:00003460       ??_C@_09EBBEKKIH@unsigned?5@ 0000000180049460     libvcruntime:undname.obj
 0002:0000346c       ??_C@_05BEFAKPML@void?5@   000000018004946c     libvcruntime:undname.obj
 0002:00003478       ??_C@_09GAIEOBLP@volatile?5@ 0000000180049478     libvcruntime:undname.obj
 0002:00003488       ??_C@_08PABEKFH@volatile@  0000000180049488     libvcruntime:undname.obj
 0002:00003498       ??_C@_0BA@LKIJLKPP@std?3?3nullptr_t?5@ 0000000180049498     libvcruntime:undname.obj
 0002:000034a8       ??_C@_0P@GCOCNKDM@std?3?3nullptr_t@ 00000001800494a8     libvcruntime:undname.obj
 0002:000034b8       ??_C@_0L@EGPHHEKN@?$DMellipsis?$DO@ 00000001800494b8     libvcruntime:undname.obj
 0002:000034c4       ??_C@_04EENFHACM@?0?4?4?4@ 00000001800494c4     libvcruntime:undname.obj
 0002:000034d0       ??_C@_0M@ELJOJFFH@?0?$DMellipsis?$DO@ 00000001800494d0     libvcruntime:undname.obj
 0002:000034e0       ??_C@_09DNHFEOJI@?5noexcept@ 00000001800494e0     libvcruntime:undname.obj
 0002:000034ec       ??_C@_03PBJBJNON@cpu@      00000001800494ec     libvcruntime:undname.obj
 0002:000034f0       ??_C@_03DCBBJBAA@amp@      00000001800494f0     libvcruntime:undname.obj
 0002:000034f4       ??_C@_02KEGNLNML@?0?5@     00000001800494f4     libvcruntime:undname.obj
 0002:000034f8       ??_C@_04ENMBGAPA@char@     00000001800494f8     libvcruntime:undname.obj
 0002:00003500       ??_C@_05BFKKPKCG@short@    0000000180049500     libvcruntime:undname.obj
 0002:00003508       ??_C@_03JBIPMCLC@int@      0000000180049508     libvcruntime:undname.obj
 0002:0000350c       ??_C@_04GOKPGOLB@long@     000000018004950c     libvcruntime:undname.obj
 0002:00003514       ??_C@_05KNFBNCOH@float@    0000000180049514     libvcruntime:undname.obj
 0002:0000351c       ??_C@_06BNJCAIGJ@double@   000000018004951c     libvcruntime:undname.obj
 0002:00003524       ??_C@_04DDKJGDCM@bool@     0000000180049524     libvcruntime:undname.obj
 0002:0000352c       ??_C@_06EBGKOKIG@__int8@   000000018004952c     libvcruntime:undname.obj
 0002:00003538       ??_C@_07ICFHOGAF@__int16@  0000000180049538     libvcruntime:undname.obj
 0002:00003540       ??_C@_07OFLPPHGP@__int32@  0000000180049540     libvcruntime:undname.obj
 0002:00003548       ??_C@_07LFCOJCAC@__int64@  0000000180049548     libvcruntime:undname.obj
 0002:00003550       ??_C@_08GAHOLHEO@__int128@ 0000000180049550     libvcruntime:undname.obj
 0002:00003560       ??_C@_09EEKGDCPH@?$DMunknown?$DO@ 0000000180049560     libvcruntime:undname.obj
 0002:00003570       ??_C@_07CFHGOPCN@char8_t@  0000000180049570     libvcruntime:undname.obj
 0002:00003578       ??_C@_08HBIPOFJB@char16_t@ 0000000180049578     libvcruntime:undname.obj
 0002:00003588       ??_C@_08IECNCBKG@char32_t@ 0000000180049588     libvcruntime:undname.obj
 0002:00003598       ??_C@_07CLGGIAMF@wchar_t@  0000000180049598     libvcruntime:undname.obj
 0002:000035a0       ??_C@_04HAPDLBFF@auto@     00000001800495a0     libvcruntime:undname.obj
 0002:000035a8       ??_C@_0P@LHCGKIGK@decltype?$CIauto?$CJ@ 00000001800495a8     libvcruntime:undname.obj
 0002:000035b8       ??_C@_05PCNBGHCF@this?5@   00000001800495b8     libvcruntime:undname.obj
 0002:000035c0       ??_C@_06GCICPBLB@__w64?5@  00000001800495c0     libvcruntime:undname.obj
 0002:000035c8       ??_C@_07NFANNNEC@UNKNOWN@  00000001800495c8     libvcruntime:undname.obj
 0002:000035d0       ??_C@_07EDHNAJHC@signed?5@ 00000001800495d0     libvcruntime:undname.obj
 0002:000035d8       ??_C@_05BNCCCJPP@const@    00000001800495d8     libvcruntime:undname.obj
 0002:000035e0       ??_C@_09EFNPDFFP@?5volatile@ 00000001800495e0     libvcruntime:undname.obj
 0002:000035f0       ??_C@_0P@GCIFDJCJ@?$GAunknown?5ecsu?8@ 00000001800495f0     libvcruntime:undname.obj
 0002:00003600       ??_C@_06MOJHIBMG@union?5@  0000000180049600     libvcruntime:undname.obj
 0002:00003608       ??_C@_07DIBCDNGL@struct?5@ 0000000180049608     libvcruntime:undname.obj
 0002:00003610       ??_C@_06LJBABKPM@class?5@  0000000180049610     libvcruntime:undname.obj
 0002:00003618       ??_C@_08KOFANOFK@coclass?5@ 0000000180049618     libvcruntime:undname.obj
 0002:00003628       ??_C@_0N@DLIEFKNA@cointerface?5@ 0000000180049628     libvcruntime:undname.obj
 0002:00003638       ??_C@_05LJGMCFOG@enum?5@   0000000180049638     libvcruntime:undname.obj
 0002:00003640       ??_C@_06LIJLOJAG@const?5@  0000000180049640     libvcruntime:undname.obj
 0002:00003648       ??_C@_02KJPKDIBN@?$CG?5@   0000000180049648     libvcruntime:undname.obj
 0002:0000364c       ??_C@_03PCKGMOPB@?$CG?$CG?5@ 000000018004964c     libvcruntime:undname.obj
 0002:00003650       ??_C@_0M@EALIELKG@cli?3?3array?$DM@ 0000000180049650     libvcruntime:undname.obj
 0002:00003660       ??_C@_0O@GKABPPIF@cli?3?3pin_ptr?$DM@ 0000000180049660     libvcruntime:undname.obj
 0002:00003670       ??_C@_02GOGNNPBN@?$CJ?$FL@ 0000000180049670     libvcruntime:undname.obj
 0002:00003674       ??_C@_06EEGAIFAK@?$HLflat?$HN@ 0000000180049674     libvcruntime:undname.obj
 0002:0000367c       ??_C@_05JIBOFOHK@?$HLfor?5@ 000000018004967c     libvcruntime:undname.obj
 0002:00003684       ??_C@_02MDINNEEG@s?5@      0000000180049684     libvcruntime:undname.obj
 0002:00003690       ??_7charNode@@6B@          0000000180049690     libvcruntime:undname.obj
 0002:000036b8       ??_7pcharNode@@6B@         00000001800496b8     libvcruntime:undname.obj
 0002:000036e0       ??_7pDNameNode@@6B@        00000001800496e0     libvcruntime:undname.obj
 0002:00003708       ??_7DNameStatusNode@@6B@   0000000180049708     libvcruntime:undname.obj
 0002:00003730       ??_7pairNode@@6B@          0000000180049730     libvcruntime:undname.obj
 0002:00003850       ??_C@_04OKOHEJBO@?5?$DP?$DP?5@ 0000000180049850     libvcruntime:undname.obj
 0002:00003860       ?nodes@?1??make@DNameStatusNode@@SAPEBV2@W4DNameStatus@@@Z@4QBV2@B 0000000180049860     libvcruntime:undname.obj
 0002:000038a0       ?s_negLengthTab@FH4@@3QBCB 00000001800498a0     libvcruntime:risctrnsctrl.obj
 0002:000038b0       ?s_shiftTab@FH4@@3QBEB     00000001800498b0     libvcruntime:risctrnsctrl.obj
 0002:00003970       ??_C@_1DM@KHCHBNEB@?$AAa?$AAp?$AAi?$AA?9?$AAm?$AAs?$AA?9?$AAw?$AAi?$AAn?$AA?9?$AAc?$AAo?$AAr?$AAe@ 0000000180049970     libvcruntime:winapi_downlevel.obj
 0002:000039b0       ??_C@_1DK@LPPGFMPP@?$AAa?$AAp?$AAi?$AA?9?$AAm?$AAs?$AA?9?$AAw?$AAi?$AAn?$AA?9?$AAc?$AAo?$AAr?$AAe@ 00000001800499b0     libvcruntime:winapi_downlevel.obj
 0002:000039f0       ??_C@_1BC@GDMECMAK@?$AAk?$AAe?$AAr?$AAn?$AAe?$AAl?$AA3?$AA2@ 00000001800499f0     libvcruntime:winapi_downlevel.obj
 0002:00003a08       ??_C@_1BA@PFFKHIOG@?$AAa?$AAp?$AAi?$AA?9?$AAm?$AAs?$AA?9@ 0000000180049a08     libvcruntime:winapi_downlevel.obj
 0002:00003a20       ??_C@_08KNHFBNJ@FlsAlloc@  0000000180049a20     libvcruntime:winapi_downlevel.obj
 0002:00003a38       ??_C@_07PEJMOBNF@FlsFree@  0000000180049a38     libvcruntime:winapi_downlevel.obj
 0002:00003a48       ??_C@_0M@GDNOONDI@FlsGetValue@ 0000000180049a48     libvcruntime:winapi_downlevel.obj
 0002:00003a60       ??_C@_0M@JCPCPOEF@FlsSetValue@ 0000000180049a60     libvcruntime:winapi_downlevel.obj
 0002:00003a78       ??_C@_0BM@HCFOFFN@InitializeCriticalSectionEx@ 0000000180049a78     libvcruntime:winapi_downlevel.obj
 0002:00003aa0       ??_7exception@std@@6B@     0000000180049aa0     libvcruntime:frame.obj
 0002:00003ab0       ??_C@_0BC@EOODALEL@Unknown?5exception@ 0000000180049ab0     libvcruntime:frame.obj
 0002:00003ad0       ??_7bad_exception@std@@6B@ 0000000180049ad0     libvcruntime:frame.obj
 0002:00003ae0       ??_C@_0O@DPKOEFFH@bad?5exception@ 0000000180049ae0     libvcruntime:frame.obj
 0002:00004278       __real@3f1a36e2eb1c432d    000000018004a278     libucrt:atan2f.obj
 0002:00004280       __real@3f490fdb            000000018004a280     libucrt:atan2f.obj
 0002:00004288       __real@3fb0000000000000    000000018004a288     libucrt:atan2f.obj
 0002:00004290       __real@3fc2492482bd6be1    000000018004a290     libucrt:atan2f.obj
 0002:00004298       __real@3fc90fdb            000000018004a298     libucrt:atan2f.obj
 0002:000042a0       __real@3fc99999999643a3    000000018004a2a0     libucrt:atan2f.obj
 0002:000042a8       __real@3fd5555555550877    000000018004a2a8     libucrt:atan2f.obj
 0002:000042b0       __real@3fd5555555555538    000000018004a2b0     libucrt:atan2f.obj
 0002:000042b8       __real@3ff921fb54442d18    000000018004a2b8     libucrt:atan2f.obj
 0002:000042c0       __real@400921fb54442d18    000000018004a2c0     libucrt:atan2f.obj
 0002:000042c8       __real@4016cbe4            000000018004a2c8     libucrt:atan2f.obj
 0002:000042cc       __real@40490fdb            000000018004a2cc     libucrt:atan2f.obj
 0002:000042d0       __real@4070000000000000    000000018004a2d0     libucrt:atan2f.obj
 0002:000042d8       __real@80000000            000000018004a2d8     libucrt:atan2f.obj
 0002:000042dc       __real@bf490fdb            000000018004a2dc     libucrt:atan2f.obj
 0002:000042e0       __real@bfc90fdb            000000018004a2e0     libucrt:atan2f.obj
 0002:000042e4       __real@c016cbe4            000000018004a2e4     libucrt:atan2f.obj
 0002:000042e8       __real@c0490fdb            000000018004a2e8     libucrt:atan2f.obj
 0002:00004540       __acrt_exception_action_table 000000018004a540     libucrt:exception_filter.obj
 0002:00004600       __acrt_signal_action_table_count 000000018004a600     libucrt:exception_filter.obj
 0002:00004608       __acrt_signal_action_first_fpe_index 000000018004a608     libucrt:exception_filter.obj
 0002:00004610       __acrt_signal_action_fpe_count 000000018004a610     libucrt:exception_filter.obj
 0002:00004618       ??_C@_1BI@BGOHAHKC@?$AAm?$AAs?$AAc?$AAo?$AAr?$AAe?$AAe?$AA?4?$AAd?$AAl?$AAl@ 000000018004a618     libucrt:exit.obj
 0002:00004630       ??_C@_0P@MIGLKIOC@CorExitProcess@ 000000018004a630     libucrt:exit.obj
 0002:00004740       ?standard_lookup_table_spectre@__crt_stdio_output@@3V?$spectre_mitigated_lookup_table@Ustate_transition_pair@__crt_stdio_output@@$0IA@@1@B 000000018004a740     libucrt:output.obj
 0002:00004b40       ?format_validation_lookup_table_spectre@__crt_stdio_output@@3V?$spectre_mitigated_lookup_table@Ustate_transition_pair@__crt_stdio_output@@$0IA@@1@B 000000018004ab40     libucrt:output.obj
 0002:00004f40       ??_C@_1O@CEDCILHN@?$AA?$CI?$AAn?$AAu?$AAl?$AAl?$AA?$CJ@ 000000018004af40     libucrt:output.obj
 0002:00004f50       ??_C@_06OJHGLDPL@?$CInull?$CJ@ 000000018004af50     libucrt:output.obj
 0002:000050d0       ??_C@_04LAGPAAHP@sinf@     000000018004b0d0     libucrt:sincos_special.obj
 0002:000050d8       ??_C@_04OBBKPIAC@cosf@     000000018004b0d8     libucrt:sincos_special.obj
 0002:000050e0       __Lcosfarray               000000018004b0e0     libucrt:lsincosf_array.obj
 0002:00005110       __Lsinfarray               000000018004b110     libucrt:lsincosf_array.obj
 0002:00005130       __L_2_by_pi_bits           000000018004b130     libucrt:l2_by_pi_bits.obj
 0002:00005408       ??_C@_1M@HPNHIDJI@?$AAj?$AAa?$AA?9?$AAJ?$AAP@ 000000018004b408     libucrt:mbctype.obj
 0002:00005418       ??_C@_1M@BIBDDEMK@?$AAz?$AAh?$AA?9?$AAC?$AAN@ 000000018004b418     libucrt:mbctype.obj
 0002:00005428       ??_C@_1M@JLOOOEGK@?$AAk?$AAo?$AA?9?$AAK?$AAR@ 000000018004b428     libucrt:mbctype.obj
 0002:00005438       ??_C@_1M@CLNBBOPM@?$AAz?$AAh?$AA?9?$AAT?$AAW@ 000000018004b438     libucrt:mbctype.obj
 0002:000054f0       ??_C@_1EA@JGEFHKEI@?$AAa?$AAp?$AAi?$AA?9?$AAm?$AAs?$AA?9?$AAw?$AAi?$AAn?$AA?9?$AAc?$AAo?$AAr?$AAe@ 000000018004b4f0     libucrt:winapi_thunks.obj
 0002:00005530       ??_C@_1DI@IJCEHOCB@?$AAa?$AAp?$AAi?$AA?9?$AAm?$AAs?$AA?9?$AAw?$AAi?$AAn?$AA?9?$AAc?$AAo?$AAr?$AAe@ 000000018004b530     libucrt:winapi_thunks.obj
 0002:00005570       ??_C@_1EI@MPIAOHOC@?$AAa?$AAp?$AAi?$AA?9?$AAm?$AAs?$AA?9?$AAw?$AAi?$AAn?$AA?9?$AAc?$AAo?$AAr?$AAe@ 000000018004b570     libucrt:winapi_thunks.obj
 0002:000055c0       ??_C@_1FK@FPHCKFIE@?$AAa?$AAp?$AAi?$AA?9?$AAm?$AAs?$AA?9?$AAw?$AAi?$AAn?$AA?9?$AAc?$AAo?$AAr?$AAe@ 000000018004b5c0     libucrt:winapi_thunks.obj
 0002:00005620       ??_C@_1EM@DILCGIIO@?$AAa?$AAp?$AAi?$AA?9?$AAm?$AAs?$AA?9?$AAw?$AAi?$AAn?$AA?9?$AAc?$AAo?$AAr?$AAe@ 000000018004b620     libucrt:winapi_thunks.obj
 0002:00005670       ??_C@_1DM@LNCGDDPN@?$AAa?$AAp?$AAi?$AA?9?$AAm?$AAs?$AA?9?$AAw?$AAi?$AAn?$AA?9?$AAc?$AAo?$AAr?$AAe@ 000000018004b670     libucrt:winapi_thunks.obj
 0002:000056b0       ??_C@_1DO@FPAPJEMD@?$AAa?$AAp?$AAi?$AA?9?$AAm?$AAs?$AA?9?$AAw?$AAi?$AAn?$AA?9?$AAc?$AAo?$AAr?$AAe@ 000000018004b6b0     libucrt:winapi_thunks.obj
 0002:000056f0       ??_C@_1DK@NDHNAHIO@?$AAa?$AAp?$AAi?$AA?9?$AAm?$AAs?$AA?9?$AAw?$AAi?$AAn?$AA?9?$AAc?$AAo?$AAr?$AAe@ 000000018004b6f0     libucrt:winapi_thunks.obj
 0002:00005730       ??_C@_1DM@KGHDGBCM@?$AAa?$AAp?$AAi?$AA?9?$AAm?$AAs?$AA?9?$AAw?$AAi?$AAn?$AA?9?$AAc?$AAo?$AAr?$AAe@ 000000018004b730     libucrt:winapi_thunks.obj
 0002:00005770       ??_C@_1EO@IJIOEFOH@?$AAa?$AAp?$AAi?$AA?9?$AAm?$AAs?$AA?9?$AAw?$AAi?$AAn?$AA?9?$AAr?$AAt?$AAc?$AAo@ 000000018004b770     libucrt:winapi_thunks.obj
 0002:000057c0       ??_C@_1FG@HHGEKANL@?$AAa?$AAp?$AAi?$AA?9?$AAm?$AAs?$AA?9?$AAw?$AAi?$AAn?$AA?9?$AAs?$AAe?$AAc?$AAu@ 000000018004b7c0     libucrt:winapi_thunks.obj
 0002:00005820       ??_C@_1EG@DBIOJECG@?$AAe?$AAx?$AAt?$AA?9?$AAm?$AAs?$AA?9?$AAw?$AAi?$AAn?$AA?9?$AAn?$AAt?$AAu?$AAs@ 000000018004b820     libucrt:winapi_thunks.obj
 0002:00005870       ??_C@_1EO@FIHMJCLF@?$AAe?$AAx?$AAt?$AA?9?$AAm?$AAs?$AA?9?$AAw?$AAi?$AAn?$AA?9?$AAn?$AAt?$AAu?$AAs@ 000000018004b870     libucrt:winapi_thunks.obj
 0002:000058c0       ??_C@_1BC@DNHGCMLG@?$AAa?$AAd?$AAv?$AAa?$AAp?$AAi?$AA3?$AA2@ 000000018004b8c0     libucrt:winapi_thunks.obj
 0002:000058d8       ??_C@_1M@OAIMIKLP@?$AAn?$AAt?$AAd?$AAl?$AAl@ 000000018004b8d8     libucrt:winapi_thunks.obj
 0002:000058f0       ??_C@_1EG@DPGNFKGC@?$AAa?$AAp?$AAi?$AA?9?$AAm?$AAs?$AA?9?$AAw?$AAi?$AAn?$AA?9?$AAa?$AAp?$AAp?$AAm@ 000000018004b8f0     libucrt:winapi_thunks.obj
 0002:00005938       ??_C@_1O@BCCLBEOE@?$AAu?$AAs?$AAe?$AAr?$AA3?$AA2@ 000000018004b938     libucrt:winapi_thunks.obj
 0002:00005948       ??_C@_1BA@IAIFMGEF@?$AAe?$AAx?$AAt?$AA?9?$AAm?$AAs?$AA?9@ 000000018004b948     libucrt:winapi_thunks.obj
 0002:00005960       ??_C@_0BA@FHFNEAED@AreFileApisANSI@ 000000018004b960     libucrt:winapi_thunks.obj
 0002:000059a0       ??_C@_0O@KKBNKAPF@LCMapStringEx@ 000000018004b9a0     libucrt:winapi_thunks.obj
 0002:000059b8       ??_C@_0BB@HBDEELFH@LocaleNameToLCID@ 000000018004b9b8     libucrt:winapi_thunks.obj
 0002:000059d0       ??_C@_0CF@OJOFEIGO@AppPolicyGetProcessTerminationM@ 000000018004b9d0     libucrt:winapi_thunks.obj
 0002:00005a00       __lc_time_c                000000018004ba00     libucrt:nlsdata.obj
 0002:00005cc0       ??_C@_03KOEHGMDN@Sun@      000000018004bcc0     libucrt:nlsdata.obj
 0002:00005cc4       ??_C@_03PDAGKDH@Mon@       000000018004bcc4     libucrt:nlsdata.obj
 0002:00005cc8       ??_C@_03NAGEINEP@Tue@      000000018004bcc8     libucrt:nlsdata.obj
 0002:00005ccc       ??_C@_03MHOMLAJA@Wed@      000000018004bccc     libucrt:nlsdata.obj
 0002:00005cd0       ??_C@_03IOFIKPDN@Thu@      000000018004bcd0     libucrt:nlsdata.obj
 0002:00005cd4       ??_C@_03IDIOELNC@Fri@      000000018004bcd4     libucrt:nlsdata.obj
 0002:00005cd8       ??_C@_03FEFJNEK@Sat@       000000018004bcd8     libucrt:nlsdata.obj
 0002:00005cdc       ??_C@_06OOPIFAJ@Sunday@    000000018004bcdc     libucrt:nlsdata.obj
 0002:00005ce4       ??_C@_06JLEDEDGH@Monday@   000000018004bce4     libucrt:nlsdata.obj
 0002:00005cf0       ??_C@_07BAAGCFCM@Tuesday@  000000018004bcf0     libucrt:nlsdata.obj
 0002:00005cf8       ??_C@_09DLIGFAKA@Wednesday@ 000000018004bcf8     libucrt:nlsdata.obj
 0002:00005d08       ??_C@_08HACCIKIA@Thursday@ 000000018004bd08     libucrt:nlsdata.obj
 0002:00005d14       ??_C@_06JECMNKMI@Friday@   000000018004bd14     libucrt:nlsdata.obj
 0002:00005d20       ??_C@_08INBOOONO@Saturday@ 000000018004bd20     libucrt:nlsdata.obj
 0002:00005d2c       ??_C@_03JIHJHPIE@Jan@      000000018004bd2c     libucrt:nlsdata.obj
 0002:00005d30       ??_C@_03HJBDCHOM@Feb@      000000018004bd30     libucrt:nlsdata.obj
 0002:00005d34       ??_C@_03ODNJBKGA@Mar@      000000018004bd34     libucrt:nlsdata.obj
 0002:00005d38       ??_C@_03LEOLGMJP@Apr@      000000018004bd38     libucrt:nlsdata.obj
 0002:00005d3c       ??_C@_03CNMDKL@May@        000000018004bd3c     libucrt:nlsdata.obj
 0002:00005d40       ??_C@_03IDFGHECI@Jun@      000000018004bd40     libucrt:nlsdata.obj
 0002:00005d44       ??_C@_03LBGABGKK@Jul@      000000018004bd44     libucrt:nlsdata.obj
 0002:00005d48       ??_C@_03IFJFEIGA@Aug@      000000018004bd48     libucrt:nlsdata.obj
 0002:00005d4c       ??_C@_03GGCAPAJC@Sep@      000000018004bd4c     libucrt:nlsdata.obj
 0002:00005d50       ??_C@_03BMAOKBAD@Oct@      000000018004bd50     libucrt:nlsdata.obj
 0002:00005d54       ??_C@_03JPJOFNIA@Nov@      000000018004bd54     libucrt:nlsdata.obj
 0002:00005d58       ??_C@_03MKABNOCG@Dec@      000000018004bd58     libucrt:nlsdata.obj
 0002:00005d60       ??_C@_07CGJPFGJA@January@  000000018004bd60     libucrt:nlsdata.obj
 0002:00005d68       ??_C@_08GNJGEPFN@February@ 000000018004bd68     libucrt:nlsdata.obj
 0002:00005d74       ??_C@_05HPCKOFNC@March@    000000018004bd74     libucrt:nlsdata.obj
 0002:00005d7c       ??_C@_05DMJDNLEJ@April@    000000018004bd7c     libucrt:nlsdata.obj
 0002:00005d84       ??_C@_04CNLMGBGM@June@     000000018004bd84     libucrt:nlsdata.obj
 0002:00005d8c       ??_C@_04MIEPOIFP@July@     000000018004bd8c     libucrt:nlsdata.obj
 0002:00005d94       ??_C@_06LBBHFDDG@August@   000000018004bd94     libucrt:nlsdata.obj
 0002:00005da0       ??_C@_09BHHEALKD@September@ 000000018004bda0     libucrt:nlsdata.obj
 0002:00005db0       ??_C@_07JJNFCEND@October@  000000018004bdb0     libucrt:nlsdata.obj
 0002:00005db8       ??_C@_08HCHEGEOA@November@ 000000018004bdb8     libucrt:nlsdata.obj
 0002:00005dc8       ??_C@_08EDHMEBNP@December@ 000000018004bdc8     libucrt:nlsdata.obj
 0002:00005dd4       ??_C@_02DEDBPAFC@AM@       000000018004bdd4     libucrt:nlsdata.obj
 0002:00005dd8       ??_C@_02CJNFDJBF@PM@       000000018004bdd8     libucrt:nlsdata.obj
 0002:00005de0       ??_C@_08BPBNCDIB@MM?1dd?1yy@ 000000018004bde0     libucrt:nlsdata.obj
 0002:00005df0       ??_C@_0BE@CKGJFCPC@dddd?0?5MMMM?5dd?0?5yyyy@ 000000018004bdf0     libucrt:nlsdata.obj
 0002:00005e08       ??_C@_08JCCMCCIL@HH?3mm?3ss@ 000000018004be08     libucrt:nlsdata.obj
 0002:00005e18       ??_C@_17MBGCMIPB@?$AAS?$AAu?$AAn@ 000000018004be18     libucrt:nlsdata.obj
 0002:00005e20       ??_C@_17KBOMKBF@?$AAM?$AAo?$AAn@ 000000018004be20     libucrt:nlsdata.obj
 0002:00005e28       ??_C@_17BMKGEGOJ@?$AAT?$AAu?$AAe@ 000000018004be28     libucrt:nlsdata.obj
 0002:00005e30       ??_C@_17CJEDCEPE@?$AAW?$AAe?$AAd@ 000000018004be30     libucrt:nlsdata.obj
 0002:00005e38       ??_C@_17PDPHAADD@?$AAT?$AAh?$AAu@ 000000018004be38     libucrt:nlsdata.obj
 0002:00005e40       ??_C@_17HFOLPPLP@?$AAF?$AAr?$AAi@ 000000018004be40     libucrt:nlsdata.obj
 0002:00005e48       ??_C@_17GGIBDPIH@?$AAS?$AAa?$AAt@ 000000018004be48     libucrt:nlsdata.obj
 0002:00005e50       ??_C@_1O@IHNHDHPB@?$AAS?$AAu?$AAn?$AAd?$AAa?$AAy@ 000000018004be50     libucrt:nlsdata.obj
 0002:00005e60       ??_C@_1O@MMNBFLIA@?$AAM?$AAo?$AAn?$AAd?$AAa?$AAy@ 000000018004be60     libucrt:nlsdata.obj
 0002:00005e70       ??_C@_1BA@ENFBFFEK@?$AAT?$AAu?$AAe?$AAs?$AAd?$AAa?$AAy@ 000000018004be70     libucrt:nlsdata.obj
 0002:00005e80       ??_C@_1BE@EBOGMDOH@?$AAW?$AAe?$AAd?$AAn?$AAe?$AAs?$AAd?$AAa?$AAy@ 000000018004be80     libucrt:nlsdata.obj
 0002:00005e98       ??_C@_1BC@HHMNLIHE@?$AAT?$AAh?$AAu?$AAr?$AAs?$AAd?$AAa?$AAy@ 000000018004be98     libucrt:nlsdata.obj
 0002:00005eb0       ??_C@_1O@PDICJHAG@?$AAF?$AAr?$AAi?$AAd?$AAa?$AAy@ 000000018004beb0     libucrt:nlsdata.obj
 0002:00005ec0       ??_C@_1BC@ENMNNPAJ@?$AAS?$AAa?$AAt?$AAu?$AAr?$AAd?$AAa?$AAy@ 000000018004bec0     libucrt:nlsdata.obj
 0002:00005ed8       ??_C@_17DKNBKCHM@?$AAJ?$AAa?$AAn@ 000000018004bed8     libucrt:nlsdata.obj
 0002:00005ee0       ??_C@_17LMDJEKJN@?$AAF?$AAe?$AAb@ 000000018004bee0     libucrt:nlsdata.obj
 0002:00005ee8       ??_C@_17CKNLEDEC@?$AAM?$AAa?$AAr@ 000000018004bee8     libucrt:nlsdata.obj
 0002:00005ef0       ??_C@_17LFPOIHDD@?$AAA?$AAp?$AAr@ 000000018004bef0     libucrt:nlsdata.obj
 0002:00005ef8       ??_C@_17PNNKMEED@?$AAM?$AAa?$AAy@ 000000018004bef8     libucrt:nlsdata.obj
 0002:00005f00       ??_C@_17KCJGOCPB@?$AAJ?$AAu?$AAn@ 000000018004bf00     libucrt:nlsdata.obj
 0002:00005f08       ??_C@_17IJPCKHK@?$AAJ?$AAu?$AAl@ 000000018004bf08     libucrt:nlsdata.obj
 0002:00005f10       ??_C@_17ICPELBCN@?$AAA?$AAu?$AAg@ 000000018004bf10     libucrt:nlsdata.obj
 0002:00005f18       ??_C@_17HCHCOKMG@?$AAS?$AAe?$AAp@ 000000018004bf18     libucrt:nlsdata.obj
 0002:00005f20       ??_C@_17FNLKOI@?$AAO?$AAc?$AAt@ 000000018004bf20     libucrt:nlsdata.obj
 0002:00005f28       ??_C@_17BBDMLCIG@?$AAN?$AAo?$AAv@ 000000018004bf28     libucrt:nlsdata.obj
 0002:00005f30       ??_C@_17EGKACKIF@?$AAD?$AAe?$AAc@ 000000018004bf30     libucrt:nlsdata.obj
 0002:00005f38       ??_C@_1BA@EFMEIEBA@?$AAJ?$AAa?$AAn?$AAu?$AAa?$AAr?$AAy@ 000000018004bf38     libucrt:nlsdata.obj
 0002:00005f48       ??_C@_1BC@JGDDFFAM@?$AAF?$AAe?$AAb?$AAr?$AAu?$AAa?$AAr?$AAy@ 000000018004bf48     libucrt:nlsdata.obj
 0002:00005f60       ??_C@_1M@IKEENEDF@?$AAM?$AAa?$AAr?$AAc?$AAh@ 000000018004bf60     libucrt:nlsdata.obj
 0002:00005f70       ??_C@_1M@GJNLMHFD@?$AAA?$AAp?$AAr?$AAi?$AAl@ 000000018004bf70     libucrt:nlsdata.obj
 0002:00005f80       ??_C@_19EPFLPGAP@?$AAJ?$AAu?$AAn?$AAe@ 000000018004bf80     libucrt:nlsdata.obj
 0002:00005f90       ??_C@_19BIFMLPCD@?$AAJ?$AAu?$AAl?$AAy@ 000000018004bf90     libucrt:nlsdata.obj
 0002:00005fa0       ??_C@_1O@PAHLKOAC@?$AAA?$AAu?$AAg?$AAu?$AAs?$AAt@ 000000018004bfa0     libucrt:nlsdata.obj
 0002:00005fb0       ??_C@_1BE@DKAAMBJL@?$AAS?$AAe?$AAp?$AAt?$AAe?$AAm?$AAb?$AAe?$AAr@ 000000018004bfb0     libucrt:nlsdata.obj
 0002:00005fc8       ??_C@_1BA@EPANDLNG@?$AAO?$AAc?$AAt?$AAo?$AAb?$AAe?$AAr@ 000000018004bfc8     libucrt:nlsdata.obj
 0002:00005fd8       ??_C@_1BC@BGLIFPF@?$AAN?$AAo?$AAv?$AAe?$AAm?$AAb?$AAe?$AAr@ 000000018004bfd8     libucrt:nlsdata.obj
 0002:00005ff0       ??_C@_1BC@FEMKIFH@?$AAD?$AAe?$AAc?$AAe?$AAm?$AAb?$AAe?$AAr@ 000000018004bff0     libucrt:nlsdata.obj
 0002:00006004       ??_C@_15ODEHAHHF@?$AAA?$AAM@ 000000018004c004     libucrt:nlsdata.obj
 0002:0000600c       ??_C@_15CLMNNGEL@?$AAP?$AAM@ 000000018004c00c     libucrt:nlsdata.obj
 0002:00006018       ??_C@_1BC@IEBCMHCM@?$AAM?$AAM?$AA?1?$AAd?$AAd?$AA?1?$AAy?$AAy@ 000000018004c018     libucrt:nlsdata.obj
 0002:00006030       ??_C@_1CI@KNAKOEBC@?$AAd?$AAd?$AAd?$AAd?$AA?0?$AA?5?$AAM?$AAM?$AAM?$AAM?$AA?5?$AAd?$AAd?$AA?0?$AA?5@ 000000018004c030     libucrt:nlsdata.obj
 0002:00006058       ??_C@_1BC@GDGBMEMK@?$AAH?$AAH?$AA?3?$AAm?$AAm?$AA?3?$AAs?$AAs@ 000000018004c058     libucrt:nlsdata.obj
 0002:00006070       ??_C@_1M@BMHNFIME@?$AAe?$AAn?$AA?9?$AAU?$AAS@ 000000018004c070     libucrt:nlsdata.obj
 0002:00006100       ??_C@_03OEIAHPBN@INF@      000000018004c100     libucrt:cvt.obj
 0002:00006104       ??_C@_03OJHLLCGB@inf@      000000018004c104     libucrt:cvt.obj
 0002:00006108       ??_C@_03LKNCIKJB@NAN@      000000018004c108     libucrt:cvt.obj
 0002:0000610c       ??_C@_03LHCJEHON@nan@      000000018004c10c     libucrt:cvt.obj
 0002:00006110       ??_C@_09OFJJIMPC@NAN?$CISNAN?$CJ@ 000000018004c110     libucrt:cvt.obj
 0002:00006120       ??_C@_09IPFBKMDL@nan?$CIsnan?$CJ@ 000000018004c120     libucrt:cvt.obj
 0002:00006130       ??_C@_08IKHNHAJ@NAN?$CIIND?$CJ@ 000000018004c130     libucrt:cvt.obj
 0002:00006140       ??_C@_08OFCDMILK@nan?$CIind?$CJ@ 000000018004c140     libucrt:cvt.obj
 0002:0000614c       ??_C@_05KLBDPFGC@e?$CL000@ 000000018004c14c     libucrt:cvt.obj
 0002:00006160       __newctype                 000000018004c160     libucrt:ctype.obj
 0002:00006460       __newclmap                 000000018004c460     libucrt:ctype.obj
 0002:000065e0       __newcumap                 000000018004c5e0     libucrt:ctype.obj
 0002:00006770       ??_C@_05HGHHAHAP@log10@    000000018004c770     libucrt:fpexcept.obj
 0002:000075c0       ??_C@_15EMKDOKLE@?$AAa?$AAr@ 000000018004d5c0     libucrt:lcidtoname_downlevel.obj
 0002:000075c8       ??_C@_15KNPADPLH@?$AAb?$AAg@ 000000018004d5c8     libucrt:lcidtoname_downlevel.obj
 0002:000075d0       ??_C@_15EDMHLDMO@?$AAc?$AAa@ 000000018004d5d0     libucrt:lcidtoname_downlevel.obj
 0002:000075d8       ??_C@_1O@BPEAJADD@?$AAz?$AAh?$AA?9?$AAC?$AAH?$AAS@ 000000018004d5d8     libucrt:lcidtoname_downlevel.obj
 0002:000075e8       ??_C@_15LJNHCMNK@?$AAc?$AAs@ 000000018004d5e8     libucrt:lcidtoname_downlevel.obj
 0002:000075f0       ??_C@_15FOMCIDHG@?$AAd?$AAa@ 000000018004d5f0     libucrt:lcidtoname_downlevel.obj
 0002:000075f8       ??_C@_15NBKABECB@?$AAd?$AAe@ 000000018004d5f8     libucrt:lcidtoname_downlevel.obj
 0002:00007600       ??_C@_15GHPEIIAO@?$AAe?$AAl@ 000000018004d600     libucrt:lcidtoname_downlevel.obj
 0002:00007608       ??_C@_15MNPNEAIF@?$AAe?$AAn@ 000000018004d608     libucrt:lcidtoname_downlevel.obj
 0002:00007610       ??_C@_15GPIOMPMH@?$AAe?$AAs@ 000000018004d610     libucrt:lcidtoname_downlevel.obj
 0002:00007618       ??_C@_15NGLOAKJC@?$AAf?$AAi@ 000000018004d618     libucrt:lcidtoname_downlevel.obj
 0002:00007620       ??_C@_15FBKGNKAM@?$AAf?$AAr@ 000000018004d620     libucrt:lcidtoname_downlevel.obj
 0002:00007628       ??_C@_15KGGCNEFK@?$AAh?$AAe@ 000000018004d628     libucrt:lcidtoname_downlevel.obj
 0002:00007630       ??_C@_15PGHLIDMF@?$AAh?$AAu@ 000000018004d630     libucrt:lcidtoname_downlevel.obj
 0002:00007638       ??_C@_15BIEMAPLM@?$AAi?$AAs@ 000000018004d638     libucrt:lcidtoname_downlevel.obj
 0002:00007640       ??_C@_15IFJLDHAF@?$AAi?$AAt@ 000000018004d640     libucrt:lcidtoname_downlevel.obj
 0002:00007648       ??_C@_15GEMIOCAG@?$AAj?$AAa@ 000000018004d648     libucrt:lcidtoname_downlevel.obj
 0002:00007650       ??_C@_15EPELEGJA@?$AAk?$AAo@ 000000018004d650     libucrt:lcidtoname_downlevel.obj
 0002:00007658       ??_C@_15NDDHIMN@?$AAn?$AAl@ 000000018004d658     libucrt:lcidtoname_downlevel.obj
 0002:00007660       ??_C@_15BPIGNHCD@?$AAn?$AAo@ 000000018004d660     libucrt:lcidtoname_downlevel.obj
 0002:00007668       ??_C@_15DEOPBLCG@?$AAp?$AAl@ 000000018004d668     libucrt:lcidtoname_downlevel.obj
 0002:00007670       ??_C@_15KBECGEFG@?$AAp?$AAt@ 000000018004d670     libucrt:lcidtoname_downlevel.obj
 0002:00007678       ??_C@_15GLJCBFMD@?$AAr?$AAo@ 000000018004d678     libucrt:lcidtoname_downlevel.obj
 0002:00007680       ??_C@_15FEDGKCDI@?$AAr?$AAu@ 000000018004d680     libucrt:lcidtoname_downlevel.obj
 0002:00007688       ??_C@_15GLKMLLHM@?$AAh?$AAr@ 000000018004d688     libucrt:lcidtoname_downlevel.obj
 0002:00007690       ??_C@_15CPKMFBDB@?$AAs?$AAk@ 000000018004d690     libucrt:lcidtoname_downlevel.obj
 0002:00007698       ??_C@_15BAAIOGMK@?$AAs?$AAq@ 000000018004d698     libucrt:lcidtoname_downlevel.obj
 0002:000076a0       ??_C@_15INNPNOHD@?$AAs?$AAv@ 000000018004d6a0     libucrt:lcidtoname_downlevel.obj
 0002:000076a8       ??_C@_15CABMMOGH@?$AAt?$AAh@ 000000018004d6a8     libucrt:lcidtoname_downlevel.obj
 0002:000076b0       ??_C@_15BPLIHJJM@?$AAt?$AAr@ 000000018004d6b0     libucrt:lcidtoname_downlevel.obj
 0002:000076b8       ??_C@_15NEOEKKDJ@?$AAu?$AAr@ 000000018004d6b8     libucrt:lcidtoname_downlevel.obj
 0002:000076c0       ??_C@_15NFICGAJK@?$AAi?$AAd@ 000000018004d6c0     libucrt:lcidtoname_downlevel.obj
 0002:000076c8       ??_C@_15PJPFLCCM@?$AAu?$AAk@ 000000018004d6c8     libucrt:lcidtoname_downlevel.obj
 0002:000076d0       ??_C@_15HPJPHDM@?$AAb?$AAe@ 000000018004d6d0     libucrt:lcidtoname_downlevel.obj
 0002:000076d8       ??_C@_15LCHLGJII@?$AAs?$AAl@ 000000018004d6d8     libucrt:lcidtoname_downlevel.obj
 0002:000076e0       ??_C@_15PCFJPHHO@?$AAe?$AAt@ 000000018004d6e0     libucrt:lcidtoname_downlevel.obj
 0002:000076e8       ??_C@_15HPFPGODN@?$AAl?$AAv@ 000000018004d6e8     libucrt:lcidtoname_downlevel.obj
 0002:000076f0       ??_C@_15NFFGKGLG@?$AAl?$AAt@ 000000018004d6f0     libucrt:lcidtoname_downlevel.obj
 0002:000076f8       ??_C@_15BDAKCCHN@?$AAf?$AAa@ 000000018004d6f8     libucrt:lcidtoname_downlevel.obj
 0002:00007700       ??_C@_15NFGIAIAJ@?$AAv?$AAi@ 000000018004d700     libucrt:lcidtoname_downlevel.obj
 0002:00007708       ??_C@_15LMKNDMHN@?$AAh?$AAy@ 000000018004d708     libucrt:lcidtoname_downlevel.obj
 0002:00007710       ??_C@_15IJBHMCFL@?$AAa?$AAz@ 000000018004d710     libucrt:lcidtoname_downlevel.obj
 0002:00007718       ??_C@_15EKOFJABL@?$AAe?$AAu@ 000000018004d718     libucrt:lcidtoname_downlevel.obj
 0002:00007720       ??_C@_15BGHADCNK@?$AAm?$AAk@ 000000018004d720     libucrt:lcidtoname_downlevel.obj
 0002:00007728       ??_C@_15JDNICKHM@?$AAa?$AAf@ 000000018004d728     libucrt:lcidtoname_downlevel.obj
 0002:00007730       ??_C@_15KPJEDBKD@?$AAk?$AAa@ 000000018004d730     libucrt:lcidtoname_downlevel.obj
 0002:00007738       ??_C@_15PDNFFFEO@?$AAf?$AAo@ 000000018004d738     libucrt:lcidtoname_downlevel.obj
 0002:00007740       ??_C@_15OMLEGLOC@?$AAh?$AAi@ 000000018004d740     libucrt:lcidtoname_downlevel.obj
 0002:00007748       ??_C@_15IDNNENKK@?$AAm?$AAs@ 000000018004d748     libucrt:lcidtoname_downlevel.obj
 0002:00007750       ??_C@_15MACJNBMH@?$AAk?$AAk@ 000000018004d750     libucrt:lcidtoname_downlevel.obj
 0002:00007758       ??_C@_15DKDJEOND@?$AAk?$AAy@ 000000018004d758     libucrt:lcidtoname_downlevel.obj
 0002:00007760       ??_C@_15DFGDLJBG@?$AAs?$AAw@ 000000018004d760     libucrt:lcidtoname_downlevel.obj
 0002:00007768       ??_C@_15BBFAICNG@?$AAu?$AAz@ 000000018004d768     libucrt:lcidtoname_downlevel.obj
 0002:00007770       ??_C@_15DKNDCGEA@?$AAt?$AAt@ 000000018004d770     libucrt:lcidtoname_downlevel.obj
 0002:00007778       ??_C@_15MGIFMDPL@?$AAp?$AAa@ 000000018004d778     libucrt:lcidtoname_downlevel.obj
 0002:00007780       ??_C@_15HCNDBBA@?$AAg?$AAu@ 000000018004d780     libucrt:lcidtoname_downlevel.obj
 0002:00007788       ??_C@_15FNBEIBON@?$AAt?$AAa@ 000000018004d788     libucrt:lcidtoname_downlevel.obj
 0002:00007790       ??_C@_15NCHGBGLK@?$AAt?$AAe@ 000000018004d790     libucrt:lcidtoname_downlevel.obj
 0002:00007798       ??_C@_15PHPHCBPF@?$AAk?$AAn@ 000000018004d798     libucrt:lcidtoname_downlevel.obj
 0002:000077a0       ??_C@_15DLGBCKMP@?$AAm?$AAr@ 000000018004d7a0     libucrt:lcidtoname_downlevel.obj
 0002:000077a8       ??_C@_15EABBLBFF@?$AAs?$AAa@ 000000018004d7a8     libucrt:lcidtoname_downlevel.obj
 0002:000077b0       ??_C@_15CBKOMCOI@?$AAm?$AAn@ 000000018004d7b0     libucrt:lcidtoname_downlevel.obj
 0002:000077b8       ??_C@_15CKDMCJAF@?$AAg?$AAl@ 000000018004d7b8     libucrt:lcidtoname_downlevel.obj
 0002:000077c0       ??_C@_17CNJFBPG@?$AAk?$AAo?$AAk@ 000000018004d7c0     libucrt:lcidtoname_downlevel.obj
 0002:000077c8       ??_C@_17FFBJICPL@?$AAs?$AAy?$AAr@ 000000018004d7c8     libucrt:lcidtoname_downlevel.obj
 0002:000077d0       ??_C@_17KPNDCPAF@?$AAd?$AAi?$AAv@ 000000018004d7d0     libucrt:lcidtoname_downlevel.obj
 0002:000077d8       ??_C@_11LOCGONAA@@         000000018004d7d8     libucrt:lcidtoname_downlevel.obj
 0002:000077e0       ??_C@_1M@OKAHONE@?$AAa?$AAr?$AA?9?$AAS?$AAA@ 000000018004d7e0     libucrt:lcidtoname_downlevel.obj
 0002:000077f0       ??_C@_1M@FFFIGIGK@?$AAb?$AAg?$AA?9?$AAB?$AAG@ 000000018004d7f0     libucrt:lcidtoname_downlevel.obj
 0002:00007800       ??_C@_1M@BJNKEDC@?$AAc?$AAa?$AA?9?$AAE?$AAS@ 000000018004d800     libucrt:lcidtoname_downlevel.obj
 0002:00007810       ??_C@_1M@IJJHFJHA@?$AAc?$AAs?$AA?9?$AAC?$AAZ@ 000000018004d810     libucrt:lcidtoname_downlevel.obj
 0002:00007820       ??_C@_1M@CLPEOBGI@?$AAd?$AAa?$AA?9?$AAD?$AAK@ 000000018004d820     libucrt:lcidtoname_downlevel.obj
 0002:00007830       ??_C@_1M@MCMADGCB@?$AAd?$AAe?$AA?9?$AAD?$AAE@ 000000018004d830     libucrt:lcidtoname_downlevel.obj
 0002:00007840       ??_C@_1M@OOCKEMAM@?$AAe?$AAl?$AA?9?$AAG?$AAR@ 000000018004d840     libucrt:lcidtoname_downlevel.obj
 0002:00007850       ??_C@_1M@DDNJFGID@?$AAf?$AAi?$AA?9?$AAF?$AAI@ 000000018004d850     libucrt:lcidtoname_downlevel.obj
 0002:00007860       ??_C@_1M@GLIPPMAC@?$AAf?$AAr?$AA?9?$AAF?$AAR@ 000000018004d860     libucrt:lcidtoname_downlevel.obj
 0002:00007870       ??_C@_1M@GFMCHPE@?$AAh?$AAe?$AA?9?$AAI?$AAL@ 000000018004d870     libucrt:lcidtoname_downlevel.obj
 0002:00007880       ??_C@_1M@MHLPGNKM@?$AAh?$AAu?$AA?9?$AAH?$AAU@ 000000018004d880     libucrt:lcidtoname_downlevel.obj
 0002:00007890       ??_C@_1M@LPDDNNPN@?$AAi?$AAs?$AA?9?$AAI?$AAS@ 000000018004d890     libucrt:lcidtoname_downlevel.obj
 0002:000078a0       ??_C@_1M@MADIPODN@?$AAi?$AAt?$AA?9?$AAI?$AAT@ 000000018004d8a0     libucrt:lcidtoname_downlevel.obj
 0002:000078b0       ??_C@_1M@IHBJJGG@?$AAn?$AAl?$AA?9?$AAN?$AAL@ 000000018004d8b0     libucrt:lcidtoname_downlevel.obj
 0002:000078c0       ??_C@_1M@EANAGDL@?$AAn?$AAb?$AA?9?$AAN?$AAO@ 000000018004d8c0     libucrt:lcidtoname_downlevel.obj
 0002:000078d0       ??_C@_1M@NEIEMEGP@?$AAp?$AAl?$AA?9?$AAP?$AAL@ 000000018004d8d0     libucrt:lcidtoname_downlevel.obj
 0002:000078e0       ??_C@_1M@BOCFIGEP@?$AAp?$AAt?$AA?9?$AAB?$AAR@ 000000018004d8e0     libucrt:lcidtoname_downlevel.obj
 0002:000078f0       ??_C@_1M@IMPFOPBG@?$AAr?$AAo?$AA?9?$AAR?$AAO@ 000000018004d8f0     libucrt:lcidtoname_downlevel.obj
 0002:00007900       ??_C@_1M@IDNNEJMM@?$AAr?$AAu?$AA?9?$AAR?$AAU@ 000000018004d900     libucrt:lcidtoname_downlevel.obj
 0002:00007910       ??_C@_1M@LILEEOGM@?$AAh?$AAr?$AA?9?$AAH?$AAR@ 000000018004d910     libucrt:lcidtoname_downlevel.obj
 0002:00007920       ??_C@_1M@FKIFEHPB@?$AAs?$AAk?$AA?9?$AAS?$AAK@ 000000018004d920     libucrt:lcidtoname_downlevel.obj
 0002:00007930       ??_C@_1M@LJMAMNPJ@?$AAs?$AAq?$AA?9?$AAA?$AAL@ 000000018004d930     libucrt:lcidtoname_downlevel.obj
 0002:00007940       ??_C@_1M@GIAKDKJK@?$AAs?$AAv?$AA?9?$AAS?$AAE@ 000000018004d940     libucrt:lcidtoname_downlevel.obj
 0002:00007950       ??_C@_1M@MKJKIKCL@?$AAt?$AAh?$AA?9?$AAT?$AAH@ 000000018004d950     libucrt:lcidtoname_downlevel.obj
 0002:00007960       ??_C@_1M@MFLCCMPB@?$AAt?$AAr?$AA?9?$AAT?$AAR@ 000000018004d960     libucrt:lcidtoname_downlevel.obj
 0002:00007970       ??_C@_1M@OIJHDKJN@?$AAu?$AAr?$AA?9?$AAP?$AAK@ 000000018004d970     libucrt:lcidtoname_downlevel.obj
 0002:00007980       ??_C@_1M@LHIPCIEK@?$AAi?$AAd?$AA?9?$AAI?$AAD@ 000000018004d980     libucrt:lcidtoname_downlevel.obj
 0002:00007990       ??_C@_1M@MFMOBGI@?$AAu?$AAk?$AA?9?$AAU?$AAA@ 000000018004d990     libucrt:lcidtoname_downlevel.obj
 0002:000079a0       ??_C@_1M@OBGLJIPL@?$AAb?$AAe?$AA?9?$AAB?$AAY@ 000000018004d9a0     libucrt:lcidtoname_downlevel.obj
 0002:000079b0       ??_C@_1M@BCFAJEAD@?$AAs?$AAl?$AA?9?$AAS?$AAI@ 000000018004d9b0     libucrt:lcidtoname_downlevel.obj
 0002:000079c0       ??_C@_1M@FKFFEDDN@?$AAe?$AAt?$AA?9?$AAE?$AAE@ 000000018004d9c0     libucrt:lcidtoname_downlevel.obj
 0002:000079d0       ??_C@_1M@KGKKAACI@?$AAl?$AAv?$AA?9?$AAL?$AAV@ 000000018004d9d0     libucrt:lcidtoname_downlevel.obj
 0002:000079e0       ??_C@_1M@IFGBIJO@?$AAl?$AAt?$AA?9?$AAL?$AAT@ 000000018004d9e0     libucrt:lcidtoname_downlevel.obj
 0002:000079f0       ??_C@_1M@FGEAHEDM@?$AAf?$AAa?$AA?9?$AAI?$AAR@ 000000018004d9f0     libucrt:lcidtoname_downlevel.obj
 0002:00007a00       ??_C@_1M@KBMAIBFN@?$AAv?$AAi?$AA?9?$AAV?$AAN@ 000000018004da00     libucrt:lcidtoname_downlevel.obj
 0002:00007a10       ??_C@_1M@GPCBKDJK@?$AAh?$AAy?$AA?9?$AAA?$AAM@ 000000018004da10     libucrt:lcidtoname_downlevel.obj
 0002:00007a20       ??_C@_1BG@BECMDDJB@?$AAa?$AAz?$AA?9?$AAA?$AAZ?$AA?9?$AAL?$AAa?$AAt?$AAn@ 000000018004da20     libucrt:lcidtoname_downlevel.obj
 0002:00007a38       ??_C@_1M@MAOFCAEA@?$AAe?$AAu?$AA?9?$AAE?$AAS@ 000000018004da38     libucrt:lcidtoname_downlevel.obj
 0002:00007a48       ??_C@_1M@IGHABKPI@?$AAm?$AAk?$AA?9?$AAM?$AAK@ 000000018004da48     libucrt:lcidtoname_downlevel.obj
 0002:00007a58       ??_C@_1M@IAIGNEJG@?$AAt?$AAn?$AA?9?$AAZ?$AAA@ 000000018004da58     libucrt:lcidtoname_downlevel.obj
 0002:00007a68       ??_C@_1M@IIJCOJFA@?$AAx?$AAh?$AA?9?$AAZ?$AAA@ 000000018004da68     libucrt:lcidtoname_downlevel.obj
 0002:00007a78       ??_C@_1M@LGPJHNJH@?$AAz?$AAu?$AA?9?$AAZ?$AAA@ 000000018004da78     libucrt:lcidtoname_downlevel.obj
 0002:00007a88       ??_C@_1M@HOKAOIO@?$AAa?$AAf?$AA?9?$AAZ?$AAA@ 000000018004da88     libucrt:lcidtoname_downlevel.obj
 0002:00007a98       ??_C@_1M@DPCLHLIE@?$AAk?$AAa?$AA?9?$AAG?$AAE@ 000000018004da98     libucrt:lcidtoname_downlevel.obj
 0002:00007aa8       ??_C@_1M@BLKMHJBI@?$AAf?$AAo?$AA?9?$AAF?$AAO@ 000000018004daa8     libucrt:lcidtoname_downlevel.obj
 0002:00007ab8       ??_C@_1M@LGGJAPPB@?$AAh?$AAi?$AA?9?$AAI?$AAN@ 000000018004dab8     libucrt:lcidtoname_downlevel.obj
 0002:00007ac8       ??_C@_1M@FIKPIHFE@?$AAm?$AAt?$AA?9?$AAM?$AAT@ 000000018004dac8     libucrt:lcidtoname_downlevel.obj
 0002:00007ad8       ??_C@_1M@HEGGPBFA@?$AAs?$AAe?$AA?9?$AAN?$AAO@ 000000018004dad8     libucrt:lcidtoname_downlevel.obj
 0002:00007ae8       ??_C@_1M@EIBJEEPA@?$AAm?$AAs?$AA?9?$AAM?$AAY@ 000000018004dae8     libucrt:lcidtoname_downlevel.obj
 0002:00007af8       ??_C@_1M@FHLBGMPP@?$AAk?$AAk?$AA?9?$AAK?$AAZ@ 000000018004daf8     libucrt:lcidtoname_downlevel.obj
 0002:00007b08       ??_C@_1M@NGJJLCGI@?$AAk?$AAy?$AA?9?$AAK?$AAG@ 000000018004db08     libucrt:lcidtoname_downlevel.obj
 0002:00007b18       ??_C@_1M@GIENNBFC@?$AAs?$AAw?$AA?9?$AAK?$AAE@ 000000018004db18     libucrt:lcidtoname_downlevel.obj
 0002:00007b28       ??_C@_1BG@NDGMJIMJ@?$AAu?$AAz?$AA?9?$AAU?$AAZ?$AA?9?$AAL?$AAa?$AAt?$AAn@ 000000018004db28     libucrt:lcidtoname_downlevel.obj
 0002:00007b40       ??_C@_1M@IDCCIHBC@?$AAt?$AAt?$AA?9?$AAR?$AAU@ 000000018004db40     libucrt:lcidtoname_downlevel.obj
 0002:00007b50       ??_C@_1M@LOICPMOJ@?$AAb?$AAn?$AA?9?$AAI?$AAN@ 000000018004db50     libucrt:lcidtoname_downlevel.obj
 0002:00007b60       ??_C@_1M@KPKKNEAH@?$AAp?$AAa?$AA?9?$AAI?$AAN@ 000000018004db60     libucrt:lcidtoname_downlevel.obj
 0002:00007b70       ??_C@_1M@PJGPPBOG@?$AAg?$AAu?$AA?9?$AAI?$AAN@ 000000018004db70     libucrt:lcidtoname_downlevel.obj
 0002:00007b80       ??_C@_1M@KMKMOPHI@?$AAt?$AAa?$AA?9?$AAI?$AAN@ 000000018004db80     libucrt:lcidtoname_downlevel.obj
 0002:00007b90       ??_C@_1M@KFEHEPAC@?$AAt?$AAe?$AA?9?$AAI?$AAN@ 000000018004db90     libucrt:lcidtoname_downlevel.obj
 0002:00007ba0       ??_C@_1M@CDCLMGHI@?$AAk?$AAn?$AA?9?$AAI?$AAN@ 000000018004dba0     libucrt:lcidtoname_downlevel.obj
 0002:00007bb0       ??_C@_1M@MIODLDKF@?$AAm?$AAl?$AA?9?$AAI?$AAN@ 000000018004dbb0     libucrt:lcidtoname_downlevel.obj
 0002:00007bc0       ??_C@_1M@PBIEACPO@?$AAm?$AAr?$AA?9?$AAI?$AAN@ 000000018004dbc0     libucrt:lcidtoname_downlevel.obj
 0002:00007bd0       ??_C@_1M@NIDEAGPH@?$AAs?$AAa?$AA?9?$AAI?$AAN@ 000000018004dbd0     libucrt:lcidtoname_downlevel.obj
 0002:00007be0       ??_C@_1M@FHIHCBIO@?$AAm?$AAn?$AA?9?$AAM?$AAN@ 000000018004dbe0     libucrt:lcidtoname_downlevel.obj
 0002:00007bf0       ??_C@_1M@JAIJPENP@?$AAc?$AAy?$AA?9?$AAG?$AAB@ 000000018004dbf0     libucrt:lcidtoname_downlevel.obj
 0002:00007c00       ??_C@_1M@PHGFBEPN@?$AAg?$AAl?$AA?9?$AAE?$AAS@ 000000018004dc00     libucrt:lcidtoname_downlevel.obj
 0002:00007c10       ??_C@_1O@KPIPDNCP@?$AAk?$AAo?$AAk?$AA?9?$AAI?$AAN@ 000000018004dc10     libucrt:lcidtoname_downlevel.obj
 0002:00007c20       ??_C@_1O@KNHJLDJA@?$AAs?$AAy?$AAr?$AA?9?$AAS?$AAY@ 000000018004dc20     libucrt:lcidtoname_downlevel.obj
 0002:00007c30       ??_C@_1O@MKEKBLAH@?$AAd?$AAi?$AAv?$AA?9?$AAM?$AAV@ 000000018004dc30     libucrt:lcidtoname_downlevel.obj
 0002:00007c40       ??_C@_1O@OHDCKDDF@?$AAq?$AAu?$AAz?$AA?9?$AAB?$AAO@ 000000018004dc40     libucrt:lcidtoname_downlevel.obj
 0002:00007c50       ??_C@_1M@LEPJNLFD@?$AAn?$AAs?$AA?9?$AAZ?$AAA@ 000000018004dc50     libucrt:lcidtoname_downlevel.obj
 0002:00007c60       ??_C@_1M@OMLEIIJB@?$AAm?$AAi?$AA?9?$AAN?$AAZ@ 000000018004dc60     libucrt:lcidtoname_downlevel.obj
 0002:00007c70       ??_C@_1M@PMPEAILG@?$AAa?$AAr?$AA?9?$AAI?$AAQ@ 000000018004dc70     libucrt:lcidtoname_downlevel.obj
 0002:00007c80       ??_C@_1M@CNKPNOEE@?$AAd?$AAe?$AA?9?$AAC?$AAH@ 000000018004dc80     libucrt:lcidtoname_downlevel.obj
 0002:00007c90       ??_C@_1M@LKMGMLKO@?$AAe?$AAn?$AA?9?$AAG?$AAB@ 000000018004dc90     libucrt:lcidtoname_downlevel.obj
 0002:00007ca0       ??_C@_1M@PGKJFFGL@?$AAe?$AAs?$AA?9?$AAM?$AAX@ 000000018004dca0     libucrt:lcidtoname_downlevel.obj
 0002:00007cb0       ??_C@_1M@DNNANBDC@?$AAf?$AAr?$AA?9?$AAB?$AAE@ 000000018004dcb0     libucrt:lcidtoname_downlevel.obj
 0002:00007cc0       ??_C@_1M@HLGMDFHM@?$AAi?$AAt?$AA?9?$AAC?$AAH@ 000000018004dcc0     libucrt:lcidtoname_downlevel.obj
 0002:00007cd0       ??_C@_1M@CLLBGJH@?$AAn?$AAl?$AA?9?$AAB?$AAE@ 000000018004dcd0     libucrt:lcidtoname_downlevel.obj
 0002:00007ce0       ??_C@_1M@BODBOGLF@?$AAn?$AAn?$AA?9?$AAN?$AAO@ 000000018004dce0     libucrt:lcidtoname_downlevel.obj
 0002:00007cf0       ??_C@_1M@HFFAHKAD@?$AAp?$AAt?$AA?9?$AAP?$AAT@ 000000018004dcf0     libucrt:lcidtoname_downlevel.obj
 0002:00007d00       ??_C@_1BG@LNOAKHIE@?$AAs?$AAr?$AA?9?$AAS?$AAP?$AA?9?$AAL?$AAa?$AAt?$AAn@ 000000018004dd00     libucrt:lcidtoname_downlevel.obj
 0002:00007d18       ??_C@_1M@HBMHBGAK@?$AAs?$AAv?$AA?9?$AAF?$AAI@ 000000018004dd18     libucrt:lcidtoname_downlevel.obj
 0002:00007d28       ??_C@_1BG@DGCJGJBE@?$AAa?$AAz?$AA?9?$AAA?$AAZ?$AA?9?$AAC?$AAy?$AAr?$AAl@ 000000018004dd28     libucrt:lcidtoname_downlevel.obj
 0002:00007d40       ??_C@_1M@KEJDAAHB@?$AAs?$AAe?$AA?9?$AAS?$AAE@ 000000018004dd40     libucrt:lcidtoname_downlevel.obj
 0002:00007d50       ??_C@_1M@HEIBJJAD@?$AAm?$AAs?$AA?9?$AAB?$AAN@ 000000018004dd50     libucrt:lcidtoname_downlevel.obj
 0002:00007d60       ??_C@_1BG@PBGJMCEM@?$AAu?$AAz?$AA?9?$AAU?$AAZ?$AA?9?$AAC?$AAy?$AAr?$AAl@ 000000018004dd60     libucrt:lcidtoname_downlevel.obj
 0002:00007d78       ??_C@_1O@LAOBCMDF@?$AAq?$AAu?$AAz?$AA?9?$AAE?$AAC@ 000000018004dd78     libucrt:lcidtoname_downlevel.obj
 0002:00007d88       ??_C@_1M@POEEMAIO@?$AAa?$AAr?$AA?9?$AAE?$AAG@ 000000018004dd88     libucrt:lcidtoname_downlevel.obj
 0002:00007d98       ??_C@_1M@EFAKDEDL@?$AAz?$AAh?$AA?9?$AAH?$AAK@ 000000018004dd98     libucrt:lcidtoname_downlevel.obj
 0002:00007da8       ??_C@_1M@HKKIJHGI@?$AAd?$AAe?$AA?9?$AAA?$AAT@ 000000018004dda8     libucrt:lcidtoname_downlevel.obj
 0002:00007db8       ??_C@_1M@KBFBEHJF@?$AAe?$AAn?$AA?9?$AAA?$AAU@ 000000018004ddb8     libucrt:lcidtoname_downlevel.obj
 0002:00007dc8       ??_C@_1M@MNPLFAAH@?$AAe?$AAs?$AA?9?$AAE?$AAS@ 000000018004ddc8     libucrt:lcidtoname_downlevel.obj
 0002:00007dd8       ??_C@_1M@HJOOJFMA@?$AAf?$AAr?$AA?9?$AAC?$AAA@ 000000018004ddd8     libucrt:lcidtoname_downlevel.obj
 0002:00007de8       ??_C@_1BG@JPOFPNAB@?$AAs?$AAr?$AA?9?$AAS?$AAP?$AA?9?$AAC?$AAy?$AAr?$AAl@ 000000018004dde8     libucrt:lcidtoname_downlevel.obj
 0002:00007e00       ??_C@_1M@LNFOCMOB@?$AAs?$AAe?$AA?9?$AAF?$AAI@ 000000018004de00     libucrt:lcidtoname_downlevel.obj
 0002:00007e10       ??_C@_1O@MGJBOAMB@?$AAq?$AAu?$AAz?$AA?9?$AAP?$AAE@ 000000018004de10     libucrt:lcidtoname_downlevel.obj
 0002:00007e20       ??_C@_1M@GJINLBOK@?$AAa?$AAr?$AA?9?$AAL?$AAY@ 000000018004de20     libucrt:lcidtoname_downlevel.obj
 0002:00007e30       ??_C@_1M@GGMNHJNL@?$AAz?$AAh?$AA?9?$AAS?$AAG@ 000000018004de30     libucrt:lcidtoname_downlevel.obj
 0002:00007e40       ??_C@_1M@HOIKODND@?$AAd?$AAe?$AA?9?$AAL?$AAU@ 000000018004de40     libucrt:lcidtoname_downlevel.obj
 0002:00007e50       ??_C@_1M@DDOCCGFG@?$AAe?$AAn?$AA?9?$AAC?$AAA@ 000000018004de50     libucrt:lcidtoname_downlevel.obj
 0002:00007e60       ??_C@_1M@BNOEMJLF@?$AAe?$AAs?$AA?9?$AAG?$AAT@ 000000018004de60     libucrt:lcidtoname_downlevel.obj
 0002:00007e70       ??_C@_1M@EOGNKEK@?$AAf?$AAr?$AA?9?$AAC?$AAH@ 000000018004de70     libucrt:lcidtoname_downlevel.obj
 0002:00007e80       ??_C@_1M@FLIDJFHL@?$AAh?$AAr?$AA?9?$AAB?$AAA@ 000000018004de80     libucrt:lcidtoname_downlevel.obj
 0002:00007e90       ??_C@_1O@FMCELNAJ@?$AAs?$AAm?$AAj?$AA?9?$AAN?$AAO@ 000000018004de90     libucrt:lcidtoname_downlevel.obj
 0002:00007ea0       ??_C@_1M@JHGLJMGJ@?$AAa?$AAr?$AA?9?$AAD?$AAZ@ 000000018004dea0     libucrt:lcidtoname_downlevel.obj
 0002:00007eb0       ??_C@_1M@JKKFDCNP@?$AAz?$AAh?$AA?9?$AAM?$AAO@ 000000018004deb0     libucrt:lcidtoname_downlevel.obj
 0002:00007ec0       ??_C@_1M@GEEFALPE@?$AAd?$AAe?$AA?9?$AAL?$AAI@ 000000018004dec0     libucrt:lcidtoname_downlevel.obj
 0002:00007ed0       ??_C@_1M@IGEOFBG@?$AAe?$AAn?$AA?9?$AAN?$AAZ@ 000000018004ded0     libucrt:lcidtoname_downlevel.obj
 0002:00007ee0       ??_C@_1M@KDBONEHP@?$AAe?$AAs?$AA?9?$AAC?$AAR@ 000000018004dee0     libucrt:lcidtoname_downlevel.obj
 0002:00007ef0       ??_C@_1M@FHMDOHNN@?$AAf?$AAr?$AA?9?$AAL?$AAU@ 000000018004def0     libucrt:lcidtoname_downlevel.obj
 0002:00007f00       ??_C@_1BG@NFKKMAFG@?$AAb?$AAs?$AA?9?$AAB?$AAA?$AA?9?$AAL?$AAa?$AAt?$AAn@ 000000018004df00     libucrt:lcidtoname_downlevel.obj
 0002:00007f18       ??_C@_1O@IMNBEMCI@?$AAs?$AAm?$AAj?$AA?9?$AAS?$AAE@ 000000018004df18     libucrt:lcidtoname_downlevel.obj
 0002:00007f28       ??_C@_1M@DHHMBNDP@?$AAa?$AAr?$AA?9?$AAM?$AAA@ 000000018004df28     libucrt:lcidtoname_downlevel.obj
 0002:00007f38       ??_C@_1M@BNBLJCGH@?$AAe?$AAn?$AA?9?$AAI?$AAE@ 000000018004df38     libucrt:lcidtoname_downlevel.obj
 0002:00007f48       ??_C@_1M@GEPAFMDL@?$AAe?$AAs?$AA?9?$AAP?$AAA@ 000000018004df48     libucrt:lcidtoname_downlevel.obj
 0002:00007f58       ??_C@_1M@OJONDMDL@?$AAf?$AAr?$AA?9?$AAM?$AAC@ 000000018004df58     libucrt:lcidtoname_downlevel.obj
 0002:00007f68       ??_C@_1BG@OBCNFJB@?$AAs?$AAr?$AA?9?$AAB?$AAA?$AA?9?$AAL?$AAa?$AAt?$AAn@ 000000018004df68     libucrt:lcidtoname_downlevel.obj
 0002:00007f80       ??_C@_1O@KEMEEGPO@?$AAs?$AAm?$AAa?$AA?9?$AAN?$AAO@ 000000018004df80     libucrt:lcidtoname_downlevel.obj
 0002:00007f90       ??_C@_1M@ELMGFODK@?$AAa?$AAr?$AA?9?$AAT?$AAN@ 000000018004df90     libucrt:lcidtoname_downlevel.obj
 0002:00007fa0       ??_C@_1M@BHDLHFAF@?$AAe?$AAn?$AA?9?$AAZ?$AAA@ 000000018004dfa0     libucrt:lcidtoname_downlevel.obj
 0002:00007fb0       ??_C@_1M@BMGIGLIF@?$AAe?$AAs?$AA?9?$AAD?$AAO@ 000000018004dfb0     libucrt:lcidtoname_downlevel.obj
 0002:00007fc0       ??_C@_1BG@CMBHIPBE@?$AAs?$AAr?$AA?9?$AAB?$AAA?$AA?9?$AAC?$AAy?$AAr?$AAl@ 000000018004dfc0     libucrt:lcidtoname_downlevel.obj
 0002:00007fd8       ??_C@_1O@HEDBLHNP@?$AAs?$AAm?$AAa?$AA?9?$AAS?$AAE@ 000000018004dfd8     libucrt:lcidtoname_downlevel.obj
 0002:00007fe8       ??_C@_1M@DAGCADIM@?$AAa?$AAr?$AA?9?$AAO?$AAM@ 000000018004dfe8     libucrt:lcidtoname_downlevel.obj
 0002:00007ff8       ??_C@_1M@FODLMICG@?$AAe?$AAn?$AA?9?$AAJ?$AAM@ 000000018004dff8     libucrt:lcidtoname_downlevel.obj
 0002:00008008       ??_C@_1M@DNMLCIHB@?$AAe?$AAs?$AA?9?$AAV?$AAE@ 000000018004e008     libucrt:lcidtoname_downlevel.obj
 0002:00008018       ??_C@_1O@EOKHMKJK@?$AAs?$AAm?$AAs?$AA?9?$AAF?$AAI@ 000000018004e018     libucrt:lcidtoname_downlevel.obj
 0002:00008028       ??_C@_1M@CAFJMKOF@?$AAa?$AAr?$AA?9?$AAY?$AAE@ 000000018004e028     libucrt:lcidtoname_downlevel.obj
 0002:00008038       ??_C@_1M@CBFHIJLI@?$AAe?$AAn?$AA?9?$AAC?$AAB@ 000000018004e038     libucrt:lcidtoname_downlevel.obj
 0002:00008048       ??_C@_1M@BGNFLDN@?$AAe?$AAs?$AA?9?$AAC?$AAO@ 000000018004e048     libucrt:lcidtoname_downlevel.obj
 0002:00008058       ??_C@_1O@JMPHMAMC@?$AAs?$AAm?$AAn?$AA?9?$AAF?$AAI@ 000000018004e058     libucrt:lcidtoname_downlevel.obj
 0002:00008068       ??_C@_1M@JLANABKE@?$AAa?$AAr?$AA?9?$AAS?$AAY@ 000000018004e068     libucrt:lcidtoname_downlevel.obj
 0002:00008078       ??_C@_1M@HPKGCFGN@?$AAe?$AAn?$AA?9?$AAB?$AAZ@ 000000018004e078     libucrt:lcidtoname_downlevel.obj
 0002:00008088       ??_C@_1M@OLJCMLGM@?$AAe?$AAs?$AA?9?$AAP?$AAE@ 000000018004e088     libucrt:lcidtoname_downlevel.obj
 0002:00008098       ??_C@_1M@MKKGFKLE@?$AAa?$AAr?$AA?9?$AAJ?$AAO@ 000000018004e098     libucrt:lcidtoname_downlevel.obj
 0002:000080a8       ??_C@_1M@EKPGLDNI@?$AAe?$AAn?$AA?9?$AAT?$AAT@ 000000018004e0a8     libucrt:lcidtoname_downlevel.obj
 0002:000080b8       ??_C@_1M@OONGHFHE@?$AAe?$AAs?$AA?9?$AAA?$AAR@ 000000018004e0b8     libucrt:lcidtoname_downlevel.obj
 0002:000080c8       ??_C@_1M@OOJFGBHE@?$AAa?$AAr?$AA?9?$AAL?$AAB@ 000000018004e0c8     libucrt:lcidtoname_downlevel.obj
 0002:000080d8       ??_C@_1M@GCEJHNEG@?$AAe?$AAn?$AA?9?$AAZ?$AAW@ 000000018004e0d8     libucrt:lcidtoname_downlevel.obj
 0002:000080e8       ??_C@_1M@JNOCAHJI@?$AAe?$AAs?$AA?9?$AAE?$AAC@ 000000018004e0e8     libucrt:lcidtoname_downlevel.obj
 0002:000080f8       ??_C@_1M@JEFHPGGB@?$AAa?$AAr?$AA?9?$AAK?$AAW@ 000000018004e0f8     libucrt:lcidtoname_downlevel.obj
 0002:00008108       ??_C@_1M@MLKIBJOJ@?$AAe?$AAn?$AA?9?$AAP?$AAH@ 000000018004e108     libucrt:lcidtoname_downlevel.obj
 0002:00008118       ??_C@_1M@BDNIPEND@?$AAe?$AAs?$AA?9?$AAC?$AAL@ 000000018004e118     libucrt:lcidtoname_downlevel.obj
 0002:00008128       ??_C@_1M@MPNMEKBD@?$AAa?$AAr?$AA?9?$AAA?$AAE@ 000000018004e128     libucrt:lcidtoname_downlevel.obj
 0002:00008138       ??_C@_1M@KBJALCPI@?$AAe?$AAs?$AA?9?$AAU?$AAY@ 000000018004e138     libucrt:lcidtoname_downlevel.obj
 0002:00008148       ??_C@_1M@LLCCOAGA@?$AAa?$AAr?$AA?9?$AAB?$AAH@ 000000018004e148     libucrt:lcidtoname_downlevel.obj
 0002:00008158       ??_C@_1M@PBFNCDEL@?$AAe?$AAs?$AA?9?$AAP?$AAY@ 000000018004e158     libucrt:lcidtoname_downlevel.obj
 0002:00008168       ??_C@_1M@EDGINPNP@?$AAa?$AAr?$AA?9?$AAQ?$AAA@ 000000018004e168     libucrt:lcidtoname_downlevel.obj
 0002:00008178       ??_C@_1M@MKDBIIJI@?$AAe?$AAs?$AA?9?$AAB?$AAO@ 000000018004e178     libucrt:lcidtoname_downlevel.obj
 0002:00008188       ??_C@_1M@CPKKEBLD@?$AAe?$AAs?$AA?9?$AAS?$AAV@ 000000018004e188     libucrt:lcidtoname_downlevel.obj
 0002:00008198       ??_C@_1M@NDBGMMJL@?$AAe?$AAs?$AA?9?$AAH?$AAN@ 000000018004e198     libucrt:lcidtoname_downlevel.obj
 0002:000081a8       ??_C@_1M@JIJIBHDP@?$AAe?$AAs?$AA?9?$AAN?$AAI@ 000000018004e1a8     libucrt:lcidtoname_downlevel.obj
 0002:000081b8       ??_C@_1M@CGFMKEEK@?$AAe?$AAs?$AA?9?$AAP?$AAR@ 000000018004e1b8     libucrt:lcidtoname_downlevel.obj
 0002:000081c8       ??_C@_1O@ICJHKIIK@?$AAz?$AAh?$AA?9?$AAC?$AAH?$AAT@ 000000018004e1c8     libucrt:lcidtoname_downlevel.obj
 0002:000081d8       ??_C@_15CLNEJCE@?$AAs?$AAr@ 000000018004e1d8     libucrt:lcidtoname_downlevel.obj
 0002:00009020       ??_C@_1M@KAHEKEIG@?$AAa?$AAf?$AA?9?$AAz?$AAa@ 000000018004f020     libucrt:lcidtoname_downlevel.obj
 0002:00009030       ??_C@_1M@GIECOABL@?$AAa?$AAr?$AA?9?$AAa?$AAe@ 000000018004f030     libucrt:lcidtoname_downlevel.obj
 0002:00009040       ??_C@_1M@BMLMEKGI@?$AAa?$AAr?$AA?9?$AAb?$AAh@ 000000018004f040     libucrt:lcidtoname_downlevel.obj
 0002:00009050       ??_C@_1M@DAPFDGGB@?$AAa?$AAr?$AA?9?$AAd?$AAz@ 000000018004f050     libucrt:lcidtoname_downlevel.obj
 0002:00009060       ??_C@_1M@FJNKGKIG@?$AAa?$AAr?$AA?9?$AAe?$AAg@ 000000018004f060     libucrt:lcidtoname_downlevel.obj
 0002:00009070       ??_C@_1M@FLGKKCLO@?$AAa?$AAr?$AA?9?$AAi?$AAq@ 000000018004f070     libucrt:lcidtoname_downlevel.obj
 0002:00009080       ??_C@_1M@GNDIPALM@?$AAa?$AAr?$AA?9?$AAj?$AAo@ 000000018004f080     libucrt:lcidtoname_downlevel.obj
 0002:00009090       ??_C@_1M@DDMJFMGJ@?$AAa?$AAr?$AA?9?$AAk?$AAw@ 000000018004f090     libucrt:lcidtoname_downlevel.obj
 0002:000090a0       ??_C@_1M@EJALMLHM@?$AAa?$AAr?$AA?9?$AAl?$AAb@ 000000018004f0a0     libucrt:lcidtoname_downlevel.obj
 0002:000090b0       ??_C@_1M@MOBDBLOC@?$AAa?$AAr?$AA?9?$AAl?$AAy@ 000000018004f0b0     libucrt:lcidtoname_downlevel.obj
 0002:000090c0       ??_C@_1M@JAOCLHDH@?$AAa?$AAr?$AA?9?$AAm?$AAa@ 000000018004f0c0     libucrt:lcidtoname_downlevel.obj
 0002:000090d0       ??_C@_1M@JHPMKJIE@?$AAa?$AAr?$AA?9?$AAo?$AAm@ 000000018004f0d0     libucrt:lcidtoname_downlevel.obj
 0002:000090e0       ??_C@_1M@OEPGHFNH@?$AAa?$AAr?$AA?9?$AAq?$AAa@ 000000018004f0e0     libucrt:lcidtoname_downlevel.obj
 0002:000090f0       ??_C@_1M@KJDONENM@?$AAa?$AAr?$AA?9?$AAs?$AAa@ 000000018004f0f0     libucrt:lcidtoname_downlevel.obj
 0002:00009100       ??_C@_1M@DMJDKLKM@?$AAa?$AAr?$AA?9?$AAs?$AAy@ 000000018004f100     libucrt:lcidtoname_downlevel.obj
 0002:00009110       ??_C@_1M@OMFIPEDC@?$AAa?$AAr?$AA?9?$AAt?$AAn@ 000000018004f110     libucrt:lcidtoname_downlevel.obj
 0002:00009120       ??_C@_1M@IHMHGAON@?$AAa?$AAr?$AA?9?$AAy?$AAe@ 000000018004f120     libucrt:lcidtoname_downlevel.obj
 0002:00009130       ??_C@_1BG@KDCPGJGB@?$AAa?$AAz?$AA?9?$AAa?$AAz?$AA?9?$AAc?$AAy?$AAr?$AAl@ 000000018004f130     libucrt:lcidtoname_downlevel.obj
 0002:00009148       ??_C@_1BG@IBCKDDOE@?$AAa?$AAz?$AA?9?$AAa?$AAz?$AA?9?$AAl?$AAa?$AAt?$AAn@ 000000018004f148     libucrt:lcidtoname_downlevel.obj
 0002:00009160       ??_C@_1M@EGPFDCPD@?$AAb?$AAe?$AA?9?$AAb?$AAy@ 000000018004f160     libucrt:lcidtoname_downlevel.obj
 0002:00009170       ??_C@_1M@PCMGMCGC@?$AAb?$AAg?$AA?9?$AAb?$AAg@ 000000018004f170     libucrt:lcidtoname_downlevel.obj
 0002:00009180       ??_C@_1M@BJBMFGOB@?$AAb?$AAn?$AA?9?$AAi?$AAn@ 000000018004f180     libucrt:lcidtoname_downlevel.obj
 0002:00009190       ??_C@_1BG@EAKMMACD@?$AAb?$AAs?$AA?9?$AAb?$AAa?$AA?9?$AAl?$AAa?$AAt?$AAn@ 000000018004f190     libucrt:lcidtoname_downlevel.obj
 0002:000091a8       ??_C@_1M@KGADAODK@?$AAc?$AAa?$AA?9?$AAe?$AAs@ 000000018004f1a8     libucrt:lcidtoname_downlevel.obj
 0002:000091b8       ??_C@_1M@COAJPDHI@?$AAc?$AAs?$AA?9?$AAc?$AAz@ 000000018004f1b8     libucrt:lcidtoname_downlevel.obj
 0002:000091c8       ??_C@_1M@DHBHFONH@?$AAc?$AAy?$AA?9?$AAg?$AAb@ 000000018004f1c8     libucrt:lcidtoname_downlevel.obj
 0002:000091d8       ??_C@_1M@IMGKELGA@?$AAd?$AAa?$AA?9?$AAd?$AAk@ 000000018004f1d8     libucrt:lcidtoname_downlevel.obj
 0002:000091e8       ??_C@_1M@NNDGDNGA@?$AAd?$AAe?$AA?9?$AAa?$AAt@ 000000018004f1e8     libucrt:lcidtoname_downlevel.obj
 0002:000091f8       ??_C@_1M@IKDBHEEM@?$AAd?$AAe?$AA?9?$AAc?$AAh@ 000000018004f1f8     libucrt:lcidtoname_downlevel.obj
 0002:00009208       ??_C@_1M@GFFOJMCJ@?$AAd?$AAe?$AA?9?$AAd?$AAe@ 000000018004f208     libucrt:lcidtoname_downlevel.obj
 0002:00009218       ??_C@_1M@MDNLKBPM@?$AAd?$AAe?$AA?9?$AAl?$AAi@ 000000018004f218     libucrt:lcidtoname_downlevel.obj
 0002:00009228       ??_C@_1M@NJBEEJNL@?$AAd?$AAe?$AA?9?$AAl?$AAu@ 000000018004f228     libucrt:lcidtoname_downlevel.obj
 0002:00009238       ??_C@_1O@GNNELBAP@?$AAd?$AAi?$AAv?$AA?9?$AAm?$AAv@ 000000018004f238     libucrt:lcidtoname_downlevel.obj
 0002:00009248       ??_C@_1M@EJLEOGAE@?$AAe?$AAl?$AA?9?$AAg?$AAr@ 000000018004f248     libucrt:lcidtoname_downlevel.obj
 0002:00009258       ??_C@_1M@GMPONJN@?$AAe?$AAn?$AA?9?$AAa?$AAu@ 000000018004f258     libucrt:lcidtoname_downlevel.obj
 0002:00009268       ??_C@_1M@NIDIIPGF@?$AAe?$AAn?$AA?9?$AAb?$AAz@ 000000018004f268     libucrt:lcidtoname_downlevel.obj
 0002:00009278       ??_C@_1M@JEHMIMFO@?$AAe?$AAn?$AA?9?$AAc?$AAa@ 000000018004f278     libucrt:lcidtoname_downlevel.obj
 0002:00009288       ??_C@_1M@IGMJCDLA@?$AAe?$AAn?$AA?9?$AAc?$AAb@ 000000018004f288     libucrt:lcidtoname_downlevel.obj
 0002:00009298       ??_C@_1M@BNFIGBKG@?$AAe?$AAn?$AA?9?$AAg?$AAb@ 000000018004f298     libucrt:lcidtoname_downlevel.obj
 0002:000092a8       ??_C@_1M@LKIFDIGP@?$AAe?$AAn?$AA?9?$AAi?$AAe@ 000000018004f2a8     libucrt:lcidtoname_downlevel.obj
 0002:000092b8       ??_C@_1M@PJKFGCCO@?$AAe?$AAn?$AA?9?$AAj?$AAm@ 000000018004f2b8     libucrt:lcidtoname_downlevel.obj
 0002:000092c8       ??_C@_1M@KPPKEPBO@?$AAe?$AAn?$AA?9?$AAn?$AAz@ 000000018004f2c8     libucrt:lcidtoname_downlevel.obj
 0002:000092d8       ??_C@_1M@GMDGLDOB@?$AAe?$AAn?$AA?9?$AAp?$AAh@ 000000018004f2d8     libucrt:lcidtoname_downlevel.obj
 0002:000092e8       ??_C@_1M@ONGIBJNA@?$AAe?$AAn?$AA?9?$AAt?$AAt@ 000000018004f2e8     libucrt:lcidtoname_downlevel.obj
 0002:000092f8       ??_C@_1M@LLODPCMM@?$AAe?$AAn?$AA?9?$AAu?$AAs@ 000000018004f2f8     libucrt:lcidtoname_downlevel.obj
 0002:00009308       ??_C@_1M@LAKFNPAN@?$AAe?$AAn?$AA?9?$AAz?$AAa@ 000000018004f308     libucrt:lcidtoname_downlevel.obj
 0002:00009318       ??_C@_1M@MFNHNHEO@?$AAe?$AAn?$AA?9?$AAz?$AAw@ 000000018004f318     libucrt:lcidtoname_downlevel.obj
 0002:00009328       ??_C@_1M@EJEINPHM@?$AAe?$AAs?$AA?9?$AAa?$AAr@ 000000018004f328     libucrt:lcidtoname_downlevel.obj
 0002:00009338       ??_C@_1M@GNKPCCJA@?$AAe?$AAs?$AA?9?$AAb?$AAo@ 000000018004f338     libucrt:lcidtoname_downlevel.obj
 0002:00009348       ??_C@_1M@LEEGFONL@?$AAe?$AAs?$AA?9?$AAc?$AAl@ 000000018004f348     libucrt:lcidtoname_downlevel.obj
 0002:00009358       ??_C@_1M@KGPDPBDF@?$AAe?$AAs?$AA?9?$AAc?$AAo@ 000000018004f358     libucrt:lcidtoname_downlevel.obj
 0002:00009368       ??_C@_1M@EIAHOHH@?$AAe?$AAs?$AA?9?$AAc?$AAr@ 000000018004f368     libucrt:lcidtoname_downlevel.obj
 0002:00009378       ??_C@_1M@LLPGMBIN@?$AAe?$AAs?$AA?9?$AAd?$AAo@ 000000018004f378     libucrt:lcidtoname_downlevel.obj
 0002:00009388       ??_C@_1M@DKHMKNJA@?$AAe?$AAs?$AA?9?$AAe?$AAc@ 000000018004f388     libucrt:lcidtoname_downlevel.obj
 0002:00009398       ??_C@_1M@GKGFPKAP@?$AAe?$AAs?$AA?9?$AAe?$AAs@ 000000018004f398     libucrt:lcidtoname_downlevel.obj
 0002:000093a8       ??_C@_1M@LKHKGDLN@?$AAe?$AAs?$AA?9?$AAg?$AAt@ 000000018004f3a8     libucrt:lcidtoname_downlevel.obj
 0002:000093b8       ??_C@_1M@HEIIGGJD@?$AAe?$AAs?$AA?9?$AAh?$AAn@ 000000018004f3b8     libucrt:lcidtoname_downlevel.obj
 0002:000093c8       ??_C@_1M@FBDHPPGD@?$AAe?$AAs?$AA?9?$AAm?$AAx@ 000000018004f3c8     libucrt:lcidtoname_downlevel.obj
 0002:000093d8       ??_C@_1M@DPAGLNDH@?$AAe?$AAs?$AA?9?$AAn?$AAi@ 000000018004f3d8     libucrt:lcidtoname_downlevel.obj
 0002:000093e8       ??_C@_1M@MDGOPGDD@?$AAe?$AAs?$AA?9?$AAp?$AAa@ 000000018004f3e8     libucrt:lcidtoname_downlevel.obj
 0002:000093f8       ??_C@_1M@EMAMGBGE@?$AAe?$AAs?$AA?9?$AAp?$AAe@ 000000018004f3f8     libucrt:lcidtoname_downlevel.obj
 0002:00009408       ??_C@_1M@IBMCAOEC@?$AAe?$AAs?$AA?9?$AAp?$AAr@ 000000018004f408     libucrt:lcidtoname_downlevel.obj
 0002:00009418       ??_C@_1M@FGMDIJED@?$AAe?$AAs?$AA?9?$AAp?$AAy@ 000000018004f418     libucrt:lcidtoname_downlevel.obj
 0002:00009428       ??_C@_1M@IIDEOLLL@?$AAe?$AAs?$AA?9?$AAs?$AAv@ 000000018004f428     libucrt:lcidtoname_downlevel.obj
 0002:00009438       ??_C@_1M@GAOBIPA@?$AAe?$AAs?$AA?9?$AAu?$AAy@ 000000018004f438     libucrt:lcidtoname_downlevel.obj
 0002:00009448       ??_C@_1M@JKFFICHJ@?$AAe?$AAs?$AA?9?$AAv?$AAe@ 000000018004f448     libucrt:lcidtoname_downlevel.obj
 0002:00009458       ??_C@_1M@PNMLOJDF@?$AAe?$AAt?$AA?9?$AAe?$AAe@ 000000018004f458     libucrt:lcidtoname_downlevel.obj
 0002:00009468       ??_C@_1M@GHHLIKEI@?$AAe?$AAu?$AA?9?$AAe?$AAs@ 000000018004f468     libucrt:lcidtoname_downlevel.obj
 0002:00009478       ??_C@_1M@PBNONODE@?$AAf?$AAa?$AA?9?$AAi?$AAr@ 000000018004f478     libucrt:lcidtoname_downlevel.obj
 0002:00009488       ??_C@_1M@JEEHPMIL@?$AAf?$AAi?$AA?9?$AAf?$AAi@ 000000018004f488     libucrt:lcidtoname_downlevel.obj
 0002:00009498       ??_C@_1M@LMDCNDBA@?$AAf?$AAo?$AA?9?$AAf?$AAo@ 000000018004f498     libucrt:lcidtoname_downlevel.obj
 0002:000094a8       ??_C@_1M@JKEOHLDK@?$AAf?$AAr?$AA?9?$AAb?$AAe@ 000000018004f4a8     libucrt:lcidtoname_downlevel.obj
 0002:000094b8       ??_C@_1M@NOHADPMI@?$AAf?$AAr?$AA?9?$AAc?$AAa@ 000000018004f4b8     libucrt:lcidtoname_downlevel.obj
 0002:000094c8       ??_C@_1M@KDHIHAEC@?$AAf?$AAr?$AA?9?$AAc?$AAh@ 000000018004f4c8     libucrt:lcidtoname_downlevel.obj
 0002:000094d8       ??_C@_1M@MMBBFGAK@?$AAf?$AAr?$AA?9?$AAf?$AAr@ 000000018004f4d8     libucrt:lcidtoname_downlevel.obj
 0002:000094e8       ??_C@_1M@PAFNENNF@?$AAf?$AAr?$AA?9?$AAl?$AAu@ 000000018004f4e8     libucrt:lcidtoname_downlevel.obj
 0002:000094f8       ??_C@_1M@EOHDJGDD@?$AAf?$AAr?$AA?9?$AAm?$AAc@ 000000018004f4f8     libucrt:lcidtoname_downlevel.obj
 0002:00009508       ??_C@_1M@FAPLLOPF@?$AAg?$AAl?$AA?9?$AAe?$AAs@ 000000018004f508     libucrt:lcidtoname_downlevel.obj
 0002:00009518       ??_C@_1M@FOPBFLOO@?$AAg?$AAu?$AA?9?$AAi?$AAn@ 000000018004f518     libucrt:lcidtoname_downlevel.obj
 0002:00009528       ??_C@_1M@KBMCINPM@?$AAh?$AAe?$AA?9?$AAi?$AAl@ 000000018004f528     libucrt:lcidtoname_downlevel.obj
 0002:00009538       ??_C@_1M@BBPHKFPJ@?$AAh?$AAi?$AA?9?$AAi?$AAn@ 000000018004f538     libucrt:lcidtoname_downlevel.obj
 0002:00009548       ??_C@_1M@PMBNDPHD@?$AAh?$AAr?$AA?9?$AAb?$AAa@ 000000018004f548     libucrt:lcidtoname_downlevel.obj
 0002:00009558       ??_C@_1M@BPCKOEGE@?$AAh?$AAr?$AA?9?$AAh?$AAr@ 000000018004f558     libucrt:lcidtoname_downlevel.obj
 0002:00009568       ??_C@_1M@GACBMHKE@?$AAh?$AAu?$AA?9?$AAh?$AAu@ 000000018004f568     libucrt:lcidtoname_downlevel.obj
 0002:00009578       ??_C@_1M@MILPAJJC@?$AAh?$AAy?$AA?9?$AAa?$AAm@ 000000018004f578     libucrt:lcidtoname_downlevel.obj
 0002:00009588       ??_C@_1M@BABBICEC@?$AAi?$AAd?$AA?9?$AAi?$AAd@ 000000018004f588     libucrt:lcidtoname_downlevel.obj
 0002:00009598       ??_C@_1M@BIKNHHPF@?$AAi?$AAs?$AA?9?$AAi?$AAs@ 000000018004f598     libucrt:lcidtoname_downlevel.obj
 0002:000095a8       ??_C@_1M@NMPCJPHE@?$AAi?$AAt?$AA?9?$AAc?$AAh@ 000000018004f5a8     libucrt:lcidtoname_downlevel.obj
 0002:000095b8       ??_C@_1M@GHKGFEDF@?$AAi?$AAt?$AA?9?$AAi?$AAt@ 000000018004f5b8     libucrt:lcidtoname_downlevel.obj
 0002:000095c8       ??_C@_1M@NIEJCJJA@?$AAj?$AAa?$AA?9?$AAj?$AAp@ 000000018004f5c8     libucrt:lcidtoname_downlevel.obj
 0002:000095d8       ??_C@_1M@JILFNBIM@?$AAk?$AAa?$AA?9?$AAg?$AAe@ 000000018004f5d8     libucrt:lcidtoname_downlevel.obj
 0002:000095e8       ??_C@_1M@PACPMGPH@?$AAk?$AAk?$AA?9?$AAk?$AAz@ 000000018004f5e8     libucrt:lcidtoname_downlevel.obj
 0002:000095f8       ??_C@_1M@IELFGMHA@?$AAk?$AAn?$AA?9?$AAi?$AAn@ 000000018004f5f8     libucrt:lcidtoname_downlevel.obj
 0002:00009608       ??_C@_1O@IBBJHCH@?$AAk?$AAo?$AAk?$AA?9?$AAi?$AAn@ 000000018004f608     libucrt:lcidtoname_downlevel.obj
 0002:00009618       ??_C@_1M@DMHAEOGC@?$AAk?$AAo?$AA?9?$AAk?$AAr@ 000000018004f618     libucrt:lcidtoname_downlevel.obj
 0002:00009628       ??_C@_1M@HBAHBIGA@?$AAk?$AAy?$AA?9?$AAk?$AAg@ 000000018004f628     libucrt:lcidtoname_downlevel.obj
 0002:00009638       ??_C@_1M@KPMILCJG@?$AAl?$AAt?$AA?9?$AAl?$AAt@ 000000018004f638     libucrt:lcidtoname_downlevel.obj
 0002:00009648       ??_C@_1M@BDEKKCA@?$AAl?$AAv?$AA?9?$AAl?$AAv@ 000000018004f648     libucrt:lcidtoname_downlevel.obj
 0002:00009658       ??_C@_1M@ELCKCCJJ@?$AAm?$AAi?$AA?9?$AAn?$AAz@ 000000018004f658     libucrt:lcidtoname_downlevel.obj
 0002:00009668       ??_C@_1M@CBOOLAPA@?$AAm?$AAk?$AA?9?$AAm?$AAk@ 000000018004f668     libucrt:lcidtoname_downlevel.obj
 0002:00009678       ??_C@_1M@GPHNBJKN@?$AAm?$AAl?$AA?9?$AAi?$AAn@ 000000018004f678     libucrt:lcidtoname_downlevel.obj
 0002:00009688       ??_C@_1M@PABJILIG@?$AAm?$AAn?$AA?9?$AAm?$AAn@ 000000018004f688     libucrt:lcidtoname_downlevel.obj
 0002:00009698       ??_C@_1M@FGBKKIPG@?$AAm?$AAr?$AA?9?$AAi?$AAn@ 000000018004f698     libucrt:lcidtoname_downlevel.obj
 0002:000096a8       ??_C@_1M@NDBPDDAL@?$AAm?$AAs?$AA?9?$AAb?$AAn@ 000000018004f6a8     libucrt:lcidtoname_downlevel.obj
 0002:000096b8       ??_C@_1M@OPIHOOPI@?$AAm?$AAs?$AA?9?$AAm?$AAy@ 000000018004f6b8     libucrt:lcidtoname_downlevel.obj
 0002:000096c8       ??_C@_1M@PPDBCNFM@?$AAm?$AAt?$AA?9?$AAm?$AAt@ 000000018004f6c8     libucrt:lcidtoname_downlevel.obj
 0002:000096d8       ??_C@_1M@KDJDKMDD@?$AAn?$AAb?$AA?9?$AAn?$AAo@ 000000018004f6d8     libucrt:lcidtoname_downlevel.obj
 0002:000096e8       ??_C@_1M@KFCFLMJP@?$AAn?$AAl?$AA?9?$AAb?$AAe@ 000000018004f6e8     libucrt:lcidtoname_downlevel.obj
 0002:000096f8       ??_C@_1M@KPOPDDGO@?$AAn?$AAl?$AA?9?$AAn?$AAl@ 000000018004f6f8     libucrt:lcidtoname_downlevel.obj
 0002:00009708       ??_C@_1M@LJKPEMLN@?$AAn?$AAn?$AA?9?$AAn?$AAo@ 000000018004f708     libucrt:lcidtoname_downlevel.obj
 0002:00009718       ??_C@_1M@BDGHHBFL@?$AAn?$AAs?$AA?9?$AAz?$AAa@ 000000018004f718     libucrt:lcidtoname_downlevel.obj
 0002:00009728       ??_C@_1M@IDEHOAP@?$AAp?$AAa?$AA?9?$AAi?$AAn@ 000000018004f728     libucrt:lcidtoname_downlevel.obj
 0002:00009738       ??_C@_1M@HDBKGOGH@?$AAp?$AAl?$AA?9?$AAp?$AAl@ 000000018004f738     libucrt:lcidtoname_downlevel.obj
 0002:00009748       ??_C@_1M@LJLLCMEH@?$AAp?$AAt?$AA?9?$AAb?$AAr@ 000000018004f748     libucrt:lcidtoname_downlevel.obj
 0002:00009758       ??_C@_1M@NCMONAAL@?$AAp?$AAt?$AA?9?$AAp?$AAt@ 000000018004f758     libucrt:lcidtoname_downlevel.obj
 0002:00009768       ??_C@_1O@EAKMAJDN@?$AAq?$AAu?$AAz?$AA?9?$AAb?$AAo@ 000000018004f768     libucrt:lcidtoname_downlevel.obj
 0002:00009778       ??_C@_1O@BHHPIGDN@?$AAq?$AAu?$AAz?$AA?9?$AAe?$AAc@ 000000018004f778     libucrt:lcidtoname_downlevel.obj
 0002:00009788       ??_C@_1O@GBAPEKMJ@?$AAq?$AAu?$AAz?$AA?9?$AAp?$AAe@ 000000018004f788     libucrt:lcidtoname_downlevel.obj
 0002:00009798       ??_C@_1M@CLGLEFBO@?$AAr?$AAo?$AA?9?$AAr?$AAo@ 000000018004f798     libucrt:lcidtoname_downlevel.obj
 0002:000097a8       ??_C@_1M@CEEDODME@?$AAr?$AAu?$AA?9?$AAr?$AAu@ 000000018004f7a8     libucrt:lcidtoname_downlevel.obj
 0002:000097b8       ??_C@_1M@HPKKKMPP@?$AAs?$AAa?$AA?9?$AAi?$AAn@ 000000018004f7b8     libucrt:lcidtoname_downlevel.obj
 0002:000097c8       ??_C@_1M@BKMAIGOJ@?$AAs?$AAe?$AA?9?$AAf?$AAi@ 000000018004f7c8     libucrt:lcidtoname_downlevel.obj
 0002:000097d8       ??_C@_1M@NDPIFLFI@?$AAs?$AAe?$AA?9?$AAn?$AAo@ 000000018004f7d8     libucrt:lcidtoname_downlevel.obj
 0002:000097e8       ??_C@_1M@DANKKHJ@?$AAs?$AAe?$AA?9?$AAs?$AAe@ 000000018004f7e8     libucrt:lcidtoname_downlevel.obj
 0002:000097f8       ??_C@_1M@PNBLONPJ@?$AAs?$AAk?$AA?9?$AAs?$AAk@ 000000018004f7f8     libucrt:lcidtoname_downlevel.obj
 0002:00009808       ??_C@_1M@LFMODOAL@?$AAs?$AAl?$AA?9?$AAs?$AAi@ 000000018004f808     libucrt:lcidtoname_downlevel.obj
 0002:00009818       ??_C@_1O@DFKOMPG@?$AAs?$AAm?$AAa?$AA?9?$AAn?$AAo@ 000000018004f818     libucrt:lcidtoname_downlevel.obj
 0002:00009828       ??_C@_1O@NDKPBNNH@?$AAs?$AAm?$AAa?$AA?9?$AAs?$AAe@ 000000018004f828     libucrt:lcidtoname_downlevel.obj
 0002:00009838       ??_C@_1O@PLLKBHAB@?$AAs?$AAm?$AAj?$AA?9?$AAn?$AAo@ 000000018004f838     libucrt:lcidtoname_downlevel.obj
 0002:00009848       ??_C@_1O@CLEPOGCA@?$AAs?$AAm?$AAj?$AA?9?$AAs?$AAe@ 000000018004f848     libucrt:lcidtoname_downlevel.obj
 0002:00009858       ??_C@_1O@DLGJGKMK@?$AAs?$AAm?$AAn?$AA?9?$AAf?$AAi@ 000000018004f858     libucrt:lcidtoname_downlevel.obj
 0002:00009868       ??_C@_1O@OJDJGAJC@?$AAs?$AAm?$AAs?$AA?9?$AAf?$AAi@ 000000018004f868     libucrt:lcidtoname_downlevel.obj
 0002:00009878       ??_C@_1M@BOFOGHPB@?$AAs?$AAq?$AA?9?$AAa?$AAl@ 000000018004f878     libucrt:lcidtoname_downlevel.obj
 0002:00009888       ??_C@_1BG@LJBBIPGB@?$AAs?$AAr?$AA?9?$AAb?$AAa?$AA?9?$AAc?$AAy?$AAr?$AAl@ 000000018004f888     libucrt:lcidtoname_downlevel.obj
 0002:000098a0       ??_C@_1BG@JLBENFOE@?$AAs?$AAr?$AA?9?$AAb?$AAa?$AA?9?$AAl?$AAa?$AAt?$AAn@ 000000018004f8a0     libucrt:lcidtoname_downlevel.obj
 0002:000098b8       ??_C@_1BG@KODPNHE@?$AAs?$AAr?$AA?9?$AAs?$AAp?$AA?9?$AAc?$AAy?$AAr?$AAl@ 000000018004f8b8     libucrt:lcidtoname_downlevel.obj
 0002:000098d0       ??_C@_1BG@CIOGKHPB@?$AAs?$AAr?$AA?9?$AAs?$AAp?$AA?9?$AAl?$AAa?$AAt?$AAn@ 000000018004f8d0     libucrt:lcidtoname_downlevel.obj
 0002:000098e8       ??_C@_1M@NGFJLMAC@?$AAs?$AAv?$AA?9?$AAf?$AAi@ 000000018004f8e8     libucrt:lcidtoname_downlevel.obj
 0002:000098f8       ??_C@_1M@MPJEJAJC@?$AAs?$AAv?$AA?9?$AAs?$AAe@ 000000018004f8f8     libucrt:lcidtoname_downlevel.obj
 0002:00009908       ??_C@_1M@MPNDHLFK@?$AAs?$AAw?$AA?9?$AAk?$AAe@ 000000018004f908     libucrt:lcidtoname_downlevel.obj
 0002:00009918       ??_C@_1O@KOHBJJI@?$AAs?$AAy?$AAr?$AA?9?$AAs?$AAy@ 000000018004f918     libucrt:lcidtoname_downlevel.obj
 0002:00009928       ??_C@_1M@LDCEFHA@?$AAt?$AAa?$AA?9?$AAi?$AAn@ 000000018004f928     libucrt:lcidtoname_downlevel.obj
 0002:00009938       ??_C@_1M@CNJOFAK@?$AAt?$AAe?$AA?9?$AAi?$AAn@ 000000018004f938     libucrt:lcidtoname_downlevel.obj
 0002:00009948       ??_C@_1M@GNAECACD@?$AAt?$AAh?$AA?9?$AAt?$AAh@ 000000018004f948     libucrt:lcidtoname_downlevel.obj
 0002:00009958       ??_C@_1M@CHBIHOJO@?$AAt?$AAn?$AA?9?$AAz?$AAa@ 000000018004f958     libucrt:lcidtoname_downlevel.obj
 0002:00009968       ??_C@_1M@GCCMIGPJ@?$AAt?$AAr?$AA?9?$AAt?$AAr@ 000000018004f968     libucrt:lcidtoname_downlevel.obj
 0002:00009978       ??_C@_1M@CELMCNBK@?$AAt?$AAt?$AA?9?$AAr?$AAu@ 000000018004f978     libucrt:lcidtoname_downlevel.obj
 0002:00009988       ??_C@_1M@KLMCELGA@?$AAu?$AAk?$AA?9?$AAu?$AAa@ 000000018004f988     libucrt:lcidtoname_downlevel.obj
 0002:00009998       ??_C@_1M@EPAJJAJF@?$AAu?$AAr?$AA?9?$AAp?$AAk@ 000000018004f998     libucrt:lcidtoname_downlevel.obj
 0002:000099a8       ??_C@_1BG@GEGPMCDJ@?$AAu?$AAz?$AA?9?$AAu?$AAz?$AA?9?$AAc?$AAy?$AAr?$AAl@ 000000018004f9a8     libucrt:lcidtoname_downlevel.obj
 0002:000099c0       ??_C@_1BG@EGGKJILM@?$AAu?$AAz?$AA?9?$AAu?$AAz?$AA?9?$AAl?$AAa?$AAt?$AAn@ 000000018004f9c0     libucrt:lcidtoname_downlevel.obj
 0002:000099d8       ??_C@_1M@GFOCLFF@?$AAv?$AAi?$AA?9?$AAv?$AAn@ 000000018004f9d8     libucrt:lcidtoname_downlevel.obj
 0002:000099e8       ??_C@_1M@CPAMEDFI@?$AAx?$AAh?$AA?9?$AAz?$AAa@ 000000018004f9e8     libucrt:lcidtoname_downlevel.obj
 0002:000099f8       ??_C@_1O@EBKIFIGN@?$AAz?$AAh?$AA?9?$AAc?$AAh?$AAs@ 000000018004f9f8     libucrt:lcidtoname_downlevel.obj
 0002:00009a08       ??_C@_1O@NMHPGANE@?$AAz?$AAh?$AA?9?$AAc?$AAh?$AAt@ 000000018004fa08     libucrt:lcidtoname_downlevel.obj
 0002:00009a18       ??_C@_1M@LPINJOMC@?$AAz?$AAh?$AA?9?$AAc?$AAn@ 000000018004fa18     libucrt:lcidtoname_downlevel.obj
 0002:00009a28       ??_C@_1M@OCJEJODD@?$AAz?$AAh?$AA?9?$AAh?$AAk@ 000000018004fa28     libucrt:lcidtoname_downlevel.obj
 0002:00009a38       ??_C@_1M@DNDLJINH@?$AAz?$AAh?$AA?9?$AAm?$AAo@ 000000018004fa38     libucrt:lcidtoname_downlevel.obj
 0002:00009a48       ??_C@_1M@MBFDNDND@?$AAz?$AAh?$AA?9?$AAs?$AAg@ 000000018004fa48     libucrt:lcidtoname_downlevel.obj
 0002:00009a58       ??_C@_1M@IMEPLEPE@?$AAz?$AAh?$AA?9?$AAt?$AAw@ 000000018004fa58     libucrt:lcidtoname_downlevel.obj
 0002:00009a68       ??_C@_1M@BBGHNHJP@?$AAz?$AAu?$AA?9?$AAz?$AAa@ 000000018004fa68     libucrt:lcidtoname_downlevel.obj
 0002:00009a80       ?large_power_data@?1??multiply_by_power_of_ten@__crt_strtox@@YA_NAEAUbig_integer@2@I@Z@4QBIB 000000018004fa80     libucrt:cfout.obj
 0002:0000a390       ?large_power_indices@?1??multiply_by_power_of_ten@__crt_strtox@@YA_NAEAUbig_integer@2@I@Z@4QBUunpack_index@?1??12@YA_N0I@Z@B 0000000180050390     libucrt:cfout.obj
 0002:0000a428       ?small_powers_of_ten@?1??multiply_by_power_of_ten@__crt_strtox@@YA_NAEAUbig_integer@2@I@Z@4QBIB 0000000180050428     libucrt:cfout.obj
 0002:0000a44c       ??_C@_01GBGANLPD@0@        000000018005044c     libucrt:cfout.obj
 0002:0000a450       ??_C@_05DNEBIAHO@1?$CDINF@ 0000000180050450     libucrt:cfout.obj
 0002:0000a458       ??_C@_06IMKFLFPG@1?$CDQNAN@ 0000000180050458     libucrt:cfout.obj
 0002:0000a460       ??_C@_06PGGFOGJG@1?$CDSNAN@ 0000000180050460     libucrt:cfout.obj
 0002:0000a468       ??_C@_05PHHOCPM@1?$CDIND@  0000000180050468     libucrt:cfout.obj
 0002:0000a6c0       ??_C@_1BA@BALFACEM@?$AAC?$AAO?$AAN?$AAO?$AAU?$AAT?$AA$@ 00000001800506c0     libucrt:initcon.obj
 0002:0000a6d0       __log10_256_lead           00000001800506d0     libucrt:log10_256_lead_tail_table.obj
 0002:0000aee0       __log10_256_tail           0000000180050ee0     libucrt:log10_256_lead_tail_table.obj
 0002:0000b6f0       __log_F_inv_qword          00000001800516f0     libucrt:log_f_inv_qword_table.obj
 0002:0000bf80       ??_R4type_info@@6B@        0000000180051f80     LIBCMT:std_type_info_static.obj
 0002:0000bfa8       ??_R3type_info@@8          0000000180051fa8     LIBCMT:std_type_info_static.obj
 0002:0000bfc0       ??_R2type_info@@8          0000000180051fc0     LIBCMT:std_type_info_static.obj
 0002:0000bfd0       ??_R1A@?0A@EA@type_info@@8 0000000180051fd0     LIBCMT:std_type_info_static.obj
 0002:0000bff8       ??_R3DNameNode@@8          0000000180051ff8     libvcruntime:undname.obj
 0002:0000c010       ??_R2DNameNode@@8          0000000180052010     libvcruntime:undname.obj
 0002:0000c020       ??_R1A@?0A@EA@DNameNode@@8 0000000180052020     libvcruntime:undname.obj
 0002:0000c048       ??_R4charNode@@6B@         0000000180052048     libvcruntime:undname.obj
 0002:0000c070       ??_R3charNode@@8           0000000180052070     libvcruntime:undname.obj
 0002:0000c088       ??_R2charNode@@8           0000000180052088     libvcruntime:undname.obj
 0002:0000c0a0       ??_R1A@?0A@EA@charNode@@8  00000001800520a0     libvcruntime:undname.obj
 0002:0000c0c8       ??_R4pcharNode@@6B@        00000001800520c8     libvcruntime:undname.obj
 0002:0000c0f0       ??_R3pcharNode@@8          00000001800520f0     libvcruntime:undname.obj
 0002:0000c108       ??_R2pcharNode@@8          0000000180052108     libvcruntime:undname.obj
 0002:0000c120       ??_R1A@?0A@EA@pcharNode@@8 0000000180052120     libvcruntime:undname.obj
 0002:0000c148       ??_R4pDNameNode@@6B@       0000000180052148     libvcruntime:undname.obj
 0002:0000c170       ??_R3pDNameNode@@8         0000000180052170     libvcruntime:undname.obj
 0002:0000c188       ??_R2pDNameNode@@8         0000000180052188     libvcruntime:undname.obj
 0002:0000c1a0       ??_R1A@?0A@EA@pDNameNode@@8 00000001800521a0     libvcruntime:undname.obj
 0002:0000c1c8       ??_R4DNameStatusNode@@6B@  00000001800521c8     libvcruntime:undname.obj
 0002:0000c1f0       ??_R3DNameStatusNode@@8    00000001800521f0     libvcruntime:undname.obj
 0002:0000c208       ??_R2DNameStatusNode@@8    0000000180052208     libvcruntime:undname.obj
 0002:0000c220       ??_R1A@?0A@EA@DNameStatusNode@@8 0000000180052220     libvcruntime:undname.obj
 0002:0000c248       ??_R4pairNode@@6B@         0000000180052248     libvcruntime:undname.obj
 0002:0000c270       ??_R3pairNode@@8           0000000180052270     libvcruntime:undname.obj
 0002:0000c288       ??_R2pairNode@@8           0000000180052288     libvcruntime:undname.obj
 0002:0000c2a0       ??_R1A@?0A@EA@pairNode@@8  00000001800522a0     libvcruntime:undname.obj
 0002:0000c2c8       ??_R4exception@std@@6B@    00000001800522c8     libvcruntime:frame.obj
 0002:0000c2f0       ??_R3exception@std@@8      00000001800522f0     libvcruntime:frame.obj
 0002:0000c308       ??_R2exception@std@@8      0000000180052308     libvcruntime:frame.obj
 0002:0000c318       ??_R1A@?0A@EA@exception@std@@8 0000000180052318     libvcruntime:frame.obj
 0002:0000c340       ??_R4bad_exception@std@@6B@ 0000000180052340     libvcruntime:frame.obj
 0002:0000c368       ??_R3bad_exception@std@@8  0000000180052368     libvcruntime:frame.obj
 0002:0000c380       ??_R2bad_exception@std@@8  0000000180052380     libvcruntime:frame.obj
 0002:0000c398       ??_R1A@?0A@EA@bad_exception@std@@8 0000000180052398     libvcruntime:frame.obj
 0002:0000c3bc       __volatile_metadata        00000001800523bc     <linker-defined>
 0002:0000c930       __rtc_iaa                  0000000180052930     LIBCMT:initsect.obj
 0002:0000c938       __rtc_izz                  0000000180052938     LIBCMT:initsect.obj
 0002:0000c940       __rtc_taa                  0000000180052940     LIBCMT:initsect.obj
 0002:0000c948       __rtc_tzz                  0000000180052948     LIBCMT:initsect.obj
 0002:00010858       _TI2?AVbad_exception@std@@ 0000000180056858     libvcruntime:frame.obj
 0002:00010878       _CTA2?AVbad_exception@std@@ 0000000180056878     libvcruntime:frame.obj
 0002:00010890       _CT??_R0?AVbad_exception@std@@@8??0bad_exception@std@@QEAA@AEBV01@@Z24 0000000180056890     libvcruntime:frame.obj
 0002:000108b8       _CT??_R0?AVexception@std@@@8??0exception@std@@QEAA@AEBV01@@Z24 00000001800568b8     libvcruntime:frame.obj
 0002:000108dc       __DELAY_IMPORT_DESCRIPTOR_physxcommon_64_dll 00000001800568dc     PhysXCommon_64:PhysXCommon_64.dll
 0002:000108fc       __DELAY_IMPORT_DESCRIPTOR_physxfoundation_64_dll 00000001800568fc     PhysXFoundation_64:PhysXFoundation_64.dll
 0002:0001091c       __NULL_DELAY_IMPORT_DESCRIPTOR 000000018005691c     PhysXCommon_64:PhysXCommon_64.dll
 0002:00010a60       \177PhysXCommon_64_NULL_THUNK_DATA_DLN 0000000180056a60     PhysXCommon_64:PhysXCommon_64.dll
 0002:00010ac0       \177PhysXFoundation_64_NULL_THUNK_DATA_DLN 0000000180056ac0     PhysXFoundation_64:PhysXFoundation_64.dll
 0002:00011420       \177PhysXCommon_64_NULL_THUNK_DATA_DLB 0000000180057420     PhysXCommon_64:PhysXCommon_64.dll
 0002:00011548       \177PhysXFoundation_64_NULL_THUNK_DATA_DLB 0000000180057548     PhysXFoundation_64:PhysXFoundation_64.dll
 0002:000132a0       __IMPORT_DESCRIPTOR_KERNEL32 00000001800592a0     kernel32:KERNEL32.dll
 0002:000132b4       __NULL_IMPORT_DESCRIPTOR   00000001800592b4     kernel32:KERNEL32.dll
 0003:00000008       __pfnDliNotifyHook2        000000018005a008     WindowsCookingDelayLoadHook.obj
 0003:00000010       _fltused                   000000018005a010     LIBCMT:fltused.obj
 0003:00000020       __isa_available            000000018005a020     LIBCMT:cpu_disp.obj
 0003:00000024       __isa_enabled              000000018005a024     LIBCMT:cpu_disp.obj
 0003:00000028       __memset_fast_string_threshold 000000018005a028     LIBCMT:cpu_disp.obj
 0003:00000030       __memset_nt_threshold      000000018005a030     LIBCMT:cpu_disp.obj
 0003:00000040       __scrt_native_dllmain_reason 000000018005a040     LIBCMT:utility.obj
 0003:00000048       __security_cookie          000000018005a048     LIBCMT:gs_cookie.obj
 0003:00000050       __security_cookie_complement 000000018005a050     LIBCMT:gs_cookie.obj
 0003:00000080       __abort_behavior           000000018005a080     libucrt:abort.obj
 0003:000000b0       __acrt_initial_multibyte_data 000000018005a0b0     libucrt:mbctype.obj
 0003:000005f0       __acrt_initial_locale_data 000000018005a5f0     libucrt:nlsdata.obj
 0003:00000748       __acrt_initial_locale_pointers 000000018005a748     libucrt:nlsdata.obj
 0003:00000758       __acrt_wide_c_locale_string 000000018005a758     libucrt:nlsdata.obj
 0003:00000760       _iob                       000000018005a760     libucrt:_file.obj
 0003:00000870       __globallocalestatus       000000018005a870     libucrt:glstatus.obj
 0003:00000880       __acrt_lconv_c             000000018005a880     libucrt:localeconv.obj
 0003:00000918       __acrt_lconv_static_decimal 000000018005a918     libucrt:localeconv.obj
 0003:0000091c       __acrt_lconv_static_W_decimal 000000018005a91c     libucrt:localeconv.obj
 0003:00000920       _lookuptrailbytes          000000018005a920     libucrt:read.obj
 0003:00000a30       ??_R0?AVAdjEdge@@@8        000000018005aa30     Adjacencies.obj
 0003:00000a50       ??_R0I@8                   000000018005aa50     Adjacencies.obj
 0003:00000a68       ??_R0?AVAdjTriangle@physx@@@8 000000018005aa68     Adjacencies.obj
 0003:00000a90       ??_R0?AVCooking@physx@@@8  000000018005aa90     Cooking.obj
 0003:00000ab8       ??_R0?AVHeightField@Gu@physx@@@8 000000018005aab8     Cooking.obj
 0003:00000ae8       ??_R0?AVQuickHullConvexHullLib@physx@@@8 000000018005aae8     Cooking.obj
 0003:00000b20       ??_R0?AUPxDebugLine@physx@@@8 000000018005ab20     Cooking.obj
 0003:00000b48       ??_R0M@8                   000000018005ab48     CookingUtils.obj
 0003:00000b60       ??_R0?AUEdgeData@Gu@physx@@@8 000000018005ab60     EdgeList.obj
 0003:00000b88       ??_R0?AUEdgeTriangleData@Gu@physx@@@8 000000018005ab88     EdgeList.obj
 0003:00000bb8       ??_R0?AVQuantizerImpl@@@8  000000018005abb8     Quantizer.obj
 0003:00000be0       ??_R0?AVPxVec3@physx@@@8   000000018005abe0     Quantizer.obj
 0003:00000c08       ??_R0?AUSlab@NodeAllocator@Gu@physx@@@8 000000018005ac08     BVHStructureBuilder.obj
 0003:00000c40       ??_R0?AUInterval@physx@@@8 000000018005ac40     RTreeCooking.obj
 0003:00000c68       ??_R0?AURTreeNodeQ@Gu@physx@@@8 000000018005ac68     RTreeCooking.obj
 0003:00000c98       ??_R0?AURTreeNodeNQ@physx@@@8 000000018005ac98     RTreeCooking.obj
 0003:00000cc0       ??_R0?AUPxBounds3V@physx@@@8 000000018005acc0     RTreeCooking.obj
 0003:00000ce8       ??_R0?AVEdgeListBuilder@Gu@physx@@@8 000000018005ace8     TriangleMeshBuilder.obj
 0003:00000d18       ??_R0?AVBV32Tree@Gu@physx@@@8 000000018005ad18     TriangleMeshBuilder.obj
 0003:00000d40       ??_R0E@8                   000000018005ad40     TriangleMeshBuilder.obj
 0003:00000d58       ??_R0G@8                   000000018005ad58     TriangleMeshBuilder.obj
 0003:00000d70       ??_R0?AUEdgeTriLookup@physx@@@8 000000018005ad70     TriangleMeshBuilder.obj
 0003:00000da0       ??_R0?AUEdgeDescData@Gu@physx@@@8 000000018005ada0     ConvexHullBuilder.obj
 0003:00000dd0       ??_R0_N@8                  000000018005add0     ConvexHullBuilder.obj
 0003:00000de8       ??_R0?AVConvexHull@physx@@@8 000000018005ade8     ConvexHullUtils.obj
 0003:00000e10       ??_R0?AVPxPlane@physx@@@8  000000018005ae10     ConvexHullUtils.obj
 0003:00000e38       ??_R0?AVHalfEdge@ConvexHull@physx@@@8 000000018005ae38     ConvexHullUtils.obj
 0003:00000e68       ??_R0?AVBigConvexData@physx@@@8 000000018005ae68     ConvexMeshBuilder.obj
 0003:00000e98       ??_R0?AUHullTriangleData@physx@@@8 000000018005ae98     ConvexPolygonsBuilder.obj
 0003:00000ec8       ??_R0?AVPair@@@8           000000018005aec8     ConvexPolygonsBuilder.obj
 0003:00000ee8       ??_R0?AVQuickHull@local@@@8 000000018005aee8     QuickHullConvexHullLib.obj
 0003:00000f10       ??_R0?AUExpandPoint@local@@@8 000000018005af10     QuickHullConvexHullLib.obj
 0003:00000f38       ??_R0PEAUQuickHullVertex@local@@@8 000000018005af38     QuickHullConvexHullLib.obj
 0003:00000f68       ??_R0PEAUQuickHullFace@local@@@8 000000018005af68     QuickHullConvexHullLib.obj
 0003:00000f98       ??_R0PEAUQuickHullHalfEdge@local@@@8 000000018005af98     QuickHullConvexHullLib.obj
 0003:00000fc8       ??_R0?AVbad_exception@std@@@8 000000018005afc8     libvcruntime:frame.obj
 0003:00000ff0       ??_R0?AVexception@std@@@8  000000018005aff0     libvcruntime:frame.obj
 0003:00001018       ??_R0?AVtype_info@@@8      000000018005b018     LIBCMT:std_type_info_static.obj
 0003:00001038       ??_R0?AVDNameNode@@@8      000000018005b038     libvcruntime:undname.obj
 0003:00001058       ??_R0?AVcharNode@@@8       000000018005b058     libvcruntime:undname.obj
 0003:00001078       ??_R0?AVpcharNode@@@8      000000018005b078     libvcruntime:undname.obj
 0003:00001098       ??_R0?AVpDNameNode@@@8     000000018005b098     libvcruntime:undname.obj
 0003:000010c0       ??_R0?AVDNameStatusNode@@@8 000000018005b0c0     libvcruntime:undname.obj
 0003:000010e8       ??_R0?AVpairNode@@@8       000000018005b0e8     libvcruntime:undname.obj
 0003:00001108       __imp_??0RadixSortBuffered@Cm@physx@@QEAA@XZ 000000018005b108     PhysXCommon_64:PhysXCommon_64.dll
 0003:00001110       __imp_??1BigConvexData@physx@@QEAA@XZ 000000018005b110     PhysXCommon_64:PhysXCommon_64.dll
 0003:00001118       __imp_??1RadixSortBuffered@Cm@physx@@UEAA@XZ 000000018005b118     PhysXCommon_64:PhysXCommon_64.dll
 0003:00001120       __imp_?Sort@RadixSortBuffered@Cm@physx@@QEAAAEAV123@PEBIIW4RadixHint@23@@Z 000000018005b120     PhysXCommon_64:PhysXCommon_64.dll
 0003:00001128       __imp_??0HeightField@Gu@physx@@QEAA@PEAVGuMeshFactory@2@@Z 000000018005b128     PhysXCommon_64:PhysXCommon_64.dll
 0003:00001130       __imp_?loadFromDesc@HeightField@Gu@physx@@QEAA_NAEBVPxHeightFieldDesc@3@@Z 000000018005b130     PhysXCommon_64:PhysXCommon_64.dll
 0003:00001138       __imp_?computeCellCoordinates@HeightField@Gu@physx@@QEBAIMMAEAM0@Z 000000018005b138     PhysXCommon_64:PhysXCommon_64.dll
 0003:00001140       __imp_?releaseMemory@HeightField@Gu@physx@@QEAAXXZ 000000018005b140     PhysXCommon_64:PhysXCommon_64.dll
 0003:00001148       __imp_??1HeightField@Gu@physx@@UEAA@XZ 000000018005b148     PhysXCommon_64:PhysXCommon_64.dll
 0003:00001150       __imp_??0NodeAllocator@Gu@physx@@QEAA@XZ 000000018005b150     PhysXCommon_64:PhysXCommon_64.dll
 0003:00001158       __imp_??1NodeAllocator@Gu@physx@@QEAA@XZ 000000018005b158     PhysXCommon_64:PhysXCommon_64.dll
 0003:00001160       __imp_?release@NodeAllocator@Gu@physx@@QEAAXXZ 000000018005b160     PhysXCommon_64:PhysXCommon_64.dll
 0003:00001168       __imp_?buildAABBTree@Gu@physx@@YA_NAEAVAABBTreeBuildParams@12@AEAVNodeAllocator@12@AEAUBuildStats@12@AEAPEAI@Z 000000018005b168     PhysXCommon_64:PhysXCommon_64.dll
 0003:00001170       __imp_?writeDword@physx@@YAXI_NAEAVPxOutputStream@1@@Z 000000018005b170     PhysXCommon_64:PhysXCommon_64.dll
 0003:00001178       __imp_?writeFloatBuffer@physx@@YAXPEBMI_NAEAVPxOutputStream@1@@Z 000000018005b178     PhysXCommon_64:PhysXCommon_64.dll
 0003:00001180       __imp_?writeHeader@physx@@YA_NCCCCI_NAEAVPxOutputStream@1@@Z 000000018005b180     PhysXCommon_64:PhysXCommon_64.dll
 0003:00001188       __imp_?writeWord@physx@@YAXG_NAEAVPxOutputStream@1@@Z 000000018005b188     PhysXCommon_64:PhysXCommon_64.dll
 0003:00001190       __imp_?writeFloat@physx@@YAXM_NAEAVPxOutputStream@1@@Z 000000018005b190     PhysXCommon_64:PhysXCommon_64.dll
 0003:00001198       __imp_?computeBoundsAroundVertices@Gu@physx@@YAXAEAVPxBounds3@2@IPEIBVPxVec3@2@@Z 000000018005b198     PhysXCommon_64:PhysXCommon_64.dll
 0003:000011a0       __imp_??0SourceMesh@Gu@physx@@QEAA@XZ 000000018005b1a0     PhysXCommon_64:PhysXCommon_64.dll
 0003:000011a8       __imp_??1SourceMesh@Gu@physx@@QEAA@XZ 000000018005b1a8     PhysXCommon_64:PhysXCommon_64.dll
 0003:000011b0       __imp_??0BV4Tree@Gu@physx@@QEAA@XZ 000000018005b1b0     PhysXCommon_64:PhysXCommon_64.dll
 0003:000011b8       __imp_??1BV4Tree@Gu@physx@@QEAA@XZ 000000018005b1b8     PhysXCommon_64:PhysXCommon_64.dll
 0003:000011c0       __imp_??0BV32Tree@Gu@physx@@QEAA@XZ 000000018005b1c0     PhysXCommon_64:PhysXCommon_64.dll
 0003:000011c8       __imp_??1BV32Tree@Gu@physx@@QEAA@XZ 000000018005b1c8     PhysXCommon_64:PhysXCommon_64.dll
 0003:000011d0       __imp_?writeWordBuffer@physx@@YAXPEBGI_NAEAVPxOutputStream@1@@Z 000000018005b1d0     PhysXCommon_64:PhysXCommon_64.dll
 0003:000011d8       __imp_?computeMaxIndex@physx@@YAIPEBII@Z 000000018005b1d8     PhysXCommon_64:PhysXCommon_64.dll
 0003:000011e0       __imp_?storeIndices@physx@@YAXIIPEBIAEAVPxOutputStream@1@_N@Z 000000018005b1e0     PhysXCommon_64:PhysXCommon_64.dll
 0003:000011e8       __imp_?BuildBV4Ex@Gu@physx@@YA_NAEAVBV4Tree@12@AEAVSourceMesh@12@MI@Z 000000018005b1e8     PhysXCommon_64:PhysXCommon_64.dll
 0003:000011f0       __imp_?BuildBV32Ex@Gu@physx@@YA_NAEAVBV32Tree@12@AEAVSourceMesh@12@MI@Z 000000018005b1f0     PhysXCommon_64:PhysXCommon_64.dll
 0003:000011f8       __imp_?computeMaxIndex@physx@@YAGPEBGI@Z 000000018005b1f8     PhysXCommon_64:PhysXCommon_64.dll
 0003:00001200       __imp_?WriteHeader@Gu@physx@@YA_NEEEEI_NAEAVPxOutputStream@2@@Z 000000018005b200     PhysXCommon_64:PhysXCommon_64.dll
 0003:00001208       __imp_?StoreIndices@Gu@physx@@YAXGIPEBGAEAVPxOutputStream@2@_N@Z 000000018005b208     PhysXCommon_64:PhysXCommon_64.dll
 0003:00001210       __imp_?CreateOffsets@BigConvexData@physx@@IEAAXXZ 000000018005b210     PhysXCommon_64:PhysXCommon_64.dll
 0003:00001218       __imp_?computeOBBPoints@Gu@physx@@YAXPEIAVPxVec3@2@AEBV32@1111@Z 000000018005b218     PhysXCommon_64:PhysXCommon_64.dll
 0003:00001220       __imp_??0BigConvexData@physx@@QEAA@XZ 000000018005b220     PhysXCommon_64:PhysXCommon_64.dll
 0003:00001228       \177PhysXCommon_64_NULL_THUNK_DATA_DLA 000000018005b228     PhysXCommon_64:PhysXCommon_64.dll
 0003:00001230       __imp_PxGetFoundation      000000018005b230     PhysXFoundation_64:PhysXFoundation_64.dll
 0003:00001238       __imp_?deallocate@TempAllocator@shdfnd@physx@@QEAAXPEAX@Z 000000018005b238     PhysXFoundation_64:PhysXFoundation_64.dll
 0003:00001240       __imp_?getAllocator@shdfnd@physx@@YAAEAVPxAllocatorCallback@2@XZ 000000018005b240     PhysXFoundation_64:PhysXFoundation_64.dll
 0003:00001248       __imp_?getInstance@Foundation@shdfnd@physx@@SAAEAV123@XZ 000000018005b248     PhysXFoundation_64:PhysXFoundation_64.dll
 0003:00001250       __imp_?error@Foundation@shdfnd@physx@@QEAAXW4Enum@PxErrorCode@3@PEBDH1ZZ 000000018005b250     PhysXFoundation_64:PhysXFoundation_64.dll
 0003:00001258       __imp_?incRefCount@Foundation@shdfnd@physx@@SAXXZ 000000018005b258     PhysXFoundation_64:PhysXFoundation_64.dll
 0003:00001260       __imp_?decRefCount@Foundation@shdfnd@physx@@SAXXZ 000000018005b260     PhysXFoundation_64:PhysXFoundation_64.dll
 0003:00001268       __imp_??0FPUGuard@shdfnd@physx@@QEAA@XZ 000000018005b268     PhysXFoundation_64:PhysXFoundation_64.dll
 0003:00001270       __imp_??1FPUGuard@shdfnd@physx@@QEAA@XZ 000000018005b270     PhysXFoundation_64:PhysXFoundation_64.dll
 0003:00001278       __imp_?allocate@TempAllocator@shdfnd@physx@@QEAAPEAX_KPEBDH@Z 000000018005b278     PhysXFoundation_64:PhysXFoundation_64.dll
 0003:00001280       __imp_?PxDiagonalize@physx@@YA?AVPxVec3@1@AEBVPxMat33@1@AEAVPxQuat@1@@Z 000000018005b280     PhysXFoundation_64:PhysXFoundation_64.dll
 0003:00001288       \177PhysXFoundation_64_NULL_THUNK_DATA_DLA 000000018005b288     PhysXFoundation_64:PhysXFoundation_64.dll
 0003:00001658       __hmod__PhysXCommon_64_dll 000000018005b658     PhysXCommon_64:PhysXCommon_64.dll
 0003:00001660       __hmod__PhysXFoundation_64_dll 000000018005b660     PhysXFoundation_64:PhysXFoundation_64.dll
 0003:00001668       ?DloadKernel32@@3PEAUHINSTANCE__@@EA 000000018005b668     Delayimp:delayhlp.obj
 0003:00001670       ?DloadAcquireSRWLockExclusive@@3P6AXPEA_K@ZEA 000000018005b670     Delayimp:delayhlp.obj
 0003:00001678       ?DloadReleaseSRWLockExclusive@@3P6AXPEA_K@ZEA 000000018005b678     Delayimp:delayhlp.obj
 0003:00001680       ?DloadSrwLock@@3_KA        000000018005b680     Delayimp:delayhlp.obj
 0003:00001688       ?DloadSectionLockCount@@3KA 000000018005b688     Delayimp:delayhlp.obj
 0003:0000168c       ?DloadSectionOldProtection@@3KA 000000018005b68c     Delayimp:delayhlp.obj
 0003:00001690       ?DloadSectionCommitPermanent@@3KA 000000018005b690     Delayimp:delayhlp.obj
 0003:000016a0       ?__type_info_root_node@@3U__type_info_node@@A 000000018005b6a0     LIBCMT:tncleanup.obj
 0003:000016b4       __favor                    000000018005b6b4     LIBCMT:cpu_disp.obj
 0003:000016b8       ?_OptionsStorage@?1??__local_stdio_printf_options@@9@4_KA 000000018005b6b8     LIBCMT:default_local_stdio_options.obj
 0003:000016c0       ?_OptionsStorage@?1??__local_stdio_scanf_options@@9@4_KA 000000018005b6c0     LIBCMT:default_local_stdio_options.obj
 0003:000016c8       __scrt_current_native_startup_state 000000018005b6c8     LIBCMT:utility.obj
 0003:000016d0       __scrt_native_startup_lock 000000018005b6d0     LIBCMT:utility.obj
 0003:00001710       __scrt_debugger_hook_flag  000000018005b710     LIBCMT:utility_desktop.obj
 0003:00001718       ?__WinRTOutOfMemoryExceptionCallback@@3P6APEAXXZEA 000000018005b718     libvcruntime:ehhelpers.obj
 0003:00001720       __pPurecall                000000018005b720     libvcruntime:purevirt_data.obj
 0003:00001728       ?pArgList@UnDecorator@@0PEAVReplicator@@EA 000000018005b728     libvcruntime:undname.obj
 0003:00001730       ?pZNameList@UnDecorator@@0PEAVReplicator@@EA 000000018005b730     libvcruntime:undname.obj
 0003:00001738       ?pTemplateArgList@UnDecorator@@0PEAVReplicator@@EA 000000018005b738     libvcruntime:undname.obj
 0003:00001740       ?gName@UnDecorator@@0PEBDEB 000000018005b740     libvcruntime:undname.obj
 0003:00001748       ?name@UnDecorator@@0PEBDEB 000000018005b748     libvcruntime:undname.obj
 0003:00001750       ?disableFlags@UnDecorator@@0KA 000000018005b750     libvcruntime:undname.obj
 0003:00001754       ?fExplicitTemplateParams@UnDecorator@@0_NA 000000018005b754     libvcruntime:undname.obj
 0003:00001755       ?fGetTemplateArgumentList@UnDecorator@@0_NA 000000018005b755     libvcruntime:undname.obj
 0003:00001758       ?m_pGetParameter@UnDecorator@@0P6APEADJ@ZEA 000000018005b758     libvcruntime:undname.obj
 0003:00001760       ?m_CHPENameOffset@UnDecorator@@0KA 000000018005b760     libvcruntime:undname.obj
 0003:00001764       ?m_recursionLevel@UnDecorator@@0KA 000000018005b764     libvcruntime:undname.obj
 0003:00001890       ?c_exit_complete@?1???R<lambda_6e4b09c48022b2350581041d5f6b0c4c>@@QEBA@XZ@4_NA 000000018005b890     libucrt:exit.obj
 0003:000019a8       _environ_table             000000018005b9a8     libucrt:environment_initialization.obj
 0003:000019b0       _wenviron_table            000000018005b9b0     libucrt:environment_initialization.obj
 0003:000019b8       __dcrt_initial_wide_environment 000000018005b9b8     libucrt:environment_initialization.obj
 0003:000019c0       __dcrt_initial_narrow_environment 000000018005b9c0     libucrt:environment_initialization.obj
 0003:000019c8       __acrt_atexit_table        000000018005b9c8     libucrt:onexit.obj
 0003:000019e0       __acrt_at_quick_exit_table 000000018005b9e0     libucrt:onexit.obj
 0003:000019f8       __fma3_is_available        000000018005b9f8     libucrt:fma3_available.obj
 0003:000019fc       __use_fma3_lib             000000018005b9fc     libucrt:fma3_available.obj
 0003:00001c40       _mbctype                   000000018005bc40     libucrt:mbctype.obj
 0003:00001c48       _mbcasemap                 000000018005bc48     libucrt:mbctype.obj
 0003:00001c50       __acrt_current_multibyte_data 000000018005bc50     libucrt:mbctype.obj
 0003:00001c60       _pgmptr                    000000018005bc60     libucrt:argv_data.obj
 0003:00001c68       __argc                     000000018005bc68     libucrt:argv_data.obj
 0003:00001c70       __argv                     000000018005bc70     libucrt:argv_data.obj
 0003:00001c78       __wargv                    000000018005bc78     libucrt:argv_data.obj
 0003:00001c80       _acmdln                    000000018005bc80     libucrt:argv_data.obj
 0003:00001c88       _wcmdln                    000000018005bc88     libucrt:argv_data.obj
 0003:00001e40       __acrt_heap                000000018005be40     libucrt:heap_handle.obj
 0003:00001e50       __pioinfo                  000000018005be50     libucrt:ioinit.obj
 0003:00002250       _nhandle                   000000018005c250     libucrt:ioinit.obj
 0003:00002288       __acrt_current_locale_data 000000018005c288     libucrt:nlsdata.obj
 0003:00002290       _nstream                   000000018005c290     libucrt:_file.obj
 0003:00002298       __piob                     000000018005c298     libucrt:_file.obj
 0003:000022a0       __acrt_stdout_buffer       000000018005c2a0     libucrt:_sftbuf.obj
 0003:000022a8       __acrt_stderr_buffer       000000018005c2a8     libucrt:_sftbuf.obj
 0003:000022c0       __acrt_locale_changed_data 000000018005c2c0     libucrt:wsetlocale.obj
 0003:000022c8       __acrt_lconv_static_null   000000018005c2c8     libucrt:localeconv.obj
 0003:000022cc       __acrt_lconv_static_W_null 000000018005c2cc     libucrt:localeconv.obj
 0003:00002850       __scrt_ucrt_dll_is_in_use  000000018005c850     <common>
 0003:00002858       __dyn_tls_init_callback    000000018005c858     <common>
 0005:00000100       __common_ssin_reduction_data 0000000180061100     LIBCMT:svml_s_sin_data.obj
 0005:00000d00       __common_ssin_data         0000000180061d00     LIBCMT:svml_s_sin_data.obj

 entry point at        0001:000276c0

 Static symbols

 0000:fff9a000       .debug$S                   0000000180000000     PhysXCooking_64.exp
 0000:fff9a000       .debug$S                   0000000180000000     kernel32:KERNEL32.dll
 0000:fff9a000       .debug$S                   0000000180000000     kernel32:KERNEL32.dll
 0000:fff9a000       .debug$S                   0000000180000000     kernel32:KERNEL32.dll
 0000:fff9a000       .debug$S                   0000000180000000     kernel32:KERNEL32.dll
 0000:fff9a000       .debug$S                   0000000180000000     kernel32:KERNEL32.dll
 0000:fff9a000       .debug$S                   0000000180000000     kernel32:KERNEL32.dll
 0000:fff9a000       .debug$S                   0000000180000000     kernel32:KERNEL32.dll
 0000:fff9a000       .debug$S                   0000000180000000     kernel32:KERNEL32.dll
 0000:fff9a000       .debug$S                   0000000180000000     kernel32:KERNEL32.dll
 0000:fff9a000       .debug$S                   0000000180000000     kernel32:KERNEL32.dll
 0000:fff9a000       .debug$S                   0000000180000000     kernel32:KERNEL32.dll
 0000:fff9a000       .debug$S                   0000000180000000     kernel32:KERNEL32.dll
 0000:fff9a000       .debug$S                   0000000180000000     kernel32:KERNEL32.dll
 0000:fff9a000       .debug$S                   0000000180000000     kernel32:KERNEL32.dll
 0000:fff9a000       .debug$S                   0000000180000000     kernel32:KERNEL32.dll
 0000:fff9a000       .debug$S                   0000000180000000     kernel32:KERNEL32.dll
 0000:fff9a000       .debug$S                   0000000180000000     kernel32:KERNEL32.dll
 0000:fff9a000       .debug$S                   0000000180000000     kernel32:KERNEL32.dll
 0000:fff9a000       .debug$S                   0000000180000000     kernel32:KERNEL32.dll
 0000:fff9a000       .debug$S                   0000000180000000     kernel32:KERNEL32.dll
 0000:fff9a000       .debug$S                   0000000180000000     kernel32:KERNEL32.dll
 0000:fff9a000       .debug$S                   0000000180000000     kernel32:KERNEL32.dll
 0000:fff9a000       .debug$S                   0000000180000000     kernel32:KERNEL32.dll
 0000:fff9a000       .debug$S                   0000000180000000     kernel32:KERNEL32.dll
 0000:fff9a000       .debug$S                   0000000180000000     kernel32:KERNEL32.dll
 0000:fff9a000       .debug$S                   0000000180000000     kernel32:KERNEL32.dll
 0000:fff9a000       .debug$S                   0000000180000000     kernel32:KERNEL32.dll
 0000:fff9a000       .debug$S                   0000000180000000     kernel32:KERNEL32.dll
 0000:fff9a000       .debug$S                   0000000180000000     kernel32:KERNEL32.dll
 0000:fff9a000       .debug$S                   0000000180000000     kernel32:KERNEL32.dll
 0000:fff9a000       .debug$S                   0000000180000000     kernel32:KERNEL32.dll
 0000:fff9a000       .debug$S                   0000000180000000     kernel32:KERNEL32.dll
 0000:fff9a000       .debug$S                   0000000180000000     kernel32:KERNEL32.dll
 0000:fff9a000       .debug$S                   0000000180000000     kernel32:KERNEL32.dll
 0000:fff9a000       .debug$S                   0000000180000000     kernel32:KERNEL32.dll
 0000:fff9a000       .debug$S                   0000000180000000     kernel32:KERNEL32.dll
 0000:fff9a000       .debug$S                   0000000180000000     kernel32:KERNEL32.dll
 0000:fff9a000       .debug$S                   0000000180000000     kernel32:KERNEL32.dll
 0000:fff9a000       .debug$S                   0000000180000000     kernel32:KERNEL32.dll
 0000:fff9a000       .debug$S                   0000000180000000     kernel32:KERNEL32.dll
 0000:fff9a000       .debug$S                   0000000180000000     kernel32:KERNEL32.dll
 0000:fff9a000       .debug$S                   0000000180000000     kernel32:KERNEL32.dll
 0000:fff9a000       .debug$S                   0000000180000000     kernel32:KERNEL32.dll
 0000:fff9a000       .debug$S                   0000000180000000     kernel32:KERNEL32.dll
 0000:fff9a000       .debug$S                   0000000180000000     kernel32:KERNEL32.dll
 0000:fff9a000       .debug$S                   0000000180000000     kernel32:KERNEL32.dll
 0000:fff9a000       .debug$S                   0000000180000000     kernel32:KERNEL32.dll
 0000:fff9a000       .debug$S                   0000000180000000     kernel32:KERNEL32.dll
 0000:fff9a000       .debug$S                   0000000180000000     kernel32:KERNEL32.dll
 0000:fff9a000       .debug$S                   0000000180000000     kernel32:KERNEL32.dll
 0000:fff9a000       .debug$S                   0000000180000000     kernel32:KERNEL32.dll
 0000:fff9a000       .debug$S                   0000000180000000     kernel32:KERNEL32.dll
 0000:fff9a000       .debug$S                   0000000180000000     kernel32:KERNEL32.dll
 0000:fff9a000       .debug$S                   0000000180000000     kernel32:KERNEL32.dll
 0000:fff9a000       .debug$S                   0000000180000000     kernel32:KERNEL32.dll
 0000:fff9a000       .debug$S                   0000000180000000     kernel32:KERNEL32.dll
 0000:fff9a000       .debug$S                   0000000180000000     kernel32:KERNEL32.dll
 0000:fff9a000       .debug$S                   0000000180000000     kernel32:KERNEL32.dll
 0000:fff9a000       .debug$S                   0000000180000000     kernel32:KERNEL32.dll
 0000:fff9a000       .debug$S                   0000000180000000     kernel32:KERNEL32.dll
 0000:fff9a000       .debug$S                   0000000180000000     kernel32:KERNEL32.dll
 0000:fff9a000       .debug$S                   0000000180000000     kernel32:KERNEL32.dll
 0000:fff9a000       .debug$S                   0000000180000000     kernel32:KERNEL32.dll
 0000:fff9a000       .debug$S                   0000000180000000     kernel32:KERNEL32.dll
 0000:fff9a000       .debug$S                   0000000180000000     kernel32:KERNEL32.dll
 0000:fff9a000       .debug$S                   0000000180000000     kernel32:KERNEL32.dll
 0000:fff9a000       .debug$S                   0000000180000000     kernel32:KERNEL32.dll
 0000:fff9a000       .debug$S                   0000000180000000     kernel32:KERNEL32.dll
 0000:fff9a000       .debug$S                   0000000180000000     kernel32:KERNEL32.dll
 0000:fff9a000       .debug$S                   0000000180000000     kernel32:KERNEL32.dll
 0000:fff9a000       .debug$S                   0000000180000000     kernel32:KERNEL32.dll
 0000:fff9a000       .debug$S                   0000000180000000     kernel32:KERNEL32.dll
 0000:fff9a000       .debug$S                   0000000180000000     kernel32:KERNEL32.dll
 0000:fff9a000       .debug$S                   0000000180000000     kernel32:KERNEL32.dll
 0000:fff9a000       .debug$S                   0000000180000000     kernel32:KERNEL32.dll
 0000:fff9a000       .debug$S                   0000000180000000     kernel32:KERNEL32.dll
 0000:fff9a000       .debug$S                   0000000180000000     kernel32:KERNEL32.dll
 0000:fff9a000       .debug$S                   0000000180000000     kernel32:KERNEL32.dll
 0000:fff9a000       .debug$S                   0000000180000000     kernel32:KERNEL32.dll
 0000:fff9a000       .debug$S                   0000000180000000     kernel32:KERNEL32.dll
 0000:fff9a000       .debug$S                   0000000180000000     kernel32:KERNEL32.dll
 0000:fff9a000       .debug$S                   0000000180000000     kernel32:KERNEL32.dll
 0000:fff9a000       .debug$S                   0000000180000000     kernel32:KERNEL32.dll
 0000:fff9a000       .debug$S                   0000000180000000     kernel32:KERNEL32.dll
 0000:fff9a000       .debug$S                   0000000180000000     kernel32:KERNEL32.dll
 0000:fff9a000       .debug$S                   0000000180000000     kernel32:KERNEL32.dll
 0000:fff9a000       .debug$S                   0000000180000000     kernel32:KERNEL32.dll
 0000:fff9a000       .debug$S                   0000000180000000     kernel32:KERNEL32.dll
 0000:fff9a000       .debug$S                   0000000180000000     kernel32:KERNEL32.dll
 0000:fff9a000       .debug$S                   0000000180000000     PhysXCommon_64:PhysXCommon_64.dll
 0000:fff9a000       .debug$S                   0000000180000000     PhysXCommon_64:PhysXCommon_64.dll
 0000:fff9a000       .debug$S                   0000000180000000     PhysXCommon_64:PhysXCommon_64.dll
 0000:fff9a000       .debug$S                   0000000180000000     PhysXCommon_64:PhysXCommon_64.dll
 0000:fff9a000       .debug$S                   0000000180000000     PhysXCommon_64:PhysXCommon_64.dll
 0000:fff9a000       .debug$S                   0000000180000000     PhysXCommon_64:PhysXCommon_64.dll
 0000:fff9a000       .debug$S                   0000000180000000     PhysXCommon_64:PhysXCommon_64.dll
 0000:fff9a000       .debug$S                   0000000180000000     PhysXCommon_64:PhysXCommon_64.dll
 0000:fff9a000       .debug$S                   0000000180000000     PhysXCommon_64:PhysXCommon_64.dll
 0000:fff9a000       .debug$S                   0000000180000000     PhysXCommon_64:PhysXCommon_64.dll
 0000:fff9a000       .debug$S                   0000000180000000     PhysXCommon_64:PhysXCommon_64.dll
 0000:fff9a000       .debug$S                   0000000180000000     PhysXCommon_64:PhysXCommon_64.dll
 0000:fff9a000       .debug$S                   0000000180000000     PhysXCommon_64:PhysXCommon_64.dll
 0000:fff9a000       .debug$S                   0000000180000000     PhysXCommon_64:PhysXCommon_64.dll
 0000:fff9a000       .debug$S                   0000000180000000     PhysXCommon_64:PhysXCommon_64.dll
 0000:fff9a000       .debug$S                   0000000180000000     PhysXCommon_64:PhysXCommon_64.dll
 0000:fff9a000       .debug$S                   0000000180000000     PhysXCommon_64:PhysXCommon_64.dll
 0000:fff9a000       .debug$S                   0000000180000000     PhysXCommon_64:PhysXCommon_64.dll
 0000:fff9a000       .debug$S                   0000000180000000     PhysXCommon_64:PhysXCommon_64.dll
 0000:fff9a000       .debug$S                   0000000180000000     PhysXCommon_64:PhysXCommon_64.dll
 0000:fff9a000       .debug$S                   0000000180000000     PhysXCommon_64:PhysXCommon_64.dll
 0000:fff9a000       .debug$S                   0000000180000000     PhysXCommon_64:PhysXCommon_64.dll
 0000:fff9a000       .debug$S                   0000000180000000     PhysXCommon_64:PhysXCommon_64.dll
 0000:fff9a000       .debug$S                   0000000180000000     PhysXCommon_64:PhysXCommon_64.dll
 0000:fff9a000       .debug$S                   0000000180000000     PhysXCommon_64:PhysXCommon_64.dll
 0000:fff9a000       .debug$S                   0000000180000000     PhysXCommon_64:PhysXCommon_64.dll
 0000:fff9a000       .debug$S                   0000000180000000     PhysXCommon_64:PhysXCommon_64.dll
 0000:fff9a000       .debug$S                   0000000180000000     PhysXCommon_64:PhysXCommon_64.dll
 0000:fff9a000       .debug$S                   0000000180000000     PhysXCommon_64:PhysXCommon_64.dll
 0000:fff9a000       .debug$S                   0000000180000000     PhysXCommon_64:PhysXCommon_64.dll
 0000:fff9a000       .debug$S                   0000000180000000     PhysXCommon_64:PhysXCommon_64.dll
 0000:fff9a000       .debug$S                   0000000180000000     PhysXCommon_64:PhysXCommon_64.dll
 0000:fff9a000       .debug$S                   0000000180000000     PhysXCommon_64:PhysXCommon_64.dll
 0000:fff9a000       .debug$S                   0000000180000000     PhysXCommon_64:PhysXCommon_64.dll
 0000:fff9a000       .debug$S                   0000000180000000     PhysXCommon_64:PhysXCommon_64.dll
 0000:fff9a000       .debug$S                   0000000180000000     PhysXCommon_64:PhysXCommon_64.dll
 0000:fff9a000       .debug$S                   0000000180000000     PhysXCommon_64:PhysXCommon_64.dll
 0000:fff9a000       .debug$S                   0000000180000000     PhysXCommon_64:PhysXCommon_64.dll
 0000:fff9a000       .debug$S                   0000000180000000     PhysXFoundation_64:PhysXFoundation_64.dll
 0000:fff9a000       .debug$S                   0000000180000000     PhysXFoundation_64:PhysXFoundation_64.dll
 0000:fff9a000       .debug$S                   0000000180000000     PhysXFoundation_64:PhysXFoundation_64.dll
 0000:fff9a000       .debug$S                   0000000180000000     PhysXFoundation_64:PhysXFoundation_64.dll
 0000:fff9a000       .debug$S                   0000000180000000     PhysXFoundation_64:PhysXFoundation_64.dll
 0000:fff9a000       .debug$S                   0000000180000000     PhysXFoundation_64:PhysXFoundation_64.dll
 0000:fff9a000       .debug$S                   0000000180000000     PhysXFoundation_64:PhysXFoundation_64.dll
 0000:fff9a000       .debug$S                   0000000180000000     PhysXFoundation_64:PhysXFoundation_64.dll
 0000:fff9a000       .debug$S                   0000000180000000     PhysXFoundation_64:PhysXFoundation_64.dll
 0000:fff9a000       .debug$S                   0000000180000000     PhysXFoundation_64:PhysXFoundation_64.dll
 0000:fff9a000       .debug$S                   0000000180000000     PhysXFoundation_64:PhysXFoundation_64.dll
 0001:00000000       ??__EmaxFError@_VecMathTests@aos@shdfnd@physx@@YAXXZ 0000000180001000 f   Cooking.obj
 0001:00000010       ??__EmaxV3Error@_VecMathTests@aos@shdfnd@physx@@YAXXZ 0000000180001010 f   Cooking.obj
 0001:00000020       ??__EmaxV4Error@_VecMathTests@aos@shdfnd@physx@@YAXXZ 0000000180001020 f   Cooking.obj
 0001:00000030       ??__EminFError@_VecMathTests@aos@shdfnd@physx@@YAXXZ 0000000180001030 f   Cooking.obj
 0001:00000040       ??__EminV3Error@_VecMathTests@aos@shdfnd@physx@@YAXXZ 0000000180001040 f   Cooking.obj
 0001:00000050       ??__EminV4Error@_VecMathTests@aos@shdfnd@physx@@YAXXZ 0000000180001050 f   Cooking.obj
 0001:00000060       ??__EmaxFError@_VecMathTests@aos@shdfnd@physx@@YAXXZ 0000000180001060 f   BVHStructureBuilder.obj
 0001:00000070       ??__EmaxV3Error@_VecMathTests@aos@shdfnd@physx@@YAXXZ 0000000180001070 f   BVHStructureBuilder.obj
 0001:00000080       ??__EmaxV4Error@_VecMathTests@aos@shdfnd@physx@@YAXXZ 0000000180001080 f   BVHStructureBuilder.obj
 0001:00000090       ??__EminFError@_VecMathTests@aos@shdfnd@physx@@YAXXZ 0000000180001090 f   BVHStructureBuilder.obj
 0001:000000a0       ??__EminV3Error@_VecMathTests@aos@shdfnd@physx@@YAXXZ 00000001800010a0 f   BVHStructureBuilder.obj
 0001:000000b0       ??__EminV4Error@_VecMathTests@aos@shdfnd@physx@@YAXXZ 00000001800010b0 f   BVHStructureBuilder.obj
 0001:000000c0       ??__EmaxFError@_VecMathTests@aos@shdfnd@physx@@YAXXZ 00000001800010c0 f   RTreeCooking.obj
 0001:000000d0       ??__EmaxV3Error@_VecMathTests@aos@shdfnd@physx@@YAXXZ 00000001800010d0 f   RTreeCooking.obj
 0001:000000e0       ??__EmaxV4Error@_VecMathTests@aos@shdfnd@physx@@YAXXZ 00000001800010e0 f   RTreeCooking.obj
 0001:000000f0       ??__EminFError@_VecMathTests@aos@shdfnd@physx@@YAXXZ 00000001800010f0 f   RTreeCooking.obj
 0001:00000100       ??__EminV3Error@_VecMathTests@aos@shdfnd@physx@@YAXXZ 0000000180001100 f   RTreeCooking.obj
 0001:00000110       ??__EminV4Error@_VecMathTests@aos@shdfnd@physx@@YAXXZ 0000000180001110 f   RTreeCooking.obj
 0001:00000120       ??__EmaxFError@_VecMathTests@aos@shdfnd@physx@@YAXXZ 0000000180001120 f   MeshBuilder.obj
 0001:00000130       ??__EmaxV3Error@_VecMathTests@aos@shdfnd@physx@@YAXXZ 0000000180001130 f   MeshBuilder.obj
 0001:00000140       ??__EmaxV4Error@_VecMathTests@aos@shdfnd@physx@@YAXXZ 0000000180001140 f   MeshBuilder.obj
 0001:00000150       ??__EminFError@_VecMathTests@aos@shdfnd@physx@@YAXXZ 0000000180001150 f   MeshBuilder.obj
 0001:00000160       ??__EminV3Error@_VecMathTests@aos@shdfnd@physx@@YAXXZ 0000000180001160 f   MeshBuilder.obj
 0001:00000170       ??__EminV4Error@_VecMathTests@aos@shdfnd@physx@@YAXXZ 0000000180001170 f   MeshBuilder.obj
 0001:00000180       ??__EmaxFError@_VecMathTests@aos@shdfnd@physx@@YAXXZ 0000000180001180 f   TriangleMeshBuilder.obj
 0001:00000190       ??__EmaxV3Error@_VecMathTests@aos@shdfnd@physx@@YAXXZ 0000000180001190 f   TriangleMeshBuilder.obj
 0001:000001a0       ??__EmaxV4Error@_VecMathTests@aos@shdfnd@physx@@YAXXZ 00000001800011a0 f   TriangleMeshBuilder.obj
 0001:000001b0       ??__EminFError@_VecMathTests@aos@shdfnd@physx@@YAXXZ 00000001800011b0 f   TriangleMeshBuilder.obj
 0001:000001c0       ??__EminV3Error@_VecMathTests@aos@shdfnd@physx@@YAXXZ 00000001800011c0 f   TriangleMeshBuilder.obj
 0001:000001d0       ??__EminV4Error@_VecMathTests@aos@shdfnd@physx@@YAXXZ 00000001800011d0 f   TriangleMeshBuilder.obj
 0001:000001e0       ??__EmaxFError@_VecMathTests@aos@shdfnd@physx@@YAXXZ 00000001800011e0 f   BigConvexDataBuilder.obj
 0001:000001f0       ??__EmaxV3Error@_VecMathTests@aos@shdfnd@physx@@YAXXZ 00000001800011f0 f   BigConvexDataBuilder.obj
 0001:00000200       ??__EmaxV4Error@_VecMathTests@aos@shdfnd@physx@@YAXXZ 0000000180001200 f   BigConvexDataBuilder.obj
 0001:00000210       ??__EminFError@_VecMathTests@aos@shdfnd@physx@@YAXXZ 0000000180001210 f   BigConvexDataBuilder.obj
 0001:00000220       ??__EminV3Error@_VecMathTests@aos@shdfnd@physx@@YAXXZ 0000000180001220 f   BigConvexDataBuilder.obj
 0001:00000230       ??__EminV4Error@_VecMathTests@aos@shdfnd@physx@@YAXXZ 0000000180001230 f   BigConvexDataBuilder.obj
 0001:00000240       ??__EmaxFError@_VecMathTests@aos@shdfnd@physx@@YAXXZ 0000000180001240 f   ConvexHullBuilder.obj
 0001:00000250       ??__EmaxV3Error@_VecMathTests@aos@shdfnd@physx@@YAXXZ 0000000180001250 f   ConvexHullBuilder.obj
 0001:00000260       ??__EmaxV4Error@_VecMathTests@aos@shdfnd@physx@@YAXXZ 0000000180001260 f   ConvexHullBuilder.obj
 0001:00000270       ??__EminFError@_VecMathTests@aos@shdfnd@physx@@YAXXZ 0000000180001270 f   ConvexHullBuilder.obj
 0001:00000280       ??__EminV3Error@_VecMathTests@aos@shdfnd@physx@@YAXXZ 0000000180001280 f   ConvexHullBuilder.obj
 0001:00000290       ??__EminV4Error@_VecMathTests@aos@shdfnd@physx@@YAXXZ 0000000180001290 f   ConvexHullBuilder.obj
 0001:000002a0       ??__EmaxFError@_VecMathTests@aos@shdfnd@physx@@YAXXZ 00000001800012a0 f   ConvexHullUtils.obj
 0001:000002b0       ??__EmaxV3Error@_VecMathTests@aos@shdfnd@physx@@YAXXZ 00000001800012b0 f   ConvexHullUtils.obj
 0001:000002c0       ??__EmaxV4Error@_VecMathTests@aos@shdfnd@physx@@YAXXZ 00000001800012c0 f   ConvexHullUtils.obj
 0001:000002d0       ??__EminFError@_VecMathTests@aos@shdfnd@physx@@YAXXZ 00000001800012d0 f   ConvexHullUtils.obj
 0001:000002e0       ??__EminV3Error@_VecMathTests@aos@shdfnd@physx@@YAXXZ 00000001800012e0 f   ConvexHullUtils.obj
 0001:000002f0       ??__EminV4Error@_VecMathTests@aos@shdfnd@physx@@YAXXZ 00000001800012f0 f   ConvexHullUtils.obj
 0001:00000300       ??__EmaxFError@_VecMathTests@aos@shdfnd@physx@@YAXXZ 0000000180001300 f   ConvexMeshBuilder.obj
 0001:00000310       ??__EmaxV3Error@_VecMathTests@aos@shdfnd@physx@@YAXXZ 0000000180001310 f   ConvexMeshBuilder.obj
 0001:00000320       ??__EmaxV4Error@_VecMathTests@aos@shdfnd@physx@@YAXXZ 0000000180001320 f   ConvexMeshBuilder.obj
 0001:00000330       ??__EminFError@_VecMathTests@aos@shdfnd@physx@@YAXXZ 0000000180001330 f   ConvexMeshBuilder.obj
 0001:00000340       ??__EminV3Error@_VecMathTests@aos@shdfnd@physx@@YAXXZ 0000000180001340 f   ConvexMeshBuilder.obj
 0001:00000350       ??__EminV4Error@_VecMathTests@aos@shdfnd@physx@@YAXXZ 0000000180001350 f   ConvexMeshBuilder.obj
 0001:00000360       ??__EmaxFError@_VecMathTests@aos@shdfnd@physx@@YAXXZ 0000000180001360 f   VolumeIntegration.obj
 0001:00000370       ??__EmaxV3Error@_VecMathTests@aos@shdfnd@physx@@YAXXZ 0000000180001370 f   VolumeIntegration.obj
 0001:00000380       ??__EmaxV4Error@_VecMathTests@aos@shdfnd@physx@@YAXXZ 0000000180001380 f   VolumeIntegration.obj
 0001:00000390       ??__EminFError@_VecMathTests@aos@shdfnd@physx@@YAXXZ 0000000180001390 f   VolumeIntegration.obj
 0001:000003a0       ??__EminV3Error@_VecMathTests@aos@shdfnd@physx@@YAXXZ 00000001800013a0 f   VolumeIntegration.obj
 0001:000003b0       ??__EminV4Error@_VecMathTests@aos@shdfnd@physx@@YAXXZ 00000001800013b0 f   VolumeIntegration.obj
 0001:000005c0       ?AddTriangle@@YAXIIIIPEAVAdjTriangle@physx@@AEAIPEAVAdjEdge@@@Z 00000001800015c0 f   Adjacencies.obj
 0001:00000740       ?CreateDatabase@@YA_NPEAVAdjTriangle@physx@@IPEBVAdjEdge@@AEBUADJACENCIESCREATE@2@@Z 0000000180001740 f   Adjacencies.obj
 0001:00000d00       ?UpdateLink@@YA_NIIIIPEAVAdjTriangle@physx@@AEBUADJACENCIESCREATE@2@@Z 0000000180001d00 f   Adjacencies.obj
 0001:00008fa0       ?buildFromBounds@physx@@YAXAEAURTree@Gu@1@PEBUPxBounds3V@1@IAEAV?$Array@IV?$ReflectionAllocator@I@shdfnd@physx@@@shdfnd@1@PEAURemapCallback@RTreeCooker@1@AEAT__m128@@4MW4Enum@PxMeshCookingHint@1@@Z 0000000180009fa0 f   RTreeCooking.obj
 0001:0000cfe0       ?buildAdjacencies@physx@@YAXPEAUuint4@1@PEAVPxVec3@1@PEBV31@PEBUuint3@1@I@Z 000000018000dfe0 f   TriangleMeshBuilder.obj
 0001:0000e770       ?findAdjacent@physx@@YAIPEBVPxVec3@1@0PEBUuint3@1@IIIAEBVPxPlane@1@PEAUEdgeTriLookup@1@I@Z 000000018000f770 f   TriangleMeshBuilder.obj
 0001:00013640       ?checkPointsAABBValidity@local@@YA_NIPEBVPxVec3@physx@@IMMAEAV23@1AEAIPEAV23@_N@Z 0000000180014640 f   ConvexHullLib.obj
 0001:00018a40       ?ComputeInternalExtent@@YAXAEAUConvexHullData@Gu@physx@@PEBUHullPolygonData@23@@Z 0000000180019a40 f   ConvexMeshBuilder.obj
 0001:00019e30       ?CheckFloodFillFace@Local@?7??extractHullPolygons@@YA_NAEAIAEAV?$Array@IV?$ReflectionAllocator@I@shdfnd@physx@@@shdfnd@physx@@AEBVConvexPolygonsBuilder@5@PEAV345@1@Z@SA_NIPEBVAdjTriangle@5@PEBI@Z 000000018001ae30 f   ConvexPolygonsBuilder.obj
 0001:0001a420       ?FloodFill@Local@?7??extractHullPolygons@@YA_NAEAIAEAV?$Array@IV?$ReflectionAllocator@I@shdfnd@physx@@@shdfnd@physx@@AEBVConvexPolygonsBuilder@5@PEAV345@1@Z@SAX1PEBVAdjTriangle@5@IPEA_N@Z 000000018001b420 f   ConvexPolygonsBuilder.obj
 0001:0001a500       ?TestDuplicateTriangles@@YA_NAEAIPEAU?$TriangleT@I@Gu@physx@@_N@Z 000000018001b500 f   ConvexPolygonsBuilder.obj
 0001:0001a6d0       ?checkRedundantVertices@@YAXAEAIAEAV?$Array@IV?$ReflectionAllocator@I@shdfnd@physx@@@shdfnd@physx@@AEBVConvexPolygonsBuilder@3@11@Z 000000018001b6d0 f   ConvexPolygonsBuilder.obj
 0001:0001d450       ?extractHullPolygons@@YA_NAEAIAEAV?$Array@IV?$ReflectionAllocator@I@shdfnd@physx@@@shdfnd@physx@@AEBVConvexPolygonsBuilder@3@PEAV123@1@Z 000000018001e450 f   ConvexPolygonsBuilder.obj
 0001:0001deb0       ?findLineStrip@@YA_NAEAV?$Array@IV?$ReflectionAllocator@I@shdfnd@physx@@@shdfnd@physx@@AEBV?$Array@VPair@@V?$ReflectionAllocator@VPair@@@shdfnd@physx@@@23@@Z 000000018001eeb0 f   ConvexPolygonsBuilder.obj
 0001:000255b0       ?computeVolumeIntegrals@VolumeIntegratorEberly@?A0xc93de727@physx@@QEAA_NAEAUPxIntegrals@3@AEBVPxVec3@3@@Z 00000001800265b0 f   VolumeIntegration.obj
 0001:000260b0       ?computeVolumeIntegralsSIMD@VolumeIntegratorEberly@?A0xc93de727@physx@@QEAA_NAEAUPxIntegrals@3@AEBVPxVec3@3@@Z 00000001800270b0 f   VolumeIntegration.obj
 0001:00026780       $LN24                      0000000180027780     WindowsCookingDelayLoadHook.obj
 0001:000272c0       $$000000                   00000001800282c0     LIBCMT:chkstk.obj
 0001:00027320       ?<lambda_invoker_cdecl>@_Closure_wrapper_a8e60676_2@@CAXQEAX@Z 0000000180028320 f   libvcruntime:std_type_info.obj
 0001:00027330       $$000000                   0000000180028330     LIBCMT:svml_ssinf4_dispatch.obj
 0001:000273a0       ?dllmain_crt_dispatch@@YAHQEAUHINSTANCE__@@KQEAX@Z 00000001800283a0 f   LIBCMT:dll_dllmain.obj
 0001:000273f0       ?dllmain_crt_process_attach@@YAHQEAUHINSTANCE__@@QEAX@Z 00000001800283f0 f   LIBCMT:dll_dllmain.obj
 0001:00027508       ?dllmain_crt_process_detach@@YAH_N@Z 0000000180028508 f   LIBCMT:dll_dllmain.obj
 0001:0002758c       ?dllmain_dispatch@@YAHQEAUHINSTANCE__@@KQEAX@Z 000000018002858c f   LIBCMT:dll_dllmain.obj
 0001:000278b0       $$000000                   00000001800288b0     LIBCMT:svml_ssinf4_sse2.obj
 0001:000281f0       $$000000                   00000001800291f0     LIBCMT:svml_ssinf4_sse4.obj
 0001:00028f40       $$000000                   0000000180029f40     LIBCMT:svml_s_sin_cout.obj
 0001:00028fe4       ?<lambda_invoker_cdecl>@_Closure_wrapper_a8e60676_1@@CAPEAX_K@Z 0000000180029fe4 f   libvcruntime:std_type_info.obj
 0001:00029160       $$000000                   000000018002a160     libvcruntime:memset.obj
 0001:00029520       $$000000                   000000018002a520     libvcruntime:memcpy.obj
 0001:0002a688       ??1TrackRecursion@?1??getDecoratedName@UnDecorator@@CA?AVDName@@XZ@QEAA@XZ 000000018002b688 f   libvcruntime:undname.obj
 0001:00031f40       $$000000                   0000000180032f40     libvcruntime:notify.obj
 0001:000329fc       ?try_get_function@@YAPEAXW4function_id@?A0x14174aea@@QEBDQEBW4module_id@2@2@Z 00000001800339fc f   libvcruntime:winapi_downlevel.obj
 0001:00032dd4       ??$BuildCatchObjectHelperInternal@V__FrameHandler4@@@@YAHPEAUEHExceptionRecord@@PEAXPEAUHandlerType4@FH4@@PEBU_s_CatchableType@@@Z 0000000180033dd4 f   libvcruntime:frame.obj
 0001:00032fd8       ??$BuildCatchObjectInternal@V__FrameHandler4@@@@YAXPEAUEHExceptionRecord@@PEAXPEAUHandlerType4@FH4@@PEBU_s_CatchableType@@@Z 0000000180033fd8 f   libvcruntime:frame.obj
 0001:0003309c       ??$CatchIt@V__FrameHandler4@@@@YAXPEAUEHExceptionRecord@@PEA_KPEAU_CONTEXT@@PEAU_xDISPATCHER_CONTEXT@@PEAUFuncInfo4@FH4@@PEAUHandlerType4@4@PEBU_s_CatchableType@@PEAUTryBlockMapEntry4@4@H1EE@Z 000000018003409c f   libvcruntime:frame.obj
 0001:00033170       ??$FindHandler@V__FrameHandler4@@@@YAXPEAUEHExceptionRecord@@PEA_KPEAU_CONTEXT@@PEAU_xDISPATCHER_CONTEXT@@PEAUFuncInfo4@FH4@@EH1@Z 0000000180034170 f   libvcruntime:frame.obj
 0001:0003366c       ??$FindHandlerForForeignException@V__FrameHandler4@@@@YAXPEAUEHExceptionRecord@@PEA_KPEAU_CONTEXT@@PEAU_xDISPATCHER_CONTEXT@@PEAUFuncInfo4@FH4@@HH1@Z 000000018003466c f   libvcruntime:frame.obj
 0001:00034494       ?ExFilterRethrow@@YAHPEAU_EXCEPTION_POINTERS@@PEAUEHExceptionRecord@@PEAH@Z 0000000180035494 f   libvcruntime:frame.obj
 0001:0003451c       ?ExFilterRethrowFH4@@YAHPEAU_EXCEPTION_POINTERS@@PEAUEHExceptionRecord@@HPEAH@Z 000000018003551c f   libvcruntime:frame.obj
 0001:00034848       ?IsInExceptionSpec@@YAEPEAUEHExceptionRecord@@PEBU_s_ESTypeList@@@Z 0000000180035848 f   libvcruntime:frame.obj
 0001:00034938       ?Is_bad_exception_allowed@@YAEPEBU_s_ESTypeList@@@Z 0000000180035938 f   libvcruntime:frame.obj
 0001:00034c30       $$000000                   0000000180035c30     libvcruntime:handlers.obj
 0001:00034e90       $$000000                   0000000180035e90     libucrt:strcmp.obj
 0001:00035300       $$000000                   0000000180036300     libucrt:cosf.obj
 0001:00035800       $$000000                   0000000180036800     libucrt:sinf.obj
 0001:000361d0       ??$?RV<lambda_d80eeec6fff315bfe5c115232f3240e3>@@AEAV<lambda_6e4b09c48022b2350581041d5f6b0c4c>@@V<lambda_2358e3775559c9db80273638284d5e45>@@@?$__crt_seh_guarded_call@X@@QEAAX$$QEAV<lambda_d80eeec6fff315bfe5c115232f3240e3>@@AEAV<lambda_6e4b09c48022b2350581041d5f6b0c4c>@@$$QEAV<lambda_2358e3775559c9db80273638284d5e45>@@@Z 00000001800371d0 f   libucrt:exit.obj
 0001:00036208       ??R<lambda_6e4b09c48022b2350581041d5f6b0c4c>@@QEBA@XZ 0000000180037208 f   libucrt:exit.obj
 0001:000362cc       ?atexit_exception_filter@@YAHK@Z 00000001800372cc f   libucrt:exit.obj
 0001:000362d8       ?common_exit@@YAXHW4_crt_exit_cleanup_mode@@W4_crt_exit_return_mode@@@Z 00000001800372d8 f   libucrt:exit.obj
 0001:00036394       ?exit_or_terminate_process@@YAXI@Z 0000000180037394 f   libucrt:exit.obj
 0001:000363e0       ?try_cor_exit_process@@YAXI@Z 00000001800373e0 f   libucrt:exit.obj
 0001:00036468       ??$parse_command_line@D@@YAXPEADPEAPEAD0PEA_K2@Z 0000000180037468 f   libucrt:argv_parsing.obj
 0001:00036810       ??$common_initialize_environment_nolock@D@@YAHXZ 0000000180037810 f   libucrt:environment_initialization.obj
 0001:0003687c       ??$create_environment@D@@YAQEAPEADQEAD@Z 000000018003787c f   libucrt:environment_initialization.obj
 0001:00036984       ??$free_environment@D@@YAXQEAPEAD@Z 0000000180037984 f   libucrt:environment_initialization.obj
 0001:00036984       ??$free_environment@_W@@YAXQEAPEA_W@Z 0000000180037984 f   libucrt:environment_initialization.obj
 0001:000369c8       ??$uninitialize_environment_internal@D@@YAXAEAPEAPEAD@Z 00000001800379c8 f   libucrt:environment_initialization.obj
 0001:000369e4       ??$uninitialize_environment_internal@_W@@YAXAEAPEAPEA_W@Z 00000001800379e4 f   libucrt:environment_initialization.obj
 0001:00036a40       ??$?RV<lambda_7777bce6b2f8c936911f934f8298dc43>@@AEAV<lambda_f03950bc5685219e0bcd2087efbe011e>@@V<lambda_3883c3dff614d5e0c5f61bb1ac94921c>@@@?$__crt_seh_guarded_call@H@@QEAAH$$QEAV<lambda_7777bce6b2f8c936911f934f8298dc43>@@AEAV<lambda_f03950bc5685219e0bcd2087efbe011e>@@$$QEAV<lambda_3883c3dff614d5e0c5f61bb1ac94921c>@@@Z 0000000180037a40 f   libucrt:onexit.obj
 0001:00036a7c       ??R<lambda_f03950bc5685219e0bcd2087efbe011e>@@QEBAHXZ 0000000180037a7c f   libucrt:onexit.obj
 0001:00036bf8       initialize_global_variables 0000000180037bf8 f   libucrt:initialization.obj
 0001:00036c0c       initialize_c               0000000180037c0c f   libucrt:initialization.obj
 0001:00036c30       initialize_environment     0000000180037c30 f   libucrt:initialization.obj
 0001:00036c30       initialize_global_state_isolation 0000000180037c30 f   libucrt:initialization.obj
 0001:00036c30       report_memory_leaks        0000000180037c30 f   libucrt:initialization.obj
 0001:00036c30       uninitialize_c             0000000180037c30 f   libucrt:initialization.obj
 0001:00036c30       uninitialize_global_state_isolation 0000000180037c30 f   libucrt:initialization.obj
 0001:00036c34       uninitialize_environment   0000000180037c34 f   libucrt:initialization.obj
 0001:00036c44       initialize_pointers        0000000180037c44 f   libucrt:initialization.obj
 0001:00036c84       uninitialize_vcruntime     0000000180037c84 f   libucrt:initialization.obj
 0001:00036c8c       uninitialize_allocated_memory 0000000180037c8c f   libucrt:initialization.obj
 0001:00036ccc       uninitialize_allocated_io_buffers 0000000180037ccc f   libucrt:initialization.obj
 0001:00036e88       ??$common_vsprintf@Vformat_validation_base@__crt_stdio_output@@D@@YAH_KQEAD0QEBDQEAU__crt_locale_pointers@@1@Z 0000000180037e88 f   libucrt:output.obj
 0001:00037054       ??$common_vsprintf@Vstandard_base@__crt_stdio_output@@D@@YAH_KQEAD0QEBDQEAU__crt_locale_pointers@@1@Z 0000000180038054 f   libucrt:output.obj
 0001:00038008       $LN17                      0000000180039008     libucrt:output.obj
 0001:00038b70       $$000000                   0000000180039b70     libucrt:strncmp.obj
 0001:00038d04       _call_matherr              0000000180039d04 f   libucrt:libm_error.obj
 0001:00038d6c       _exception_enabled         0000000180039d6c f   libucrt:libm_error.obj
 0001:000390b0       $$000000                   000000018003a0b0     libucrt:remainder_piby2f_forasm.obj
 0001:00039200       $$000000                   000000018003a200     libucrt:remainder_piby2_forfma3.obj
 0001:0003947c       _sincosf_special           000000018003a47c f   libucrt:sincos_special.obj
 0001:00039590       $$000000                   000000018003a590     libucrt:remainder_piby2f_forc.obj
 0001:0003975c       ??$?RV<lambda_0ae27a3a962d80f24befdcbee591983d>@@AEAV<lambda_8d0ee55de4b1038c4002e0adecdf1839>@@V<lambda_dc504788e8f1664fe9b84e20bfb512f2>@@@?$__crt_seh_guarded_call@X@@QEAAX$$QEAV<lambda_0ae27a3a962d80f24befdcbee591983d>@@AEAV<lambda_8d0ee55de4b1038c4002e0adecdf1839>@@$$QEAV<lambda_dc504788e8f1664fe9b84e20bfb512f2>@@@Z 000000018003a75c f   libucrt:per_thread_data.obj
 0001:0003979c       ??$?RV<lambda_2d41944a1d46af3157314b8a01080d33>@@AEAV<lambda_8f455de75cd7d7f24b4096f044d8b9e6>@@V<lambda_aa500f224e6afead328df44964fe2772>@@@?$__crt_seh_guarded_call@X@@QEAAX$$QEAV<lambda_2d41944a1d46af3157314b8a01080d33>@@AEAV<lambda_8f455de75cd7d7f24b4096f044d8b9e6>@@$$QEAV<lambda_aa500f224e6afead328df44964fe2772>@@@Z 000000018003a79c f   libucrt:per_thread_data.obj
 0001:000397dc       ??$?RV<lambda_aa87e3671a710a21b5dc78c0bdf72e11>@@AEAV<lambda_92619d2358a28f41a33ba319515a20b9>@@V<lambda_6992ecaafeb10aed2b74cb1fae11a551>@@@?$__crt_seh_guarded_call@X@@QEAAX$$QEAV<lambda_aa87e3671a710a21b5dc78c0bdf72e11>@@AEAV<lambda_92619d2358a28f41a33ba319515a20b9>@@$$QEAV<lambda_6992ecaafeb10aed2b74cb1fae11a551>@@@Z 000000018003a7dc f   libucrt:per_thread_data.obj
 0001:00039824       ??$?RV<lambda_f2e299630e499de9f9a165e60fcd3db5>@@AEAV<lambda_2ae9d31cdba2644fcbeaf08da7c24588>@@V<lambda_40d01ff24d0e7b3814fdbdcee8eab3c7>@@@?$__crt_seh_guarded_call@X@@QEAAX$$QEAV<lambda_f2e299630e499de9f9a165e60fcd3db5>@@AEAV<lambda_2ae9d31cdba2644fcbeaf08da7c24588>@@$$QEAV<lambda_40d01ff24d0e7b3814fdbdcee8eab3c7>@@@Z 000000018003a824 f   libucrt:per_thread_data.obj
 0001:00039884       ?construct_ptd_array@@YAXQEAU__acrt_ptd@@@Z 000000018003a884 f   libucrt:per_thread_data.obj
 0001:00039954       ?destroy_fls@@YAXPEAX@Z    000000018003a954 f   libucrt:per_thread_data.obj
 0001:00039974       ?destroy_ptd_array@@YAXQEAU__acrt_ptd@@@Z 000000018003a974 f   libucrt:per_thread_data.obj
 0001:00039a6c       ?replace_current_thread_locale_nolock@@YAXQEAU__acrt_ptd@@QEAU__crt_locale_data@@@Z 000000018003aa6c f   libucrt:per_thread_data.obj
 0001:0003a280       ?<lambda_invoker_cdecl>@<lambda_a1ce4c8ae42411fd470c77163914f50e>@@CAHPEBX0@Z 000000018003b280 f   libucrt:argv_wildcards.obj
 0001:0003a598       ??$common_expand_argv_wildcards@D@@YAHQEAPEADQEAPEAPEAD@Z 000000018003b598 f   libucrt:argv_wildcards.obj
 0001:0003a7a4       ??$copy_and_add_argument_to_buffer@D@@YAHQEBD0_KAEAV?$argument_list@D@?A0x5f5c8891@@@Z 000000018003b7a4 f   libucrt:argv_wildcards.obj
 0001:0003a92c       ??$expand_argument_wildcards@D@@YAHQEAD0AEAV?$argument_list@D@?A0x5f5c8891@@@Z 000000018003b92c f   libucrt:argv_wildcards.obj
 0001:0003ae78       ??$?RV<lambda_efdfa57d1f175319df784efa44bb7b81>@@AEAV<lambda_5f0a4c1567f8adc6734073e5d1e1b35c>@@V<lambda_2e8a7d3640ea6ccb4c2413664c2db6fd>@@@?$__crt_seh_guarded_call@X@@QEAAX$$QEAV<lambda_efdfa57d1f175319df784efa44bb7b81>@@AEAV<lambda_5f0a4c1567f8adc6734073e5d1e1b35c>@@$$QEAV<lambda_2e8a7d3640ea6ccb4c2413664c2db6fd>@@@Z 000000018003be78 f   libucrt:mbctype.obj
 0001:0003b034       ?getSystemCP@@YAHH@Z       000000018003c034 f   libucrt:mbctype.obj
 0001:0003b0b4       ?setSBCS@@YAXPEAU__crt_multibyte_data@@@Z 000000018003c0b4 f   libucrt:mbctype.obj
 0001:0003b144       ?setSBUpLow@@YAXPEAU__crt_multibyte_data@@@Z 000000018003c144 f   libucrt:mbctype.obj
 0001:0003b328       ?setmbcp_internal@@YAHH_NQEAU__acrt_ptd@@QEAPEAU__crt_multibyte_data@@@Z 000000018003c328 f   libucrt:mbctype.obj
 0001:0003b4e8       ?update_thread_multibyte_data_internal@@YAPEAU__crt_multibyte_data@@QEAU__acrt_ptd@@QEAPEAU1@@Z 000000018003c4e8 f   libucrt:mbctype.obj
 0001:0003b8d8       ?x_ismbbtype_l@@YAHPEAU__crt_locale_pointers@@IHH@Z 000000018003c8d8 f   libucrt:ismbbyte.obj
 0001:0003bc34       ?try_get_function@@YAPEAXW4function_id@?A0x391cf84c@@QEBDQEBW4module_id@2@2@Z 000000018003cc34 f   libucrt:winapi_thunks.obj
 0001:0003c1f4       ?initialize_inherited_file_handles_nolock@@YAXXZ 000000018003d1f4 f   libucrt:ioinit.obj
 0001:0003c2e4       ?initialize_stdio_handles_nolock@@YAXXZ 000000018003d2e4 f   libucrt:ioinit.obj
 0001:0003c594       ??$?RV<lambda_450d765d439847d4c735a33c368b5fc0>@@AEAV<lambda_44731a7d0e6d81c3e6aa82d741081786>@@V<lambda_601a2a7da3b7a96e9554ac7215c4b07c>@@@?$__crt_seh_guarded_call@P6AXH@Z@@QEAAP6AXH@Z$$QEAV<lambda_450d765d439847d4c735a33c368b5fc0>@@AEAV<lambda_44731a7d0e6d81c3e6aa82d741081786>@@$$QEAV<lambda_601a2a7da3b7a96e9554ac7215c4b07c>@@@Z 000000018003d594 f   libucrt:signal.obj
 0001:0003c8f0       ??$?RV<lambda_842d9ff0dc9ef11c61343bbaebe7f885>@@AEAV<lambda_c5860995281e5c4ce005b3de8f5874ee>@@V<lambda_d90129c13df834fdcbf8d2b88dafcf2d>@@@?$__crt_seh_guarded_call@X@@QEAAX$$QEAV<lambda_842d9ff0dc9ef11c61343bbaebe7f885>@@AEAV<lambda_c5860995281e5c4ce005b3de8f5874ee>@@$$QEAV<lambda_d90129c13df834fdcbf8d2b88dafcf2d>@@@Z 000000018003d8f0 f   libucrt:fflush.obj
 0001:0003c98c       ??$?RV<lambda_886d6c58226a84441f68b9f2b8217b83>@@AEAV<lambda_ab61a845afdef5b7c387490eaf3616ee>@@V<lambda_f7f22ab5edc0698d5f6905b0d3f44752>@@@?$__crt_seh_guarded_call@X@@QEAAX$$QEAV<lambda_886d6c58226a84441f68b9f2b8217b83>@@AEAV<lambda_ab61a845afdef5b7c387490eaf3616ee>@@$$QEAV<lambda_f7f22ab5edc0698d5f6905b0d3f44752>@@@Z 000000018003d98c f   libucrt:fflush.obj
 0001:0003ca6c       ?common_flush_all@@YAH_N@Z 000000018003da6c f   libucrt:fflush.obj
 0001:0003d470       ?fp_format_a@@YAHQEBNPEAD_KQEAD2H_NIQEAU__crt_locale_pointers@@W4__acrt_rounding_mode@@@Z 000000018003e470 f   libucrt:cvt.obj
 0001:0003d7f0       ?fp_format_e@@YAHQEBNQEAD_K12H_NIQEAU__crt_locale_pointers@@W4__acrt_rounding_mode@@@Z 000000018003e7f0 f   libucrt:cvt.obj
 0001:0003d8e0       ?fp_format_e_internal@@YAHQEAD_KH_NIQEAU_strflt@@2QEAU__crt_locale_pointers@@@Z 000000018003e8e0 f   libucrt:cvt.obj
 0001:0003dab4       ?fp_format_f_internal@@YAHQEAD_KHQEAU_strflt@@_NQEAU__crt_locale_pointers@@@Z 000000018003eab4 f   libucrt:cvt.obj
 0001:0003dc1c       ?fp_format_g@@YAHQEBNQEAD_K12H_NIW4__acrt_rounding_mode@@QEAU__crt_locale_pointers@@@Z 000000018003ec1c f   libucrt:cvt.obj
 0001:0003dd64       ?should_round_up@@YA_NQEBN_KFW4__acrt_rounding_mode@@@Z 000000018003ed64 f   libucrt:cvt.obj
 0001:0003e1f4       ??$?RV<lambda_410d79af7f07d98d83a3f525b3859a53>@@AEAV<lambda_3e16ef9562a7dcce91392c22ab16ea36>@@V<lambda_38119f0e861e05405d8a144b9b982f0a>@@@?$__crt_seh_guarded_call@X@@QEAAX$$QEAV<lambda_410d79af7f07d98d83a3f525b3859a53>@@AEAV<lambda_3e16ef9562a7dcce91392c22ab16ea36>@@$$QEAV<lambda_38119f0e861e05405d8a144b9b982f0a>@@@Z 000000018003f1f4 f   libucrt:wsetlocale.obj
 0001:0003e3e0       $$000000                   000000018003f3e0     libucrt:fpsr.obj
 0001:0003f064       fallbackMethod             0000000180040064 f   libucrt:strpbrk.obj
 0001:0003f41c       $LN78                      000000018004041c     libucrt:strpbrk.obj
 0001:0003f458       $LN77                      0000000180040458     libucrt:strpbrk.obj
 0001:0003f498       $LN76                      0000000180040498     libucrt:strpbrk.obj
 0001:0003f704       ?__acrt_LCMapStringA_stat@@YAHPEAU__crt_locale_pointers@@PEB_WKPEBDHPEADHHH@Z 0000000180040704 f   libucrt:lcmapstringa.obj
 0001:0003fab4       ?initialize_multibyte@@YAHXZ 0000000180040ab4 f   libucrt:multibyte_initializer.obj
 0001:0003ff58       ??$?RV<lambda_a37b2b86f63e897a80ea819b0eb08c01>@@AEAV<lambda_38ce7e780aa69e748d6df282ebc68efe>@@V<lambda_99fb1378e971ab6e7edea83e3a7a83a2>@@@?$__crt_seh_guarded_call@H@@QEAAH$$QEAV<lambda_a37b2b86f63e897a80ea819b0eb08c01>@@AEAV<lambda_38ce7e780aa69e748d6df282ebc68efe>@@$$QEAV<lambda_99fb1378e971ab6e7edea83e3a7a83a2>@@@Z 0000000180040f58 f   libucrt:commit.obj
 0001:00040078       ?write_double_translated_ansi_nolock@@YA?AUwrite_result@?A0x17268360@@HQEBDI@Z 0000000180041078 f   libucrt:write.obj
 0001:00040564       ?write_text_ansi_nolock@@YA?AUwrite_result@?A0x17268360@@HQEBDI@Z 0000000180041564 f   libucrt:write.obj
 0001:00040668       ?write_text_utf16le_nolock@@YA?AUwrite_result@?A0x17268360@@HQEBDI@Z 0000000180041668 f   libucrt:write.obj
 0001:00040784       ?write_text_utf8_nolock@@YA?AUwrite_result@?A0x17268360@@HQEBDI@Z 0000000180041784 f   libucrt:write.obj
 0001:000428a0       memcpy_s                   00000001800438a0 f   libucrt:cfout.obj
 0001:00042ab4       ?free_crt_array_internal@@YAXQEAPEBX_K@Z 0000000180043ab4 f   libucrt:inittime.obj
 0001:00042c80       ??$common_lseek_nolock@_J@@YA_JH_JH@Z 0000000180043c80 f   libucrt:lseek.obj
 0001:00043210       $$000000                   0000000180044210     libucrt:log10.obj
 0001:00043c0c       ??$?RV<lambda_751a882b2c74d4b022dec766aa51a29a>@@AEAV<lambda_628dfdc04ba53c8bfc02c9951375f3f5>@@V<lambda_f6c7be5f7998530c34de24c7437d6b54>@@@?$__crt_seh_guarded_call@H@@QEAAH$$QEAV<lambda_751a882b2c74d4b022dec766aa51a29a>@@AEAV<lambda_628dfdc04ba53c8bfc02c9951375f3f5>@@$$QEAV<lambda_f6c7be5f7998530c34de24c7437d6b54>@@@Z 0000000180044c0c f   libucrt:close.obj
 0001:00043e78       common_control87           0000000180044e78 f   libucrt:ieee.obj
 0001:00044160       _log_special_common        0000000180045160 f   libucrt:log_special.obj
 0001:00044350       $$000000                   0000000180045350     LIBCMT:amdsecgs.obj
 0001:000445c0       capture_current_context    00000001800455c0 f   LIBCMT:gs_report.obj
 0001:00044630       capture_previous_context   0000000180045630 f   LIBCMT:gs_report.obj
 0001:000447e0       $$000000                   00000001800457e0     libvcruntime:memcmp.obj
 0001:000448c0       $$000000                   00000001800458c0     LIBCMT:guard_dispatch.obj
 0001:000448e0       $$000000                   00000001800458e0     LIBCMT:guard_xfg_dispatch.obj
 0001:00044900       ?fin$0@?0??dllmain_crt_process_attach@@YAHQEAUHINSTANCE__@@QEAX@Z@4HA 0000000180045900 f   LIBCMT:dll_dllmain.obj
 0001:00044917       ?fin$0@?0??dllmain_crt_process_detach@@YAH_N@Z@4HA 0000000180045917 f   LIBCMT:dll_dllmain.obj
 0001:00044930       ?fin$1@?0??dllmain_crt_process_detach@@YAH_N@Z@4HA 0000000180045930 f   LIBCMT:dll_dllmain.obj
 0001:00044944       ?filt$0@?0??dllmain_dispatch@@YAHQEAUHINSTANCE__@@KQEAX@Z@4HA 0000000180045944 f   LIBCMT:dll_dllmain.obj
 0001:0004497a       __scrt_is_nonwritable_in_current_image$filt$0 000000018004597a f   LIBCMT:utility.obj
 0001:00044992       __DestructExceptionObject$filt$0 0000000180045992 f   libvcruntime:ehhelpers.obj
 0001:00044a28       ?dtor$0@?0??getDecoratedName@UnDecorator@@CA?AVDName@@XZ@4HA 0000000180045a28 f   libvcruntime:undname.obj
 0001:00044a34       __unDNameEx$fin$0          0000000180045a34 f   libvcruntime:undname.obj
 0001:00044a4a       ?filt$0@?0???$_CallSETranslator@V__FrameHandler4@@@@YAHPEAUEHExceptionRecord@@PEA_KPEAU_CONTEXT@@PEAU_xDISPATCHER_CONTEXT@@PEAUFuncInfo4@FH4@@K1H@Z@4HA 0000000180045a4a f   libvcruntime:risctrnsctrl.obj
 0001:00044ae9       ?filt$0@?0??CxxCallCatchBlock@__FrameHandler4@@SAPEAXPEAU_EXCEPTION_RECORD@@@Z@4HA 0000000180045ae9 f   libvcruntime:frame.obj
 0001:00044b18       ?fin$1@?0??CxxCallCatchBlock@__FrameHandler4@@SAPEAXPEAU_EXCEPTION_RECORD@@@Z@4HA 0000000180045b18 f   libvcruntime:frame.obj
 0001:00044ba9       ?filt$0@?0??FrameUnwindToState@__FrameHandler4@@SAXPEA_KPEAU_xDISPATCHER_CONTEXT@@PEAUFuncInfo4@FH4@@H@Z@4HA 0000000180045ba9 f   libvcruntime:frame.obj
 0001:00044bbf       ?fin$1@?0??FrameUnwindToState@__FrameHandler4@@SAXPEA_KPEAU_xDISPATCHER_CONTEXT@@PEAUFuncInfo4@FH4@@H@Z@4HA 0000000180045bbf f   libvcruntime:frame.obj
 0001:00044be2       ?fin$0@?0???$?RV<lambda_0ae27a3a962d80f24befdcbee591983d>@@AEAV<lambda_8d0ee55de4b1038c4002e0adecdf1839>@@V<lambda_dc504788e8f1664fe9b84e20bfb512f2>@@@?$__crt_seh_guarded_call@X@@QEAAX$$QEAV<lambda_0ae27a3a962d80f24befdcbee591983d>@@AEAV<lambda_8d0ee55de4b1038c4002e0adecdf1839>@@$$QEAV<lambda_dc504788e8f1664fe9b84e20bfb512f2>@@@Z@4HA 0000000180045be2 f   libucrt:per_thread_data.obj
 0001:00044be2       ?fin$0@?0???$?RV<lambda_2d41944a1d46af3157314b8a01080d33>@@AEAV<lambda_8f455de75cd7d7f24b4096f044d8b9e6>@@V<lambda_aa500f224e6afead328df44964fe2772>@@@?$__crt_seh_guarded_call@X@@QEAAX$$QEAV<lambda_2d41944a1d46af3157314b8a01080d33>@@AEAV<lambda_8f455de75cd7d7f24b4096f044d8b9e6>@@$$QEAV<lambda_aa500f224e6afead328df44964fe2772>@@@Z@4HA 0000000180045be2 f   libucrt:per_thread_data.obj
 0001:00044be2       ?fin$0@?0???$?RV<lambda_aa87e3671a710a21b5dc78c0bdf72e11>@@AEAV<lambda_92619d2358a28f41a33ba319515a20b9>@@V<lambda_6992ecaafeb10aed2b74cb1fae11a551>@@@?$__crt_seh_guarded_call@X@@QEAAX$$QEAV<lambda_aa87e3671a710a21b5dc78c0bdf72e11>@@AEAV<lambda_92619d2358a28f41a33ba319515a20b9>@@$$QEAV<lambda_6992ecaafeb10aed2b74cb1fae11a551>@@@Z@4HA 0000000180045be2 f   libucrt:per_thread_data.obj
 0001:00044be2       ?fin$0@?0???$?RV<lambda_f2e299630e499de9f9a165e60fcd3db5>@@AEAV<lambda_2ae9d31cdba2644fcbeaf08da7c24588>@@V<lambda_40d01ff24d0e7b3814fdbdcee8eab3c7>@@@?$__crt_seh_guarded_call@X@@QEAAX$$QEAV<lambda_f2e299630e499de9f9a165e60fcd3db5>@@AEAV<lambda_2ae9d31cdba2644fcbeaf08da7c24588>@@$$QEAV<lambda_40d01ff24d0e7b3814fdbdcee8eab3c7>@@@Z@4HA 0000000180045be2 f   libucrt:per_thread_data.obj
 0001:00044be2       ?fin$0@?0???$?RV<lambda_efdfa57d1f175319df784efa44bb7b81>@@AEAV<lambda_5f0a4c1567f8adc6734073e5d1e1b35c>@@V<lambda_2e8a7d3640ea6ccb4c2413664c2db6fd>@@@?$__crt_seh_guarded_call@X@@QEAAX$$QEAV<lambda_efdfa57d1f175319df784efa44bb7b81>@@AEAV<lambda_5f0a4c1567f8adc6734073e5d1e1b35c>@@$$QEAV<lambda_2e8a7d3640ea6ccb4c2413664c2db6fd>@@@Z@4HA 0000000180045be2 f   libucrt:mbctype.obj
 0001:00044be2       ?fin$0@?0???$?RV<lambda_450d765d439847d4c735a33c368b5fc0>@@AEAV<lambda_44731a7d0e6d81c3e6aa82d741081786>@@V<lambda_601a2a7da3b7a96e9554ac7215c4b07c>@@@?$__crt_seh_guarded_call@P6AXH@Z@@QEAAP6AXH@Z$$QEAV<lambda_450d765d439847d4c735a33c368b5fc0>@@AEAV<lambda_44731a7d0e6d81c3e6aa82d741081786>@@$$QEAV<lambda_601a2a7da3b7a96e9554ac7215c4b07c>@@@Z@4HA 0000000180045be2 f   libucrt:signal.obj
 0001:00044be2       ?fin$0@?0???$?RV<lambda_d80eeec6fff315bfe5c115232f3240e3>@@AEAV<lambda_6e4b09c48022b2350581041d5f6b0c4c>@@V<lambda_2358e3775559c9db80273638284d5e45>@@@?$__crt_seh_guarded_call@X@@QEAAX$$QEAV<lambda_d80eeec6fff315bfe5c115232f3240e3>@@AEAV<lambda_6e4b09c48022b2350581041d5f6b0c4c>@@$$QEAV<lambda_2358e3775559c9db80273638284d5e45>@@@Z@4HA 0000000180045be2 f   libucrt:exit.obj
 0001:00044be2       ?fin$0@?0???$?RV<lambda_7777bce6b2f8c936911f934f8298dc43>@@AEAV<lambda_f03950bc5685219e0bcd2087efbe011e>@@V<lambda_3883c3dff614d5e0c5f61bb1ac94921c>@@@?$__crt_seh_guarded_call@H@@QEAAH$$QEAV<lambda_7777bce6b2f8c936911f934f8298dc43>@@AEAV<lambda_f03950bc5685219e0bcd2087efbe011e>@@$$QEAV<lambda_3883c3dff614d5e0c5f61bb1ac94921c>@@@Z@4HA 0000000180045be2 f   libucrt:onexit.obj
 0001:00044bfc       ?filt$0@?0???R<lambda_6e4b09c48022b2350581041d5f6b0c4c>@@QEBA@XZ@4HA 0000000180045bfc f   libucrt:exit.obj
 0001:00044c17       _ctrlfp$filt$0             0000000180045c17 f   libucrt:fpctrl.obj
 0001:00044c17       common_control87$filt$0    0000000180045c17 f   libucrt:ieee.obj
 0001:00044c43       ?fin$0@?0??update_thread_multibyte_data_internal@@YAPEAU__crt_multibyte_data@@QEAU__acrt_ptd@@QEAPEAU1@@Z@4HA 0000000180045c43 f   libucrt:mbctype.obj
 0001:00044c5c       __acrt_initialize_lowio$fin$0 0000000180045c5c f   libucrt:ioinit.obj
 0001:00044c5c       __acrt_lowio_ensure_fh_exists$fin$0 0000000180045c5c f   libucrt:osfinfo.obj
 0001:00044c75       _query_new_handler$fin$0   0000000180045c75 f   libucrt:new_handler.obj
 0001:00044c8b       raise$fin$0                0000000180045c8b f   libucrt:signal.obj
 0001:00044cac       ?fin$0@?0???$?RV<lambda_842d9ff0dc9ef11c61343bbaebe7f885>@@AEAV<lambda_c5860995281e5c4ce005b3de8f5874ee>@@V<lambda_d90129c13df834fdcbf8d2b88dafcf2d>@@@?$__crt_seh_guarded_call@X@@QEAAX$$QEAV<lambda_842d9ff0dc9ef11c61343bbaebe7f885>@@AEAV<lambda_c5860995281e5c4ce005b3de8f5874ee>@@$$QEAV<lambda_d90129c13df834fdcbf8d2b88dafcf2d>@@@Z@4HA 0000000180045cac f   libucrt:fflush.obj
 0001:00044cc7       ?fin$0@?0???$?RV<lambda_886d6c58226a84441f68b9f2b8217b83>@@AEAV<lambda_ab61a845afdef5b7c387490eaf3616ee>@@V<lambda_f7f22ab5edc0698d5f6905b0d3f44752>@@@?$__crt_seh_guarded_call@X@@QEAAX$$QEAV<lambda_886d6c58226a84441f68b9f2b8217b83>@@AEAV<lambda_ab61a845afdef5b7c387490eaf3616ee>@@$$QEAV<lambda_f7f22ab5edc0698d5f6905b0d3f44752>@@@Z@4HA 0000000180045cc7 f   libucrt:fflush.obj
 0001:00044ce4       ?fin$0@?0???$?RV<lambda_410d79af7f07d98d83a3f525b3859a53>@@AEAV<lambda_3e16ef9562a7dcce91392c22ab16ea36>@@V<lambda_38119f0e861e05405d8a144b9b982f0a>@@@?$__crt_seh_guarded_call@X@@QEAAX$$QEAV<lambda_410d79af7f07d98d83a3f525b3859a53>@@AEAV<lambda_3e16ef9562a7dcce91392c22ab16ea36>@@$$QEAV<lambda_38119f0e861e05405d8a144b9b982f0a>@@@Z@4HA 0000000180045ce4 f   libucrt:wsetlocale.obj
 0001:00044cfe       __acrt_update_thread_locale_data$fin$0 0000000180045cfe f   libucrt:locale_refcounting.obj
 0001:00044d17       ?fin$0@?0???$?RV<lambda_751a882b2c74d4b022dec766aa51a29a>@@AEAV<lambda_628dfdc04ba53c8bfc02c9951375f3f5>@@V<lambda_f6c7be5f7998530c34de24c7437d6b54>@@@?$__crt_seh_guarded_call@H@@QEAAH$$QEAV<lambda_751a882b2c74d4b022dec766aa51a29a>@@AEAV<lambda_628dfdc04ba53c8bfc02c9951375f3f5>@@$$QEAV<lambda_f6c7be5f7998530c34de24c7437d6b54>@@@Z@4HA 0000000180045d17 f   libucrt:close.obj
 0001:00044d17       ?fin$0@?0???$?RV<lambda_a37b2b86f63e897a80ea819b0eb08c01>@@AEAV<lambda_38ce7e780aa69e748d6df282ebc68efe>@@V<lambda_99fb1378e971ab6e7edea83e3a7a83a2>@@@?$__crt_seh_guarded_call@H@@QEAAH$$QEAV<lambda_a37b2b86f63e897a80ea819b0eb08c01>@@AEAV<lambda_38ce7e780aa69e748d6df282ebc68efe>@@$$QEAV<lambda_99fb1378e971ab6e7edea83e3a7a83a2>@@@Z@4HA 0000000180045d17 f   libucrt:commit.obj
 0001:00044d31       _write$fin$0               0000000180045d31 f   libucrt:write.obj
 0001:00044d48       _fcloseall$fin$0           0000000180045d48 f   libucrt:closeall.obj
 0001:00044d61       fclose$fin$0               0000000180045d61 f   libucrt:fclose.obj
 0001:00044d80       _IsNonwritableInCurrentImage$filt$0 0000000180045d80 f   LIBCMT:pesect.obj
 0002:00000298       ?minFError$initializer$@_VecMathTests@aos@shdfnd@physx@@3P6AXXZEA 0000000180046298     Cooking.obj
 0002:000002a0       ?maxFError$initializer$@_VecMathTests@aos@shdfnd@physx@@3P6AXXZEA 00000001800462a0     Cooking.obj
 0002:000002a8       ?minV3Error$initializer$@_VecMathTests@aos@shdfnd@physx@@3P6AXXZEA 00000001800462a8     Cooking.obj
 0002:000002b0       ?maxV3Error$initializer$@_VecMathTests@aos@shdfnd@physx@@3P6AXXZEA 00000001800462b0     Cooking.obj
 0002:000002b8       ?minV4Error$initializer$@_VecMathTests@aos@shdfnd@physx@@3P6AXXZEA 00000001800462b8     Cooking.obj
 0002:000002c0       ?maxV4Error$initializer$@_VecMathTests@aos@shdfnd@physx@@3P6AXXZEA 00000001800462c0     Cooking.obj
 0002:000002c8       ?minFError$initializer$@_VecMathTests@aos@shdfnd@physx@@3P6AXXZEA 00000001800462c8     BVHStructureBuilder.obj
 0002:000002d0       ?maxFError$initializer$@_VecMathTests@aos@shdfnd@physx@@3P6AXXZEA 00000001800462d0     BVHStructureBuilder.obj
 0002:000002d8       ?minV3Error$initializer$@_VecMathTests@aos@shdfnd@physx@@3P6AXXZEA 00000001800462d8     BVHStructureBuilder.obj
 0002:000002e0       ?maxV3Error$initializer$@_VecMathTests@aos@shdfnd@physx@@3P6AXXZEA 00000001800462e0     BVHStructureBuilder.obj
 0002:000002e8       ?minV4Error$initializer$@_VecMathTests@aos@shdfnd@physx@@3P6AXXZEA 00000001800462e8     BVHStructureBuilder.obj
 0002:000002f0       ?maxV4Error$initializer$@_VecMathTests@aos@shdfnd@physx@@3P6AXXZEA 00000001800462f0     BVHStructureBuilder.obj
 0002:000002f8       ?minFError$initializer$@_VecMathTests@aos@shdfnd@physx@@3P6AXXZEA 00000001800462f8     RTreeCooking.obj
 0002:00000300       ?maxFError$initializer$@_VecMathTests@aos@shdfnd@physx@@3P6AXXZEA 0000000180046300     RTreeCooking.obj
 0002:00000308       ?minV3Error$initializer$@_VecMathTests@aos@shdfnd@physx@@3P6AXXZEA 0000000180046308     RTreeCooking.obj
 0002:00000310       ?maxV3Error$initializer$@_VecMathTests@aos@shdfnd@physx@@3P6AXXZEA 0000000180046310     RTreeCooking.obj
 0002:00000318       ?minV4Error$initializer$@_VecMathTests@aos@shdfnd@physx@@3P6AXXZEA 0000000180046318     RTreeCooking.obj
 0002:00000320       ?maxV4Error$initializer$@_VecMathTests@aos@shdfnd@physx@@3P6AXXZEA 0000000180046320     RTreeCooking.obj
 0002:00000328       ?minFError$initializer$@_VecMathTests@aos@shdfnd@physx@@3P6AXXZEA 0000000180046328     MeshBuilder.obj
 0002:00000330       ?maxFError$initializer$@_VecMathTests@aos@shdfnd@physx@@3P6AXXZEA 0000000180046330     MeshBuilder.obj
 0002:00000338       ?minV3Error$initializer$@_VecMathTests@aos@shdfnd@physx@@3P6AXXZEA 0000000180046338     MeshBuilder.obj
 0002:00000340       ?maxV3Error$initializer$@_VecMathTests@aos@shdfnd@physx@@3P6AXXZEA 0000000180046340     MeshBuilder.obj
 0002:00000348       ?minV4Error$initializer$@_VecMathTests@aos@shdfnd@physx@@3P6AXXZEA 0000000180046348     MeshBuilder.obj
 0002:00000350       ?maxV4Error$initializer$@_VecMathTests@aos@shdfnd@physx@@3P6AXXZEA 0000000180046350     MeshBuilder.obj
 0002:00000358       ?minFError$initializer$@_VecMathTests@aos@shdfnd@physx@@3P6AXXZEA 0000000180046358     TriangleMeshBuilder.obj
 0002:00000360       ?maxFError$initializer$@_VecMathTests@aos@shdfnd@physx@@3P6AXXZEA 0000000180046360     TriangleMeshBuilder.obj
 0002:00000368       ?minV3Error$initializer$@_VecMathTests@aos@shdfnd@physx@@3P6AXXZEA 0000000180046368     TriangleMeshBuilder.obj
 0002:00000370       ?maxV3Error$initializer$@_VecMathTests@aos@shdfnd@physx@@3P6AXXZEA 0000000180046370     TriangleMeshBuilder.obj
 0002:00000378       ?minV4Error$initializer$@_VecMathTests@aos@shdfnd@physx@@3P6AXXZEA 0000000180046378     TriangleMeshBuilder.obj
 0002:00000380       ?maxV4Error$initializer$@_VecMathTests@aos@shdfnd@physx@@3P6AXXZEA 0000000180046380     TriangleMeshBuilder.obj
 0002:00000388       ?minFError$initializer$@_VecMathTests@aos@shdfnd@physx@@3P6AXXZEA 0000000180046388     BigConvexDataBuilder.obj
 0002:00000390       ?maxFError$initializer$@_VecMathTests@aos@shdfnd@physx@@3P6AXXZEA 0000000180046390     BigConvexDataBuilder.obj
 0002:00000398       ?minV3Error$initializer$@_VecMathTests@aos@shdfnd@physx@@3P6AXXZEA 0000000180046398     BigConvexDataBuilder.obj
 0002:000003a0       ?maxV3Error$initializer$@_VecMathTests@aos@shdfnd@physx@@3P6AXXZEA 00000001800463a0     BigConvexDataBuilder.obj
 0002:000003a8       ?minV4Error$initializer$@_VecMathTests@aos@shdfnd@physx@@3P6AXXZEA 00000001800463a8     BigConvexDataBuilder.obj
 0002:000003b0       ?maxV4Error$initializer$@_VecMathTests@aos@shdfnd@physx@@3P6AXXZEA 00000001800463b0     BigConvexDataBuilder.obj
 0002:000003b8       ?minFError$initializer$@_VecMathTests@aos@shdfnd@physx@@3P6AXXZEA 00000001800463b8     ConvexHullBuilder.obj
 0002:000003c0       ?maxFError$initializer$@_VecMathTests@aos@shdfnd@physx@@3P6AXXZEA 00000001800463c0     ConvexHullBuilder.obj
 0002:000003c8       ?minV3Error$initializer$@_VecMathTests@aos@shdfnd@physx@@3P6AXXZEA 00000001800463c8     ConvexHullBuilder.obj
 0002:000003d0       ?maxV3Error$initializer$@_VecMathTests@aos@shdfnd@physx@@3P6AXXZEA 00000001800463d0     ConvexHullBuilder.obj
 0002:000003d8       ?minV4Error$initializer$@_VecMathTests@aos@shdfnd@physx@@3P6AXXZEA 00000001800463d8     ConvexHullBuilder.obj
 0002:000003e0       ?maxV4Error$initializer$@_VecMathTests@aos@shdfnd@physx@@3P6AXXZEA 00000001800463e0     ConvexHullBuilder.obj
 0002:000003e8       ?minFError$initializer$@_VecMathTests@aos@shdfnd@physx@@3P6AXXZEA 00000001800463e8     ConvexHullUtils.obj
 0002:000003f0       ?maxFError$initializer$@_VecMathTests@aos@shdfnd@physx@@3P6AXXZEA 00000001800463f0     ConvexHullUtils.obj
 0002:000003f8       ?minV3Error$initializer$@_VecMathTests@aos@shdfnd@physx@@3P6AXXZEA 00000001800463f8     ConvexHullUtils.obj
 0002:00000400       ?maxV3Error$initializer$@_VecMathTests@aos@shdfnd@physx@@3P6AXXZEA 0000000180046400     ConvexHullUtils.obj
 0002:00000408       ?minV4Error$initializer$@_VecMathTests@aos@shdfnd@physx@@3P6AXXZEA 0000000180046408     ConvexHullUtils.obj
 0002:00000410       ?maxV4Error$initializer$@_VecMathTests@aos@shdfnd@physx@@3P6AXXZEA 0000000180046410     ConvexHullUtils.obj
 0002:00000418       ?minFError$initializer$@_VecMathTests@aos@shdfnd@physx@@3P6AXXZEA 0000000180046418     ConvexMeshBuilder.obj
 0002:00000420       ?maxFError$initializer$@_VecMathTests@aos@shdfnd@physx@@3P6AXXZEA 0000000180046420     ConvexMeshBuilder.obj
 0002:00000428       ?minV3Error$initializer$@_VecMathTests@aos@shdfnd@physx@@3P6AXXZEA 0000000180046428     ConvexMeshBuilder.obj
 0002:00000430       ?maxV3Error$initializer$@_VecMathTests@aos@shdfnd@physx@@3P6AXXZEA 0000000180046430     ConvexMeshBuilder.obj
 0002:00000438       ?minV4Error$initializer$@_VecMathTests@aos@shdfnd@physx@@3P6AXXZEA 0000000180046438     ConvexMeshBuilder.obj
 0002:00000440       ?maxV4Error$initializer$@_VecMathTests@aos@shdfnd@physx@@3P6AXXZEA 0000000180046440     ConvexMeshBuilder.obj
 0002:00000448       ?minFError$initializer$@_VecMathTests@aos@shdfnd@physx@@3P6AXXZEA 0000000180046448     VolumeIntegration.obj
 0002:00000450       ?maxFError$initializer$@_VecMathTests@aos@shdfnd@physx@@3P6AXXZEA 0000000180046450     VolumeIntegration.obj
 0002:00000458       ?minV3Error$initializer$@_VecMathTests@aos@shdfnd@physx@@3P6AXXZEA 0000000180046458     VolumeIntegration.obj
 0002:00000460       ?maxV3Error$initializer$@_VecMathTests@aos@shdfnd@physx@@3P6AXXZEA 0000000180046460     VolumeIntegration.obj
 0002:00000468       ?minV4Error$initializer$@_VecMathTests@aos@shdfnd@physx@@3P6AXXZEA 0000000180046468     VolumeIntegration.obj
 0002:00000470       ?maxV4Error$initializer$@_VecMathTests@aos@shdfnd@physx@@3P6AXXZEA 0000000180046470     VolumeIntegration.obj
 0002:00000610       ?minus1w@?A0x1bc99792@aos@shdfnd@physx@@3QBMB 0000000180046610     Cooking.obj
 0002:00000620       ?gMaskXYZ@internalWindowsSimd@aos@shdfnd@physx@@3QBIB 0000000180046620     Cooking.obj
 0002:00000dd0       ?minus1w@?A0xea0d2403@aos@shdfnd@physx@@3QBMB 0000000180046dd0     BVHStructureBuilder.obj
 0002:00000de0       ?gMaskXYZ@internalWindowsSimd@aos@shdfnd@physx@@3QBIB 0000000180046de0     BVHStructureBuilder.obj
 0002:00000e70       ?gMaskXYZ@internalWindowsSimd@aos@shdfnd@physx@@3QBIB 0000000180046e70     RTreeCooking.obj
 0002:00000ec0       ?minus1w@?A0xda871c53@aos@shdfnd@physx@@3QBMB 0000000180046ec0     RTreeCooking.obj
 0002:00000ed0       ?stopAtTrisPerPage@physx@@3QBIB 0000000180046ed0     RTreeCooking.obj
 0002:00000f10       ?stopAtTrisPerLeaf@physx@@3QBIB 0000000180046f10     RTreeCooking.obj
 0002:000010d0       ?minus1w@?A0xb6f7d810@aos@shdfnd@physx@@3QBMB 00000001800470d0     MeshBuilder.obj
 0002:000010e0       ?gMaskXYZ@internalWindowsSimd@aos@shdfnd@physx@@3QBIB 00000001800470e0     MeshBuilder.obj
 0002:00001100       ?minus1w@?A0xac247adf@aos@shdfnd@physx@@3QBMB 0000000180047100     TriangleMeshBuilder.obj
 0002:00001110       ?gMaskXYZ@internalWindowsSimd@aos@shdfnd@physx@@3QBIB 0000000180047110     TriangleMeshBuilder.obj
 0002:00001500       ?minus1w@?A0x77763a86@aos@shdfnd@physx@@3QBMB 0000000180047500     BigConvexDataBuilder.obj
 0002:00001510       ?gMaskXYZ@internalWindowsSimd@aos@shdfnd@physx@@3QBIB 0000000180047510     BigConvexDataBuilder.obj
 0002:00001590       ?minus1w@?A0x48d3f403@aos@shdfnd@physx@@3QBMB 0000000180047590     ConvexHullBuilder.obj
 0002:000015a0       ?gMaskXYZ@internalWindowsSimd@aos@shdfnd@physx@@3QBIB 00000001800475a0     ConvexHullBuilder.obj
 0002:00001a40       ?minus1w@?A0xf523a2e9@aos@shdfnd@physx@@3QBMB 0000000180047a40     ConvexHullUtils.obj
 0002:00001a50       ?gMaskXYZ@internalWindowsSimd@aos@shdfnd@physx@@3QBIB 0000000180047a50     ConvexHullUtils.obj
 0002:00001b00       ?minus1w@?A0x86775456@aos@shdfnd@physx@@3QBMB 0000000180047b00     ConvexMeshBuilder.obj
 0002:00001b10       ?gMaskXYZ@internalWindowsSimd@aos@shdfnd@physx@@3QBIB 0000000180047b10     ConvexMeshBuilder.obj
 0002:000020a0       ?minus1w@?A0xc93de727@aos@shdfnd@physx@@3QBMB 00000001800480a0     VolumeIntegration.obj
 0002:000020b0       ?gMaskXYZ@internalWindowsSimd@aos@shdfnd@physx@@3QBIB 00000001800480b0     VolumeIntegration.obj
 0002:00002230       L_abs_mask                 0000000180048230     LIBCMT:svml_ssinf4_dispatch.obj
 0002:00002240       L_real_one                 0000000180048240     LIBCMT:svml_ssinf4_dispatch.obj
 0002:00002250       L_one_half                 0000000180048250     LIBCMT:svml_ssinf4_dispatch.obj
 0002:00002260       L_two_to_neg_13            0000000180048260     LIBCMT:svml_ssinf4_dispatch.obj
 0002:00002270       L_pi_over_two              0000000180048270     LIBCMT:svml_ssinf4_dispatch.obj
 0002:00002280       L_pi_over_two2             0000000180048280     LIBCMT:svml_ssinf4_dispatch.obj
 0002:00002400       ?tokenTable@@3QBUStringLiteral@@B 0000000180048400     libvcruntime:undname.obj
 0002:00002510       ?nameTable@@3QBUStringLiteral@@B 0000000180048510     libvcruntime:undname.obj
 0002:00002a40       ?rttiTable@@3QBUStringLiteral@@B 0000000180048a40     libvcruntime:undname.obj
 0002:00002a90       ?IndirectionName@@3QBUStringLiteral@@B 0000000180048a90     libvcruntime:undname.obj
 0002:00002af0       ?PrefixName@@3QBUStringLiteral@@B 0000000180048af0     libvcruntime:undname.obj
 0002:00003750       ?result@?1??IsValidIdentChar@@YA_ND@Z@4U<unnamed-type-result>@?1??InitValidIdentChar@@YA@XZ@B 0000000180049750     libvcruntime:undname.obj
 0002:000038c0       ?ExceptionTemplate@?1??UnwindNestedFrames@__FrameHandler4@@SAXPEA_KPEAUEHExceptionRecord@@PEAU_CONTEXT@@0PEAXPEAUFuncInfo4@FH4@@HHPEAUHandlerType4@6@PEAU_xDISPATCHER_CONTEXT@@E@Z@4U_EXCEPTION_RECORD@@B 00000001800498c0     libvcruntime:risctrnsctrl.obj
 0002:00003958       ?module_names@?A0x14174aea@@3QBQEB_WB 0000000180049958     libvcruntime:winapi_downlevel.obj
 0002:00003a18       ?candidate_modules@?1??try_get_FlsAlloc@@YAP6AKP6AXPEAX@Z@ZXZ@4QBW4module_id@?A0x14174aea@@B 0000000180049a18     libvcruntime:winapi_downlevel.obj
 0002:00003a30       ?candidate_modules@?1??try_get_FlsFree@@YAP6AHK@ZXZ@4QBW4module_id@?A0x14174aea@@B 0000000180049a30     libvcruntime:winapi_downlevel.obj
 0002:00003a40       ?candidate_modules@?1??try_get_FlsGetValue@@YAP6APEAXK@ZXZ@4QBW4module_id@?A0x14174aea@@B 0000000180049a40     libvcruntime:winapi_downlevel.obj
 0002:00003a58       ?candidate_modules@?1??try_get_FlsSetValue@@YAP6AHKPEAX@ZXZ@4QBW4module_id@?A0x14174aea@@B 0000000180049a58     libvcruntime:winapi_downlevel.obj
 0002:00003a70       ?candidate_modules@?1??try_get_InitializeCriticalSectionEx@@YAP6AHPEAU_RTL_CRITICAL_SECTION@@KK@ZXZ@4QBW4module_id@?A0x14174aea@@B 0000000180049a70     libvcruntime:winapi_downlevel.obj
 0002:00003af0       ?atan_jby256@?1??atan2f@@9@9 0000000180049af0     libucrt:atan2f.obj
 0002:000042f0       L_real_one                 000000018004a2f0     libucrt:cosf.obj
 0002:00004300       L_one_half                 000000018004a300     libucrt:cosf.obj
 0002:00004310       L_2bypi                    000000018004a310     libucrt:cosf.obj
 0002:00004320       L_one_sixth                000000018004a320     libucrt:cosf.obj
 0002:00004330       L_piby2                    000000018004a330     libucrt:cosf.obj
 0002:00004340       L_piby2_1                  000000018004a340     libucrt:cosf.obj
 0002:00004350       L_piby2_1tail              000000018004a350     libucrt:cosf.obj
 0002:00004360       L_piby2_2                  000000018004a360     libucrt:cosf.obj
 0002:00004370       L_piby2_2tail              000000018004a370     libucrt:cosf.obj
 0002:00004380       L_large_x_sse2             000000018004a380     libucrt:cosf.obj
 0002:00004390       L_large_x_fma3             000000018004a390     libucrt:cosf.obj
 0002:000043a0       L_sign_mask                000000018004a3a0     libucrt:cosf.obj
 0002:000043b0       L__int_three               000000018004a3b0     libucrt:cosf.obj
 0002:000043c0       L__min_norm_double         000000018004a3c0     libucrt:cosf.obj
 0002:000043d0       L_two_to_neg_7             000000018004a3d0     libucrt:cosf.obj
 0002:000043e0       L_two_to_neg_13            000000018004a3e0     libucrt:cosf.obj
 0002:000043f0       L_two_to_32_float          000000018004a3f0     libucrt:cosf.obj
 0002:000043f8       L_one_float                000000018004a3f8     libucrt:cosf.obj
 0002:00004400       L_inf_mask_32              000000018004a400     libucrt:cosf.obj
 0002:00004410       L_signbit                  000000018004a410     libucrt:sinf.obj
 0002:00004420       L_sign_mask                000000018004a420     libucrt:sinf.obj
 0002:00004430       L_one                      000000018004a430     libucrt:sinf.obj
 0002:00004440       L_int_three                000000018004a440     libucrt:sinf.obj
 0002:00004450       L_one_half                 000000018004a450     libucrt:sinf.obj
 0002:00004460       L_twobypi                  000000018004a460     libucrt:sinf.obj
 0002:00004470       L_piby2_1                  000000018004a470     libucrt:sinf.obj
 0002:00004480       L_one_sixth                000000018004a480     libucrt:sinf.obj
 0002:00004490       L_piby2_1tail              000000018004a490     libucrt:sinf.obj
 0002:000044a0       L_piby2_2                  000000018004a4a0     libucrt:sinf.obj
 0002:000044b0       L_piby2_2tail              000000018004a4b0     libucrt:sinf.obj
 0002:000044c0       L_inf_mask_32              000000018004a4c0     libucrt:sinf.obj
 0002:000044d0       L_int_two                  000000018004a4d0     libucrt:sinf.obj
 0002:000044e0       L_piby2_lead               000000018004a4e0     libucrt:sinf.obj
 0002:000044f0       L_piby4                    000000018004a4f0     libucrt:sinf.obj
 0002:00004500       L_mask_3f2                 000000018004a500     libucrt:sinf.obj
 0002:00004510       L_mask_3f8                 000000018004a510     libucrt:sinf.obj
 0002:00004520       L_large_x_fma3             000000018004a520     libucrt:sinf.obj
 0002:00004528       L_large_x_sse2             000000018004a528     libucrt:sinf.obj
 0002:00004530       L_near_one                 000000018004a530     libucrt:sinf.obj
 0002:00004538       L_two_to_32                000000018004a538     libucrt:sinf.obj
 0002:00004640       __acrt_initializers        000000018004a640     libucrt:initialization.obj
 0002:00004f60       L__piby2                   000000018004af60     libucrt:remainder_piby2f_forasm.obj
 0002:00004f70       L_piby2_lead               000000018004af70     libucrt:remainder_piby2_forfma3.obj
 0002:00004f80       L_fff800                   000000018004af80     libucrt:remainder_piby2_forfma3.obj
 0002:00004f90       L_piby2_part1              000000018004af90     libucrt:remainder_piby2_forfma3.obj
 0002:00004fa0       L_piby2_part2              000000018004afa0     libucrt:remainder_piby2_forfma3.obj
 0002:00004fb0       L_piby2_part3              000000018004afb0     libucrt:remainder_piby2_forfma3.obj
 0002:00004fc0       L_piby2_1                  000000018004afc0     libucrt:remainder_piby2_forfma3.obj
 0002:00004fd0       L_piby2_2                  000000018004afd0     libucrt:remainder_piby2_forfma3.obj
 0002:00004fe0       L_piby2_3                  000000018004afe0     libucrt:remainder_piby2_forfma3.obj
 0002:00004ff0       L_piby2_1tail              000000018004aff0     libucrt:remainder_piby2_forfma3.obj
 0002:00005000       L_piby2_2tail              000000018004b000     libucrt:remainder_piby2_forfma3.obj
 0002:00005010       L_piby2_3tail              000000018004b010     libucrt:remainder_piby2_forfma3.obj
 0002:00005020       L_sign_mask                000000018004b020     libucrt:remainder_piby2_forfma3.obj
 0002:00005030       L_twobypi                  000000018004b030     libucrt:remainder_piby2_forfma3.obj
 0002:00005040       L_point_five               000000018004b040     libucrt:remainder_piby2_forfma3.obj
 0002:00005050       L_int_three                000000018004b050     libucrt:remainder_piby2_forfma3.obj
 0002:00005060       L_inf_mask_64              000000018004b060     libucrt:remainder_piby2_forfma3.obj
 0002:00005070       L_signbit                  000000018004b070     libucrt:remainder_piby2_forfma3.obj
 0002:00005080       L_r                        000000018004b080     libucrt:remainder_piby2_forfma3.obj
 0002:00005090       L_xc1                      000000018004b090     libucrt:remainder_piby2_forfma3.obj
 0002:000050a0       L_xc2                      000000018004b0a0     libucrt:remainder_piby2_forfma3.obj
 0002:000050b0       L_xc3                      000000018004b0b0     libucrt:remainder_piby2_forfma3.obj
 0002:000050c0       L_sigma                    000000018004b0c0     libucrt:remainder_piby2_forfma3.obj
 0002:000051d0       L__piby2                   000000018004b1d0     libucrt:remainder_piby2f_forc.obj
 0002:000051e0       L__2_by_pi_bits            000000018004b1e0     libucrt:remainder_piby2f_forc.obj
 0002:00005280       ?errtable@@3QBUerrentry@?A0x31fdb9ec@@B 000000018004b280     libucrt:errno.obj
 0002:000053e8       ?_mb_locale_names@@3QBQEB_WB 000000018004b3e8     libucrt:mbctype.obj
 0002:00005450       ?module_names@?A0x391cf84c@@3QBQEB_WB 000000018004b450     libucrt:winapi_thunks.obj
 0002:00005958       ?candidate_modules@?1??try_get_AreFileApisANSI@@YAP6AHXZXZ@4QBW4module_id@?A0x391cf84c@@B 000000018004b958     libucrt:winapi_thunks.obj
 0002:00005970       ?candidate_modules@?1??try_get_FlsAlloc@@YAP6AKP6AXPEAX@Z@ZXZ@4QBW4module_id@?A0x391cf84c@@B 000000018004b970     libucrt:winapi_thunks.obj
 0002:00005978       ?candidate_modules@?1??try_get_FlsFree@@YAP6AHK@ZXZ@4QBW4module_id@?A0x391cf84c@@B 000000018004b978     libucrt:winapi_thunks.obj
 0002:00005980       ?candidate_modules@?1??try_get_FlsGetValue@@YAP6APEAXK@ZXZ@4QBW4module_id@?A0x391cf84c@@B 000000018004b980     libucrt:winapi_thunks.obj
 0002:00005988       ?candidate_modules@?1??try_get_FlsSetValue@@YAP6AHKPEAX@ZXZ@4QBW4module_id@?A0x391cf84c@@B 000000018004b988     libucrt:winapi_thunks.obj
 0002:00005990       ?candidate_modules@?1??try_get_InitializeCriticalSectionEx@@YAP6AHPEAU_RTL_CRITICAL_SECTION@@KK@ZXZ@4QBW4module_id@?A0x391cf84c@@B 000000018004b990     libucrt:winapi_thunks.obj
 0002:00005998       ?candidate_modules@?1??try_get_LCMapStringEx@@YAP6AHPEB_WK0HPEA_WHPEAU_nlsversioninfo@@PEAX_J@ZXZ@4QBW4module_id@?A0x391cf84c@@B 000000018004b998     libucrt:winapi_thunks.obj
 0002:000059b0       ?candidate_modules@?1??try_get_LocaleNameToLCID@@YAP6AKPEB_WK@ZXZ@4QBW4module_id@?A0x391cf84c@@B 000000018004b9b0     libucrt:winapi_thunks.obj
 0002:000059cc       ?candidate_modules@?1??try_get_AppPolicyGetProcessTerminationMethod@@YAP6AJPEAXPEAW4AppPolicyProcessTerminationMethod@@@ZXZ@4QBW4module_id@?A0x391cf84c@@B 000000018004b9cc     libucrt:winapi_thunks.obj
 0002:00006080       ?strings@?1??fp_format_nan_or_infinity@@YAHW4__acrt_fp_class@@_NPEAD_K1@Z@4QAY03QEBDA 000000018004c080     libucrt:cvt.obj
 0002:00006760       __real@433fffffffffffff    000000018004c760     libucrt:fpsr.obj
 0002:00006768       __real@c33fffffffffffff    000000018004c768     libucrt:fpsr.obj
 0002:00006780       ?LcidToLocaleNameTable@?A0x881e4c05@@3QBULcidToLocaleName@1@B 000000018004c780     libucrt:lcidtoname_downlevel.obj
 0002:000081e0       ?LocaleNameToIndexTable@?A0x881e4c05@@3QBULocaleNameIndex@1@B 000000018004e1e0     libucrt:lcidtoname_downlevel.obj
 0002:0000a470       __real_ninf                0000000180050470     libucrt:log10.obj
 0002:0000a480       __real_inf                 0000000180050480     libucrt:log10.obj
 0002:0000a490       __real_neg_qnan            0000000180050490     libucrt:log10.obj
 0002:0000a4a0       __real_qnanbit             00000001800504a0     libucrt:log10.obj
 0002:0000a4b0       __int_1023                 00000001800504b0     libucrt:log10.obj
 0002:0000a4c0       __mask_001                 00000001800504c0     libucrt:log10.obj
 0002:0000a4d0       __mask_mant                00000001800504d0     libucrt:log10.obj
 0002:0000a4e0       __mask_mant_top8           00000001800504e0     libucrt:log10.obj
 0002:0000a4f0       __mask_mant9               00000001800504f0     libucrt:log10.obj
 0002:0000a500       __real_log10_e             0000000180050500     libucrt:log10.obj
 0002:0000a510       __real_log10_e_lead        0000000180050510     libucrt:log10.obj
 0002:0000a520       __real_log10_e_tail        0000000180050520     libucrt:log10.obj
 0002:0000a530       __real_log10_2_lead        0000000180050530     libucrt:log10.obj
 0002:0000a540       __real_log10_2_tail        0000000180050540     libucrt:log10.obj
 0002:0000a550       __real_two                 0000000180050550     libucrt:log10.obj
 0002:0000a560       __real_one                 0000000180050560     libucrt:log10.obj
 0002:0000a570       __real_half                0000000180050570     libucrt:log10.obj
 0002:0000a580       __mask_100                 0000000180050580     libucrt:log10.obj
 0002:0000a590       __real_1_over_512          0000000180050590     libucrt:log10.obj
 0002:0000a5a0       __real_1_over_2            00000001800505a0     libucrt:log10.obj
 0002:0000a5b0       __real_1_over_3            00000001800505b0     libucrt:log10.obj
 0002:0000a5c0       __real_1_over_4            00000001800505c0     libucrt:log10.obj
 0002:0000a5d0       __real_1_over_5            00000001800505d0     libucrt:log10.obj
 0002:0000a5e0       __real_1_over_6            00000001800505e0     libucrt:log10.obj
 0002:0000a5f0       __real_neg_1023            00000001800505f0     libucrt:log10.obj
 0002:0000a600       __mask_2045                0000000180050600     libucrt:log10.obj
 0002:0000a610       __real_threshold           0000000180050610     libucrt:log10.obj
 0002:0000a620       __real_near_one_lt         0000000180050620     libucrt:log10.obj
 0002:0000a630       __real_near_one_gt         0000000180050630     libucrt:log10.obj
 0002:0000a640       __real_min_norm            0000000180050640     libucrt:log10.obj
 0002:0000a650       __real_notsign             0000000180050650     libucrt:log10.obj
 0002:0000a660       __real_ca1                 0000000180050660     libucrt:log10.obj
 0002:0000a670       __real_ca2                 0000000180050670     libucrt:log10.obj
 0002:0000a680       __real_ca3                 0000000180050680     libucrt:log10.obj
 0002:0000a690       __real_ca4                 0000000180050690     libucrt:log10.obj
 0002:0000a6a0       __mask_lower               00000001800506a0     libucrt:log10.obj
 0002:0000a6b0       __flag_x_zero              00000001800506b0     libucrt:log10.obj
 0002:0000a6b4       __flag_x_neg               00000001800506b4     libucrt:log10.obj
 0002:0000a6b8       __flag_x_nan               00000001800506b8     libucrt:log10.obj
 0002:0000bf00       GS_ExceptionPointers       0000000180051f00     LIBCMT:gs_report.obj
 0002:0000c950       $unwind$??1Adjacencies@physx@@QEAA@XZ 0000000180052950     Adjacencies.obj
 0002:0000c950       $unwind$??_EPxFoundation@physx@@MEAAPEAXI@Z 0000000180052950     Adjacencies.obj
 0002:0000c950       $unwind$??0ConvexMeshBuilder@physx@@QEAA@_N@Z 0000000180052950     ConvexMeshBuilder.obj
 0002:0000c950       $unwind$?isFinite@PxVec3@physx@@QEBA_NXZ 0000000180052950     ConvexMeshBuilder.obj
 0002:0000c950       $unwind$??0ConvexPolygonsBuilder@physx@@QEAA@PEAUConvexHullData@Gu@1@_N@Z 0000000180052950     ConvexPolygonsBuilder.obj
 0002:0000c950       $unwind$??_GCooking@physx@@UEAAPEAXI@Z 0000000180052950     Cooking.obj
 0002:0000c950       $unwind$??_GPxBase@physx@@MEAAPEAXI@Z 0000000180052950     Cooking.obj
 0002:0000c950       $unwind$??_GPxCooking@physx@@MEAAPEAXI@Z 0000000180052950     Cooking.obj
 0002:0000c950       $unwind$?getTriangleNormal@HeightField@Gu@physx@@UEBA?AVPxVec3@3@I@Z 0000000180052950     Cooking.obj
 0002:0000c950       $unwind$?isKindOf@PxConvexMesh@physx@@MEBA_NPEBD@Z 0000000180052950     Cooking.obj
 0002:0000c950       $unwind$?isKindOf@PxHeightField@physx@@MEBA_NPEBD@Z 0000000180052950     Cooking.obj
 0002:0000c950       $unwind$??_GQuantizer@physx@@MEAAPEAXI@Z 0000000180052950     Quantizer.obj
 0002:0000c950       $unwind$??1RTreeTriangleData@Gu@physx@@UEAA@XZ 0000000180052950     TriangleMeshBuilder.obj
 0002:0000c950       $unwind$??1RTreeTriangleMeshBuilder@physx@@UEAA@XZ 0000000180052950     TriangleMeshBuilder.obj
 0002:0000c950       $unwind$??_GRTreeCookerRemap@physx@@UEAAPEAXI@Z 0000000180052950     TriangleMeshBuilder.obj
 0002:0000c950       $unwind$??_GRemapCallback@RTreeCooker@physx@@UEAAPEAXI@Z 0000000180052950     TriangleMeshBuilder.obj
 0002:0000c950       $unwind$_calloc_base       0000000180052950     libucrt:calloc_base.obj
 0002:0000c950       $unwind$_malloc_base       0000000180052950     libucrt:malloc_base.obj
 0002:0000c950       $unwind$_callnewh          0000000180052950     libucrt:new_handler.obj
 0002:0000c950       $unwind$initialize_pointers 0000000180052950     libucrt:initialization.obj
 0002:0000c950       $unwind$uninitialize_allocated_memory 0000000180052950     libucrt:initialization.obj
 0002:0000c950       $unwind$__acrt_initialize_locks 0000000180052950     libucrt:locks.obj
 0002:0000c950       $unwind$__acrt_uninitialize_locks 0000000180052950     libucrt:locks.obj
 0002:0000c950       $unwind$__acrt_freeptd     0000000180052950     libucrt:per_thread_data.obj
 0002:0000c950       $unwind$__acrt_getptd_head 0000000180052950     libucrt:per_thread_data.obj
 0002:0000c950       $unwind$__acrt_get_process_end_policy 0000000180052950     libucrt:win_policies.obj
 0002:0000c950       $unwind$__acrt_AppPolicyGetProcessTerminationMethodInternal 0000000180052950     libucrt:winapi_thunks.obj
 0002:0000c950       $unwind$__acrt_FlsAlloc    0000000180052950     libucrt:winapi_thunks.obj
 0002:0000c950       $unwind$__acrt_FlsFree     0000000180052950     libucrt:winapi_thunks.obj
 0002:0000c950       $unwind$__acrt_FlsGetValue 0000000180052950     libucrt:winapi_thunks.obj
 0002:0000c950       $unwind$__acrt_uninitialize_winapi_thunks 0000000180052950     libucrt:winapi_thunks.obj
 0002:0000c950       $unwind$__acrt_update_locale_info 0000000180052950     libucrt:locale_update.obj
 0002:0000c950       $unwind$__acrt_update_multibyte_info 0000000180052950     libucrt:locale_update.obj
 0002:0000c950       $unwind$__acrt_allocate_buffer_for_argv 0000000180052950     libucrt:argv_parsing.obj
 0002:0000c950       $unwind$?exit_or_terminate_process@@YAXI@Z 0000000180052950     libucrt:exit.obj
 0002:0000c950       $unwind$?try_cor_exit_process@@YAXI@Z 0000000180052950     libucrt:exit.obj
 0002:0000c950       $unwind$__acrt_uninitialize_stdio 0000000180052950     libucrt:_file.obj
 0002:0000c950       $unwind$__acrt_stdio_free_buffer_nolock 0000000180052950     libucrt:_freebuf.obj
 0002:0000c950       $unwind$_fflush_nolock     0000000180052950     libucrt:fflush.obj
 0002:0000c950       $unwind$?state_case_normal@?$output_processor@DV?$string_output_adapter@D@__crt_stdio_output@@V?$format_validation_base@DV?$string_output_adapter@D@__crt_stdio_output@@@2@@__crt_stdio_output@@AEAA_NXZ 0000000180052950     libucrt:output.obj
 0002:0000c950       $unwind$?state_case_normal@?$output_processor@DV?$string_output_adapter@D@__crt_stdio_output@@V?$standard_base@DV?$string_output_adapter@D@__crt_stdio_output@@@2@@__crt_stdio_output@@AEAA_NXZ 0000000180052950     libucrt:output.obj
 0002:0000c950       $unwind$?type_case_s@?$output_processor@DV?$string_output_adapter@D@__crt_stdio_output@@V?$format_validation_base@DV?$string_output_adapter@D@__crt_stdio_output@@@2@@__crt_stdio_output@@AEAA_NXZ 0000000180052950     libucrt:output.obj
 0002:0000c950       $unwind$?type_case_s@?$output_processor@DV?$string_output_adapter@D@__crt_stdio_output@@V?$standard_base@DV?$string_output_adapter@D@__crt_stdio_output@@@2@@__crt_stdio_output@@AEAA_NXZ 0000000180052950     libucrt:output.obj
 0002:0000c950       $unwind$strcpy_s           0000000180052950     libucrt:strcpy_s.obj
 0002:0000c950       $unwind$_clrfp             0000000180052950     libucrt:fpctrl.obj
 0002:0000c950       $unwind$_set_statfp        0000000180052950     libucrt:fpctrl.obj
 0002:0000c950       $unwind$_clearfp           0000000180052950     libucrt:ieee.obj
 0002:0000c950       $unwind$_controlfp_s       0000000180052950     libucrt:contrlfp.obj
 0002:0000c950       $unwind$fegetenv           0000000180052950     libucrt:fegetenv.obj
 0002:0000c950       $unwind$feholdexcept       0000000180052950     libucrt:feholdexcept.obj
 0002:0000c950       $unwind$fesetenv           0000000180052950     libucrt:fesetenv.obj
 0002:0000c950       $unwind$?DloadAcquireSectionWriteAccess@@YAXXZ 0000000180052950     Delayimp:delayhlp.obj
 0002:0000c950       $unwind$__raise_securityfailure 0000000180052950     LIBCMT:gs_report.obj
 0002:0000c950       $unwind$??_Gtype_info@@UEAAPEAXI@Z 0000000180052950     LIBCMT:std_type_info_static.obj
 0002:0000c950       $unwind$__scrt_initialize_crt 0000000180052950     LIBCMT:utility.obj
 0002:0000c950       $unwind$__scrt_initialize_onexit_tables 0000000180052950     LIBCMT:utility.obj
 0002:0000c950       $unwind$__scrt_release_startup_lock 0000000180052950     LIBCMT:utility.obj
 0002:0000c950       $unwind$__scrt_uninitialize_crt 0000000180052950     LIBCMT:utility.obj
 0002:0000c950       $unwind$_IsExceptionObjectToBeDestroyed 0000000180052950     libvcruntime:ehhelpers.obj
 0002:0000c950       $unwind$??0HandlerMap4@FH4@@QEAA@PEBUTryBlockMapEntry4@1@_KH@Z 0000000180052950     libvcruntime:frame.obj
 0002:0000c950       $unwind$??0bad_exception@std@@QEAA@AEBV01@@Z 0000000180052950     libvcruntime:frame.obj
 0002:0000c950       $unwind$??0exception@std@@QEAA@AEBV01@@Z 0000000180052950     libvcruntime:frame.obj
 0002:0000c950       $unwind$__vcrt_initialize_locks 0000000180052950     libvcruntime:locks.obj
 0002:0000c950       $unwind$__vcrt_uninitialize_locks 0000000180052950     libvcruntime:locks.obj
 0002:0000c950       $unwind$__vcrt_freeptd     0000000180052950     libvcruntime:per_thread_data.obj
 0002:0000c950       $unwind$_CreateFrameInfo   0000000180052950     libvcruntime:risctrnsctrl.obj
 0002:0000c950       $unwind$_SetImageBase      0000000180052950     libvcruntime:risctrnsctrl.obj
 0002:0000c950       $unwind$_SetThrowImageBase 0000000180052950     libvcruntime:risctrnsctrl.obj
 0002:0000c950       $unwind$__std_exception_destroy 0000000180052950     libvcruntime:std_exception.obj
 0002:0000c950       $unwind$__std_type_info_destroy_list 0000000180052950     libvcruntime:std_type_info.obj
 0002:0000c950       $unwind$??$?0$00@DName@@QEAA@PEBDU?$StringLifeSelector@$00@@@Z 0000000180052950     libvcruntime:undname.obj
 0002:0000c950       $unwind$??$?0$01@DName@@QEAA@PEBDU?$StringLifeSelector@$01@@@Z 0000000180052950     libvcruntime:undname.obj
 0002:0000c950       $unwind$??$?0$0A@@DName@@QEAA@PEBDU?$StringLifeSelector@$0A@@@@Z 0000000180052950     libvcruntime:undname.obj
 0002:0000c950       $unwind$??0DName@@QEAA@AEBUStringLiteral@@@Z 0000000180052950     libvcruntime:undname.obj
 0002:0000c950       $unwind$??HDName@@QEBA?AV0@AEBUStringLiteral@@@Z 0000000180052950     libvcruntime:undname.obj
 0002:0000c950       $unwind$??HDName@@QEBA?AV0@AEBV0@@Z 0000000180052950     libvcruntime:undname.obj
 0002:0000c950       $unwind$??HDName@@QEBA?AV0@D@Z 0000000180052950     libvcruntime:undname.obj
 0002:0000c950       $unwind$??HDName@@QEBA?AV0@W4DNameStatus@@@Z 0000000180052950     libvcruntime:undname.obj
 0002:0000c950       $unwind$??YDName@@QEAAAEAV0@AEBV0@@Z 0000000180052950     libvcruntime:undname.obj
 0002:0000c950       $unwind$??YDName@@QEAAAEAV0@W4DNameStatus@@@Z 0000000180052950     libvcruntime:undname.obj
 0002:0000c950       $unwind$?getLastChar@pairNode@@UEBADXZ 0000000180052950     libvcruntime:undname.obj
 0002:0000c950       $unwind$?getReturnType@UnDecorator@@CA?AVDName@@PEAV2@@Z 0000000180052950     libvcruntime:undname.obj
 0002:0000c950       $unwind$?getStringObject@UnDecorator@@CA?AVDName@@XZ 0000000180052950     libvcruntime:undname.obj
 0002:0000c950       $unwind$?getSymbolName@UnDecorator@@CA?AVDName@@XZ 0000000180052950     libvcruntime:undname.obj
 0002:0000c950       $unwind$?getValue@UnDecorator@@CA?AV?$optional@_K@std@@XZ 0000000180052950     libvcruntime:undname.obj
 0002:0000c950       $unwind$__vcrt_FlsAlloc    0000000180052950     libvcruntime:winapi_downlevel.obj
 0002:0000c950       $unwind$__vcrt_FlsFree     0000000180052950     libvcruntime:winapi_downlevel.obj
 0002:0000c950       $unwind$__vcrt_FlsGetValue 0000000180052950     libvcruntime:winapi_downlevel.obj
 0002:0000c958       $chain$0$??_EPxFoundation@physx@@MEAAPEAXI@Z 0000000180052958     Adjacencies.obj
 0002:0000c96c       $chain$1$??_EPxFoundation@physx@@MEAAPEAXI@Z 000000018005296c     Adjacencies.obj
 0002:0000c97c       $chain$0$??1Adjacencies@physx@@QEAA@XZ 000000018005297c     Adjacencies.obj
 0002:0000c990       $chain$2$??1Adjacencies@physx@@QEAA@XZ 0000000180052990     Adjacencies.obj
 0002:0000c9a4       $chain$3$??1Adjacencies@physx@@QEAA@XZ 00000001800529a4     Adjacencies.obj
 0002:0000c9b4       $unwind$?Init@AdjacenciesBuilder@physx@@QEAA_NAEBUADJACENCIESCREATE@2@@Z 00000001800529b4     Adjacencies.obj
 0002:0000c9c0       $chain$2$?Init@AdjacenciesBuilder@physx@@QEAA_NAEBUADJACENCIESCREATE@2@@Z 00000001800529c0     Adjacencies.obj
 0002:0000c9dc       $chain$3$?Init@AdjacenciesBuilder@physx@@QEAA_NAEBUADJACENCIESCREATE@2@@Z 00000001800529dc     Adjacencies.obj
 0002:0000c9f0       $chain$4$?Init@AdjacenciesBuilder@physx@@QEAA_NAEBUADJACENCIESCREATE@2@@Z 00000001800529f0     Adjacencies.obj
 0002:0000ca00       $chain$5$?Init@AdjacenciesBuilder@physx@@QEAA_NAEBUADJACENCIESCREATE@2@@Z 0000000180052a00     Adjacencies.obj
 0002:0000ca18       $unwind$??$?_UV?$ReflectionAllocator@VAdjTriangle@physx@@@shdfnd@physx@@@UserAllocated@shdfnd@physx@@SAPEAX_KV?$ReflectionAllocator@VAdjTriangle@physx@@@12@PEBDH@Z 0000000180052a18     Adjacencies.obj
 0002:0000ca18       $unwind$??$?_UE@@YAPEAX_KV?$ReflectionAllocator@E@shdfnd@physx@@PEBDH@Z 0000000180052a18     ConvexHullBuilder.obj
 0002:0000ca18       $unwind$??$?_UI@@YAPEAX_KV?$ReflectionAllocator@I@shdfnd@physx@@PEBDH@Z 0000000180052a18     EdgeList.obj
 0002:0000ca18       $unwind$?allocate@?$ReflectionAllocator@I@shdfnd@physx@@QEAAPEAX_KPEBDH@Z 0000000180052a18     RTreeCooking.obj
 0002:0000ca18       $unwind$??$?_UG@@YAPEAX_KV?$ReflectionAllocator@G@shdfnd@physx@@PEBDH@Z 0000000180052a18     TriangleMeshBuilder.obj
 0002:0000ca28       $chain$0$??$?_UV?$ReflectionAllocator@VAdjTriangle@physx@@@shdfnd@physx@@@UserAllocated@shdfnd@physx@@SAPEAX_KV?$ReflectionAllocator@VAdjTriangle@physx@@@12@PEBDH@Z 0000000180052a28     Adjacencies.obj
 0002:0000ca3c       $chain$1$??$?_UV?$ReflectionAllocator@VAdjTriangle@physx@@@shdfnd@physx@@@UserAllocated@shdfnd@physx@@SAPEAX_KV?$ReflectionAllocator@VAdjTriangle@physx@@@12@PEBDH@Z 0000000180052a3c     Adjacencies.obj
 0002:0000ca4c       $unwind$?AddTriangle@@YAXIIIIPEAVAdjTriangle@physx@@AEAIPEAVAdjEdge@@@Z 0000000180052a4c     Adjacencies.obj
 0002:0000ca4c       $unwind$?getTriangleNormalInternal@HeightField@Gu@physx@@QEBA?AVPxVec3@3@I@Z 0000000180052a4c     Cooking.obj
 0002:0000ca58       $unwind$?UpdateLink@@YA_NIIIIPEAVAdjTriangle@physx@@AEBUADJACENCIESCREATE@2@@Z 0000000180052a58     Adjacencies.obj
 0002:0000ca64       $chain$0$?UpdateLink@@YA_NIIIIPEAVAdjTriangle@physx@@AEBUADJACENCIESCREATE@2@@Z 0000000180052a64     Adjacencies.obj
 0002:0000ca78       $chain$4$?UpdateLink@@YA_NIIIIPEAVAdjTriangle@physx@@AEBUADJACENCIESCREATE@2@@Z 0000000180052a78     Adjacencies.obj
 0002:0000ca98       $chain$5$?UpdateLink@@YA_NIIIIPEAVAdjTriangle@physx@@AEBUADJACENCIESCREATE@2@@Z 0000000180052a98     Adjacencies.obj
 0002:0000caac       $chain$6$?UpdateLink@@YA_NIIIIPEAVAdjTriangle@physx@@AEBUADJACENCIESCREATE@2@@Z 0000000180052aac     Adjacencies.obj
 0002:0000cabc       $chain$7$?UpdateLink@@YA_NIIIIPEAVAdjTriangle@physx@@AEBUADJACENCIESCREATE@2@@Z 0000000180052abc     Adjacencies.obj
 0002:0000cad0       $chain$8$?UpdateLink@@YA_NIIIIPEAVAdjTriangle@physx@@AEBUADJACENCIESCREATE@2@@Z 0000000180052ad0     Adjacencies.obj
 0002:0000cae0       $unwind$?CreateDatabase@@YA_NPEAVAdjTriangle@physx@@IPEBVAdjEdge@@AEBUADJACENCIESCREATE@2@@Z 0000000180052ae0     Adjacencies.obj
 0002:0000cafc       $unwind$?getTransform@Box@Gu@physx@@QEBA?AVPxTransform@3@XZ 0000000180052afc     ConvexHullUtils.obj
 0002:0000cafc       $unwind$PxCreateCooking    0000000180052afc     Cooking.obj
 0002:0000cb08       $unwind$?release@Cooking@physx@@UEAAXXZ 0000000180052b08     Cooking.obj
 0002:0000cb08       $unwind$?cookingDelayHook@@YAP6A_JXZIPEAUDelayLoadInfo@@@Z 0000000180052b08     WindowsCookingDelayLoadHook.obj
 0002:0000cb08       $unwind$__dcrt_terminate_console_output 0000000180052b08     libucrt:initcon.obj
 0002:0000cb08       $unwind$??$uninitialize_environment_internal@D@@YAXAEAPEAPEAD@Z 0000000180052b08     libucrt:environment_initialization.obj
 0002:0000cb08       $unwind$??$uninitialize_environment_internal@_W@@YAXAEAPEAPEA_W@Z 0000000180052b08     libucrt:environment_initialization.obj
 0002:0000cb08       $unwind$__dcrt_uninitialize_environments_nolock 0000000180052b08     libucrt:environment_initialization.obj
 0002:0000cb08       $unwind$?__c32rtomb_utf8@__crt_mbstring@@YA_KPEAD_UPEAU_Mbstatet@@@Z 0000000180052b08     libucrt:c32rtomb.obj
 0002:0000cb08       $unwind$__acrt_initialize_heap 0000000180052b08     libucrt:heap_handle.obj
 0002:0000cb08       $unwind$_msize_base        0000000180052b08     libucrt:msize.obj
 0002:0000cb08       $unwind$?initialize_multibyte@@YAHXZ 0000000180052b08     libucrt:multibyte_initializer.obj
 0002:0000cb08       $unwind$__acrt_thread_attach 0000000180052b08     libucrt:initialization.obj
 0002:0000cb08       $unwind$__acrt_thread_detach 0000000180052b08     libucrt:initialization.obj
 0002:0000cb08       $unwind$__acrt_uninitialize 0000000180052b08     libucrt:initialization.obj
 0002:0000cb08       $unwind$__acrt_uninitialize_critical 0000000180052b08     libucrt:initialization.obj
 0002:0000cb08       $unwind$initialize_c       0000000180052b08     libucrt:initialization.obj
 0002:0000cb08       $unwind$uninitialize_allocated_io_buffers 0000000180052b08     libucrt:initialization.obj
 0002:0000cb08       $unwind$uninitialize_environment 0000000180052b08     libucrt:initialization.obj
 0002:0000cb08       $unwind$__acrt_initialize_ptd 0000000180052b08     libucrt:per_thread_data.obj
 0002:0000cb08       $unwind$__acrt_uninitialize_ptd 0000000180052b08     libucrt:per_thread_data.obj
 0002:0000cb08       $unwind$__acrt_AreFileApisANSI 0000000180052b08     libucrt:winapi_thunks.obj
 0002:0000cb08       $unwind$__pctype_func      0000000180052b08     libucrt:ctype.obj
 0002:0000cb08       $unwind$__acrt_release_locale_ref 0000000180052b08     libucrt:locale_refcounting.obj
 0002:0000cb08       $unwind$_isatty            0000000180052b08     libucrt:isatty.obj
 0002:0000cb08       $unwind$_get_osfhandle     0000000180052b08     libucrt:osfinfo.obj
 0002:0000cb08       $unwind$__acrt_initialize_multibyte 0000000180052b08     libucrt:mbctype.obj
 0002:0000cb08       $unwind$__acrt_update_thread_multibyte_data 0000000180052b08     libucrt:mbctype.obj
 0002:0000cb08       $unwind$__doserrno         0000000180052b08     libucrt:errno.obj
 0002:0000cb08       $unwind$_errno             0000000180052b08     libucrt:errno.obj
 0002:0000cb08       $unwind$_invoke_watson     0000000180052b08     libucrt:invalid_parameter.obj
 0002:0000cb08       $unwind$abort              0000000180052b08     libucrt:abort.obj
 0002:0000cb08       $unwind$__acrt_initialize_command_line 0000000180052b08     libucrt:argv_data.obj
 0002:0000cb08       $unwind$_fileno            0000000180052b08     libucrt:fileno.obj
 0002:0000cb08       $unwind$?state_case_normal_tchar@?$output_processor@DV?$string_output_adapter@D@__crt_stdio_output@@V?$format_validation_base@DV?$string_output_adapter@D@__crt_stdio_output@@@2@@__crt_stdio_output@@AEAA_ND@Z 0000000180052b08     libucrt:output.obj
 0002:0000cb08       $unwind$?state_case_normal_tchar@?$output_processor@DV?$string_output_adapter@D@__crt_stdio_output@@V?$standard_base@DV?$string_output_adapter@D@__crt_stdio_output@@@2@@__crt_stdio_output@@AEAA_ND@Z 0000000180052b08     libucrt:output.obj
 0002:0000cb08       $unwind$?state_case_size@?$output_processor@DV?$string_output_adapter@D@__crt_stdio_output@@V?$format_validation_base@DV?$string_output_adapter@D@__crt_stdio_output@@@2@@__crt_stdio_output@@AEAA_NXZ 0000000180052b08     libucrt:output.obj
 0002:0000cb08       $unwind$?state_case_size@?$output_processor@DV?$string_output_adapter@D@__crt_stdio_output@@V?$standard_base@DV?$string_output_adapter@D@__crt_stdio_output@@@2@@__crt_stdio_output@@AEAA_NXZ 0000000180052b08     libucrt:output.obj
 0002:0000cb08       $unwind$_statfp            0000000180052b08     libucrt:fpctrl.obj
 0002:0000cb08       $unwind$fegetround         0000000180052b08     libucrt:fegetround.obj
 0002:0000cb08       $unwind$_set_errno_from_matherr 0000000180052b08     libucrt:fpexcept.obj
 0002:0000cb08       $unwind$?DloadReleaseSectionWriteAccess@@YAXXZ 0000000180052b08     Delayimp:delayhlp.obj
 0002:0000cb08       $unwind$__scrt_initialize_default_local_stdio_options 0000000180052b08     LIBCMT:default_local_stdio_options.obj
 0002:0000cb08       $unwind$?dllmain_crt_dispatch@@YAHQEAUHINSTANCE__@@KQEAX@Z 0000000180052b08     LIBCMT:dll_dllmain.obj
 0002:0000cb08       $unwind$__report_rangecheckfailure 0000000180052b08     LIBCMT:gs_report.obj
 0002:0000cb08       $unwind$__GSHandlerCheck   0000000180052b08     LIBCMT:gshandler.obj
 0002:0000cb08       $unwind$__scrt_acquire_startup_lock 0000000180052b08     LIBCMT:utility.obj
 0002:0000cb08       $unwind$__scrt_dllmain_after_initialize_c 0000000180052b08     LIBCMT:utility.obj
 0002:0000cb08       $unwind$__scrt_dllmain_before_initialize_c 0000000180052b08     LIBCMT:utility.obj
 0002:0000cb08       $unwind$__scrt_dllmain_crt_thread_attach 0000000180052b08     LIBCMT:utility.obj
 0002:0000cb08       $unwind$__scrt_dllmain_crt_thread_detach 0000000180052b08     LIBCMT:utility.obj
 0002:0000cb08       $unwind$__scrt_dllmain_uninitialize_c 0000000180052b08     LIBCMT:utility.obj
 0002:0000cb08       $unwind$__scrt_dllmain_uninitialize_critical 0000000180052b08     LIBCMT:utility.obj
 0002:0000cb08       $unwind$__vcrt_initialize  0000000180052b08     libvcruntime:initialization.obj
 0002:0000cb08       $unwind$__vcrt_thread_attach 0000000180052b08     libvcruntime:initialization.obj
 0002:0000cb08       $unwind$__vcrt_thread_detach 0000000180052b08     libvcruntime:initialization.obj
 0002:0000cb08       $unwind$__vcrt_uninitialize 0000000180052b08     libvcruntime:initialization.obj
 0002:0000cb08       $unwind$__vcrt_uninitialize_critical 0000000180052b08     libvcruntime:initialization.obj
 0002:0000cb08       $unwind$__vcrt_freefls     0000000180052b08     libvcruntime:per_thread_data.obj
 0002:0000cb08       $unwind$__vcrt_getptd      0000000180052b08     libvcruntime:per_thread_data.obj
 0002:0000cb08       $unwind$__vcrt_initialize_ptd 0000000180052b08     libvcruntime:per_thread_data.obj
 0002:0000cb08       $unwind$__vcrt_uninitialize_ptd 0000000180052b08     libvcruntime:per_thread_data.obj
 0002:0000cb08       $unwind$_purecall          0000000180052b08     libvcruntime:purevirt.obj
 0002:0000cb08       $unwind$?FrameUnwindToEmptyState@__FrameHandler4@@SAXPEA_KPEAU_xDISPATCHER_CONTEXT@@PEAUFuncInfo4@FH4@@@Z 0000000180052b08     libvcruntime:risctrnsctrl.obj
 0002:0000cb08       $unwind$_GetImageBase      0000000180052b08     libvcruntime:risctrnsctrl.obj
 0002:0000cb08       $unwind$_GetThrowImageBase 0000000180052b08     libvcruntime:risctrnsctrl.obj
 0002:0000cb08       $unwind$?getLastChar@pDNameNode@@UEBADXZ 0000000180052b08     libvcruntime:undname.obj
 0002:0000cb08       $unwind$?getString@pDNameNode@@UEBAPEADPEAD0@Z 0000000180052b08     libvcruntime:undname.obj
 0002:0000cb08       $unwind$?getTypeEncoding@UnDecorator@@CAHXZ 0000000180052b08     libvcruntime:undname.obj
 0002:0000cb08       $unwind$?length@pDNameNode@@UEBAHXZ 0000000180052b08     libvcruntime:undname.obj
 0002:0000cb10       $unwind$?cookConvexMesh@Cooking@physx@@UEBA_NAEBVPxConvexMeshDesc@2@AEAVPxOutputStream@2@PEAW4Enum@PxConvexMeshCookingResult@2@@Z 0000000180052b10     Cooking.obj
 0002:0000cb10       $unwind$?cookTriangleMesh@Cooking@physx@@UEBA_NAEBVPxTriangleMeshDesc@2@AEAVPxOutputStream@2@PEAW4Enum@PxTriangleMeshCookingResult@2@@Z 0000000180052b10     Cooking.obj
 0002:0000cb10       $unwind$?createTriangleMesh@Cooking@physx@@UEBAPEAVPxTriangleMesh@2@AEBVPxTriangleMeshDesc@2@AEAVPxPhysicsInsertionCallback@2@PEAW4Enum@PxTriangleMeshCookingResult@2@@Z 0000000180052b10     Cooking.obj
 0002:0000cb2c       $unwind$?validateTriangleMesh@Cooking@physx@@UEBA_NAEBVPxTriangleMeshDesc@2@@Z 0000000180052b2c     Cooking.obj
 0002:0000cb3c       $unwind$?createConvexMesh@Cooking@physx@@UEBAPEAVPxConvexMesh@2@AEBVPxConvexMeshDesc@2@AEAVPxPhysicsInsertionCallback@2@PEAW4Enum@PxConvexMeshCookingResult@2@@Z 0000000180052b3c     Cooking.obj
 0002:0000cb58       $unwind$?validateConvexMesh@Cooking@physx@@UEBA_NAEBVPxConvexMeshDesc@2@@Z 0000000180052b58     Cooking.obj
 0002:0000cb68       $unwind$?computeHullPolygons@Cooking@physx@@UEBA_NAEBVPxSimpleTriangleMesh@2@AEAVPxAllocatorCallback@2@AEAIAEAPEAVPxVec3@2@2AEAPEAI2AEAPEAUPxHullPolygon@2@@Z 0000000180052b68     Cooking.obj
 0002:0000cb88       $unwind$?cookHeightField@Cooking@physx@@UEBA_NAEBVPxHeightFieldDesc@2@AEAVPxOutputStream@2@@Z 0000000180052b88     Cooking.obj
 0002:0000cb9c       $unwind$?createHeightField@Cooking@physx@@UEBAPEAVPxHeightField@2@AEBVPxHeightFieldDesc@2@AEAVPxPhysicsInsertionCallback@2@@Z 0000000180052b9c     Cooking.obj
 0002:0000cb9c       $unwind$?getArgumentList@UnDecorator@@CA?AVDName@@XZ 0000000180052b9c     libvcruntime:undname.obj
 0002:0000cbac       $unwind$?cookBVHStructure@Cooking@physx@@UEBA_NAEBVPxBVHStructureDesc@2@AEAVPxOutputStream@2@@Z 0000000180052bac     Cooking.obj
 0002:0000cbbc       $unwind$?createBVHStructure@Cooking@physx@@UEBAPEAVPxBVHStructure@2@AEBVPxBVHStructureDesc@2@AEAVPxPhysicsInsertionCallback@2@@Z 0000000180052bbc     Cooking.obj
 0002:0000cbbc       $unwind$?DloadMakePermanentImageCommit@@YAXPEAX_K@Z 0000000180052bbc     Delayimp:delayhlp.obj
 0002:0000cbc8       $unwind$?cookConvexMeshInternal@Cooking@physx@@AEBA_NAEBVPxConvexMeshDesc@2@AEAVConvexMeshBuilder@2@PEAVConvexHullLib@2@PEAW4Enum@PxConvexMeshCookingResult@2@@Z 0000000180052bc8     Cooking.obj
 0002:0000cbdc       $chain$1$?cookConvexMeshInternal@Cooking@physx@@AEBA_NAEBVPxConvexMeshDesc@2@AEAVConvexMeshBuilder@2@PEAVConvexHullLib@2@PEAW4Enum@PxConvexMeshCookingResult@2@@Z 0000000180052bdc     Cooking.obj
 0002:0000cbf0       $chain$2$?cookConvexMeshInternal@Cooking@physx@@AEBA_NAEBVPxConvexMeshDesc@2@AEAVConvexMeshBuilder@2@PEAVConvexHullLib@2@PEAW4Enum@PxConvexMeshCookingResult@2@@Z 0000000180052bf0     Cooking.obj
 0002:0000cc00       $chain$3$?cookConvexMeshInternal@Cooking@physx@@AEBA_NAEBVPxConvexMeshDesc@2@AEAVConvexMeshBuilder@2@PEAVConvexHullLib@2@PEAW4Enum@PxConvexMeshCookingResult@2@@Z 0000000180052c00     Cooking.obj
 0002:0000cc14       $unwind$?allocate@?$Array@USlab@NodeAllocator@Gu@physx@@V?$ReflectionAllocator@USlab@NodeAllocator@Gu@physx@@@shdfnd@4@@shdfnd@physx@@IEAAPEAUSlab@NodeAllocator@Gu@3@I@Z 0000000180052c14     BVHStructureBuilder.obj
 0002:0000cc14       $unwind$?allocate@?$Array@VHalfEdge@ConvexHull@physx@@V?$ReflectionAllocator@VHalfEdge@ConvexHull@physx@@@shdfnd@3@@shdfnd@physx@@IEAAPEAVHalfEdge@ConvexHull@3@I@Z 0000000180052c14     ConvexHullUtils.obj
 0002:0000cc14       $unwind$?allocate@?$Array@VPxPlane@physx@@V?$ReflectionAllocator@VPxPlane@physx@@@shdfnd@2@@shdfnd@physx@@IEAAPEAVPxPlane@3@I@Z 0000000180052c14     ConvexHullUtils.obj
 0002:0000cc14       $unwind$?computeBoxPoints@Box@Gu@physx@@QEBAXPEIAVPxVec3@3@@Z 0000000180052c14     ConvexHullUtils.obj
 0002:0000cc14       $unwind$?allocate@?$Array@VPair@@V?$ReflectionAllocator@VPair@@@shdfnd@physx@@@shdfnd@physx@@IEAAPEAVPair@@I@Z 0000000180052c14     ConvexPolygonsBuilder.obj
 0002:0000cc14       $unwind$?allocate@?$Array@UPxDebugLine@physx@@V?$ReflectionAllocator@UPxDebugLine@physx@@@shdfnd@2@@shdfnd@physx@@IEAAPEAUPxDebugLine@3@I@Z 0000000180052c14     Cooking.obj
 0002:0000cc14       $unwind$?allocate@?$Array@PEAUQuickHullFace@local@@V?$ReflectionAllocator@PEAUQuickHullFace@local@@@shdfnd@physx@@@shdfnd@physx@@IEAAPEAPEAUQuickHullFace@local@@I@Z 0000000180052c14     QuickHullConvexHullLib.obj
 0002:0000cc14       $unwind$?allocate@?$Array@PEAUQuickHullHalfEdge@local@@V?$ReflectionAllocator@PEAUQuickHullHalfEdge@local@@@shdfnd@physx@@@shdfnd@physx@@IEAAPEAPEAUQuickHullHalfEdge@local@@I@Z 0000000180052c14     QuickHullConvexHullLib.obj
 0002:0000cc14       $unwind$?allocate@?$Array@PEAUQuickHullVertex@local@@V?$ReflectionAllocator@PEAUQuickHullVertex@local@@@shdfnd@physx@@@shdfnd@physx@@IEAAPEAPEAUQuickHullVertex@local@@I@Z 0000000180052c14     QuickHullConvexHullLib.obj
 0002:0000cc14       $unwind$?allocate@?$Array@UExpandPoint@local@@V?$ReflectionAllocator@UExpandPoint@local@@@shdfnd@physx@@@shdfnd@physx@@IEAAPEAUExpandPoint@local@@I@Z 0000000180052c14     QuickHullConvexHullLib.obj
 0002:0000cc14       $unwind$?allocate@?$Array@UInterval@physx@@V?$InlineAllocator@$0CAAA@V?$ReflectionAllocator@UInterval@physx@@@shdfnd@physx@@@shdfnd@2@@shdfnd@physx@@IEAAPEAUInterval@3@I@Z 0000000180052c14     RTreeCooking.obj
 0002:0000cc14       $unwind$?allocate@?$Array@UPxBounds3V@physx@@V?$ReflectionAllocator@UPxBounds3V@physx@@@shdfnd@2@@shdfnd@physx@@IEAAPEAUPxBounds3V@3@I@Z 0000000180052c14     RTreeCooking.obj
 0002:0000cc14       $unwind$?allocate@?$Array@URTreeNodeNQ@physx@@V?$ReflectionAllocator@URTreeNodeNQ@physx@@@shdfnd@2@@shdfnd@physx@@IEAAPEAURTreeNodeNQ@3@I@Z 0000000180052c14     RTreeCooking.obj
 0002:0000cc14       $unwind$?allocate@?$Array@URTreeNodeQ@Gu@physx@@V?$ReflectionAllocator@URTreeNodeQ@Gu@physx@@@shdfnd@3@@shdfnd@physx@@IEAAPEAURTreeNodeQ@Gu@3@I@Z 0000000180052c14     RTreeCooking.obj
 0002:0000cc14       $unwind$?allocate@?$Array@VPxVec3@physx@@V?$ReflectionAllocator@VPxVec3@physx@@@shdfnd@2@@shdfnd@physx@@IEAAPEAVPxVec3@3@I@Z 0000000180052c14     RTreeCooking.obj
 0002:0000cc14       $unwind$atol               0000000180052c14     libucrt:atox.obj
 0002:0000cc14       $unwind$strtol             0000000180052c14     libucrt:strtox.obj
 0002:0000cc14       $unwind$_invalid_parameter_noinfo 0000000180052c14     libucrt:invalid_parameter.obj
 0002:0000cc14       $unwind$_log10_special     0000000180052c14     libucrt:log_special.obj
 0002:0000cc1c       $chain$1$?allocate@?$Array@UPxDebugLine@physx@@V?$ReflectionAllocator@UPxDebugLine@physx@@@shdfnd@2@@shdfnd@physx@@IEAAPEAUPxDebugLine@3@I@Z 0000000180052c1c     Cooking.obj
 0002:0000cc34       $chain$3$?allocate@?$Array@UPxDebugLine@physx@@V?$ReflectionAllocator@UPxDebugLine@physx@@@shdfnd@2@@shdfnd@physx@@IEAAPEAUPxDebugLine@3@I@Z 0000000180052c34     Cooking.obj
 0002:0000cc48       $chain$4$?allocate@?$Array@UPxDebugLine@physx@@V?$ReflectionAllocator@UPxDebugLine@physx@@@shdfnd@2@@shdfnd@physx@@IEAAPEAUPxDebugLine@3@I@Z 0000000180052c48     Cooking.obj
 0002:0000cc58       $unwind$?recreate@?$Array@USlab@NodeAllocator@Gu@physx@@V?$ReflectionAllocator@USlab@NodeAllocator@Gu@physx@@@shdfnd@4@@shdfnd@physx@@IEAAXI@Z 0000000180052c58     BVHStructureBuilder.obj
 0002:0000cc58       $unwind$?recreate@?$Array@VHalfEdge@ConvexHull@physx@@V?$ReflectionAllocator@VHalfEdge@ConvexHull@physx@@@shdfnd@3@@shdfnd@physx@@IEAAXI@Z 0000000180052c58     ConvexHullUtils.obj
 0002:0000cc58       $unwind$?recreate@?$Array@VPxPlane@physx@@V?$ReflectionAllocator@VPxPlane@physx@@@shdfnd@2@@shdfnd@physx@@IEAAXI@Z 0000000180052c58     ConvexHullUtils.obj
 0002:0000cc58       $unwind$?copy@ConvexMeshBuilder@physx@@QEAA_NAEAUConvexHullInitData@Gu@2@@Z 0000000180052c58     ConvexMeshBuilder.obj
 0002:0000cc58       $unwind$?recreate@?$Array@UPxDebugLine@physx@@V?$ReflectionAllocator@UPxDebugLine@physx@@@shdfnd@2@@shdfnd@physx@@IEAAXI@Z 0000000180052c58     Cooking.obj
 0002:0000cc58       $unwind$?recreate@?$Array@PEAUQuickHullFace@local@@V?$ReflectionAllocator@PEAUQuickHullFace@local@@@shdfnd@physx@@@shdfnd@physx@@IEAAXI@Z 0000000180052c58     QuickHullConvexHullLib.obj
 0002:0000cc58       $unwind$?recreate@?$Array@PEAUQuickHullHalfEdge@local@@V?$ReflectionAllocator@PEAUQuickHullHalfEdge@local@@@shdfnd@physx@@@shdfnd@physx@@IEAAXI@Z 0000000180052c58     QuickHullConvexHullLib.obj
 0002:0000cc58       $unwind$?recreate@?$Array@PEAUQuickHullVertex@local@@V?$ReflectionAllocator@PEAUQuickHullVertex@local@@@shdfnd@physx@@@shdfnd@physx@@IEAAXI@Z 0000000180052c58     QuickHullConvexHullLib.obj
 0002:0000cc58       $unwind$?recreate@?$Array@UExpandPoint@local@@V?$ReflectionAllocator@UExpandPoint@local@@@shdfnd@physx@@@shdfnd@physx@@IEAAXI@Z 0000000180052c58     QuickHullConvexHullLib.obj
 0002:0000cc58       $unwind$?recreate@?$Array@IV?$ReflectionAllocator@I@shdfnd@physx@@@shdfnd@physx@@IEAAXI@Z 0000000180052c58     RTreeCooking.obj
 0002:0000cc58       $unwind$?recreate@?$Array@UPxBounds3V@physx@@V?$ReflectionAllocator@UPxBounds3V@physx@@@shdfnd@2@@shdfnd@physx@@IEAAXI@Z 0000000180052c58     RTreeCooking.obj
 0002:0000cc58       $unwind$?recreate@?$Array@URTreeNodeNQ@physx@@V?$ReflectionAllocator@URTreeNodeNQ@physx@@@shdfnd@2@@shdfnd@physx@@IEAAXI@Z 0000000180052c58     RTreeCooking.obj
 0002:0000cc58       $unwind$?recreate@?$Array@URTreeNodeQ@Gu@physx@@V?$ReflectionAllocator@URTreeNodeQ@Gu@physx@@@shdfnd@3@@shdfnd@physx@@IEAAXI@Z 0000000180052c58     RTreeCooking.obj
 0002:0000cc58       $unwind$?recreate@?$Array@VPxVec3@physx@@V?$ReflectionAllocator@VPxVec3@physx@@@shdfnd@2@@shdfnd@physx@@IEAAXI@Z 0000000180052c58     RTreeCooking.obj
 0002:0000cc68       $chain$0$?recreate@?$Array@UPxDebugLine@physx@@V?$ReflectionAllocator@UPxDebugLine@physx@@@shdfnd@2@@shdfnd@physx@@IEAAXI@Z 0000000180052c68     Cooking.obj
 0002:0000cc7c       $chain$1$?recreate@?$Array@UPxDebugLine@physx@@V?$ReflectionAllocator@UPxDebugLine@physx@@@shdfnd@2@@shdfnd@physx@@IEAAXI@Z 0000000180052c7c     Cooking.obj
 0002:0000cc8c       $unwind$??$copy@V?$ReflectionAllocator@USlab@NodeAllocator@Gu@physx@@@shdfnd@physx@@@?$Array@USlab@NodeAllocator@Gu@physx@@V?$ReflectionAllocator@USlab@NodeAllocator@Gu@physx@@@shdfnd@4@@shdfnd@physx@@IEAAXAEBV012@@Z 0000000180052c8c     BVHStructureBuilder.obj
 0002:0000cc8c       $unwind$??0NodeAllocator@Gu@physx@@QEAA@AEBV012@@Z 0000000180052c8c     BVHStructureBuilder.obj
 0002:0000cc8c       $unwind$??1ConvexHullLib@physx@@UEAA@XZ 0000000180052c8c     ConvexHullLib.obj
 0002:0000cc8c       $unwind$??1ConvexMeshBuilder@physx@@QEAA@XZ 0000000180052c8c     ConvexMeshBuilder.obj
 0002:0000cc8c       $unwind$??$copy@V?$ReflectionAllocator@VPair@@@shdfnd@physx@@@?$Array@VPair@@V?$ReflectionAllocator@VPair@@@shdfnd@physx@@@shdfnd@physx@@IEAAXAEBV012@@Z 0000000180052c8c     ConvexPolygonsBuilder.obj
 0002:0000cc8c       $unwind$??1ConvexPolygonsBuilder@physx@@QEAA@XZ 0000000180052c8c     ConvexPolygonsBuilder.obj
 0002:0000cc8c       $unwind$?reserveSegments@RenderOutput@Cm@physx@@QEAAPEAUPxDebugLine@3@I@Z 0000000180052c8c     Cooking.obj
 0002:0000cc8c       $unwind$?Clean@ReducedVertexCloud@physx@@QEAAAEAV12@XZ 0000000180052c8c     CookingUtils.obj
 0002:0000cc8c       $unwind$?computeLocalBounds@MeshBulider@physx@@IEAAXAEAVMeshDataBase@Gu@2@@Z 0000000180052c8c     MeshBuilder.obj
 0002:0000cc8c       $unwind$??1QuickHull@local@@QEAA@XZ 0000000180052c8c     QuickHullConvexHullLib.obj
 0002:0000cc8c       $unwind$?fillConvexMeshDesc@QuickHullConvexHullLib@physx@@UEAAXAEAVPxConvexMeshDesc@2@@Z 0000000180052c8c     QuickHullConvexHullLib.obj
 0002:0000cc8c       $unwind$?resizeUninitialized@?$Array@URTreeNodeNQ@physx@@V?$ReflectionAllocator@URTreeNodeNQ@physx@@@shdfnd@2@@shdfnd@physx@@QEAAXI@Z 0000000180052c8c     RTreeCooking.obj
 0002:0000cc8c       $unwind$??0BV4TriangleMeshBuilder@physx@@QEAA@AEBUPxCookingParams@1@@Z 0000000180052c8c     TriangleMeshBuilder.obj
 0002:0000cc8c       $unwind$??1BV4TriangleMeshBuilder@physx@@UEAA@XZ 0000000180052c8c     TriangleMeshBuilder.obj
 0002:0000cc8c       $unwind$??1TriangleMeshBuilder@physx@@UEAA@XZ 0000000180052c8c     TriangleMeshBuilder.obj
 0002:0000cc8c       $unwind$??1TriangleMeshData@Gu@physx@@UEAA@XZ 0000000180052c8c     TriangleMeshBuilder.obj
 0002:0000cc8c       $unwind$??_GBV4TriangleData@Gu@physx@@UEAAPEAXI@Z 0000000180052c8c     TriangleMeshBuilder.obj
 0002:0000cc8c       $unwind$??_GMeshDataBase@Gu@physx@@UEAAPEAXI@Z 0000000180052c8c     TriangleMeshBuilder.obj
 0002:0000cc8c       $unwind$??_GRTreeTriangleData@Gu@physx@@UEAAPEAXI@Z 0000000180052c8c     TriangleMeshBuilder.obj
 0002:0000cc8c       $unwind$??_GRTreeTriangleMeshBuilder@physx@@UEAAPEAXI@Z 0000000180052c8c     TriangleMeshBuilder.obj
 0002:0000cc8c       $unwind$??_GTriangleMeshBuilder@physx@@UEAAPEAXI@Z 0000000180052c8c     TriangleMeshBuilder.obj
 0002:0000cc8c       $unwind$??_GTriangleMeshData@Gu@physx@@UEAAPEAXI@Z 0000000180052c8c     TriangleMeshBuilder.obj
 0002:0000cc8c       $unwind$??$common_initialize_environment_nolock@D@@YAHXZ 0000000180052c8c     libucrt:environment_initialization.obj
 0002:0000cc8c       $unwind$_realloc_base      0000000180052c8c     libucrt:realloc_base.obj
 0002:0000cc8c       $unwind$?replace_current_thread_locale_nolock@@YAXQEAU__acrt_ptd@@QEAU__crt_locale_data@@@Z 0000000180052c8c     libucrt:per_thread_data.obj
 0002:0000cc8c       $unwind$__acrt_execute_uninitializers 0000000180052c8c     libucrt:shared_initialization.obj
 0002:0000cc8c       $unwind$__acrt_FlsSetValue 0000000180052c8c     libucrt:winapi_thunks.obj
 0002:0000cc8c       $unwind$__acrt_LocaleNameToLCID 0000000180052c8c     libucrt:winapi_thunks.obj
 0002:0000cc8c       $unwind$_updatetlocinfoEx_nolock 0000000180052c8c     libucrt:locale_refcounting.obj
 0002:0000cc8c       $unwind$_close_nolock      0000000180052c8c     libucrt:close.obj
 0002:0000cc8c       $unwind$__acrt_uninitialize_lowio 0000000180052c8c     libucrt:ioinit.obj
 0002:0000cc8c       $unwind$__acrt_errno_map_os_error 0000000180052c8c     libucrt:errno.obj
 0002:0000cc8c       $unwind$_initterm_e        0000000180052c8c     libucrt:initterm.obj
 0002:0000cc8c       $unwind$_fclose_nolock     0000000180052c8c     libucrt:fclose.obj
 0002:0000cc8c       $unwind$?type_case_n@?$output_processor@DV?$string_output_adapter@D@__crt_stdio_output@@V?$format_validation_base@DV?$string_output_adapter@D@__crt_stdio_output@@@2@@__crt_stdio_output@@AEAA_NXZ 0000000180052c8c     libucrt:output.obj
 0002:0000cc8c       $unwind$?type_case_n@?$output_processor@DV?$string_output_adapter@D@__crt_stdio_output@@V?$standard_base@DV?$string_output_adapter@D@__crt_stdio_output@@@2@@__crt_stdio_output@@AEAA_NXZ 0000000180052c8c     libucrt:output.obj
 0002:0000cc8c       $unwind$strncpy_s          0000000180052c8c     libucrt:strncpy_s.obj
 0002:0000cc8c       $unwind$?DloadGetSRWLockFunctionPointers@@YAEXZ 0000000180052c8c     Delayimp:delayhlp.obj
 0002:0000cc8c       $unwind$_RTC_Initialize    0000000180052c8c     LIBCMT:initsect.obj
 0002:0000cc8c       $unwind$_RTC_Terminate     0000000180052c8c     LIBCMT:initsect.obj
 0002:0000cc8c       $unwind$__FrameUnwindFilter 0000000180052c8c     libvcruntime:ehhelpers.obj
 0002:0000cc8c       $unwind$??_Gbad_exception@std@@UEAAPEAXI@Z 0000000180052c8c     libvcruntime:frame.obj
 0002:0000cc8c       $unwind$??_Gexception@std@@UEAAPEAXI@Z 0000000180052c8c     libvcruntime:frame.obj
 0002:0000cc8c       $unwind$?ExFilterRethrow@@YAHPEAU_EXCEPTION_POINTERS@@PEAUEHExceptionRecord@@PEAH@Z 0000000180052c8c     libvcruntime:frame.obj
 0002:0000cc8c       $unwind$?ExFilterRethrowFH4@@YAHPEAU_EXCEPTION_POINTERS@@PEAUEHExceptionRecord@@HPEAH@Z 0000000180052c8c     libvcruntime:frame.obj
 0002:0000cc8c       $unwind$_FindAndUnlinkFrame 0000000180052c8c     libvcruntime:risctrnsctrl.obj
 0002:0000cc8c       $unwind$??$append@VDNameNode@@@DName@@AEAAXPEBVDNameNode@@@Z 0000000180052c8c     libvcruntime:undname.obj
 0002:0000cc8c       $unwind$??$append@VDNameStatusNode@@@DName@@AEAAXPEBVDNameStatusNode@@@Z 0000000180052c8c     libvcruntime:undname.obj
 0002:0000cc8c       $unwind$??$append@VcharNode@@@DName@@AEAAXPEBVcharNode@@@Z 0000000180052c8c     libvcruntime:undname.obj
 0002:0000cc8c       $unwind$??$append@VpcharNode@@@DName@@AEAAXPEBVpcharNode@@@Z 0000000180052c8c     libvcruntime:undname.obj
 0002:0000cc8c       $unwind$??YDName@@QEAAAEAV0@AEBUStringLiteral@@@Z 0000000180052c8c     libvcruntime:undname.obj
 0002:0000cc8c       $unwind$??YDName@@QEAAAEAV0@D@Z 0000000180052c8c     libvcruntime:undname.obj
 0002:0000cc8c       $unwind$??YReplicator@@QEAAAEAV0@AEBVDName@@@Z 0000000180052c8c     libvcruntime:undname.obj
 0002:0000cc8c       $unwind$?getString@pairNode@@UEBAPEADPEAD0@Z 0000000180052c8c     libvcruntime:undname.obj
 0002:0000cc8c       $unwind$?length@pairNode@@UEBAHXZ 0000000180052c8c     libvcruntime:undname.obj
 0002:0000cc8c       $unwind$__vcrt_FlsSetValue 0000000180052c8c     libvcruntime:winapi_downlevel.obj
 0002:0000cc98       $unwind$?growAndPushBack@?$Array@VPair@@V?$ReflectionAllocator@VPair@@@shdfnd@physx@@@shdfnd@physx@@IEAAAEAVPair@@AEBV4@@Z 0000000180052c98     ConvexPolygonsBuilder.obj
 0002:0000cc98       $unwind$?outputSegment@RenderOutput@Cm@physx@@QEAAXAEBVPxVec3@3@0@Z 0000000180052c98     Cooking.obj
 0002:0000ccb0       $unwind$?getHeight@HeightField@Gu@physx@@UEBAMMM@Z 0000000180052cb0     Cooking.obj
 0002:0000ccb0       $unwind$__dcrt_lowio_ensure_console_output_initialized 0000000180052cb0     libucrt:initcon.obj
 0002:0000ccb0       $unwind$_isleadbyte_l      0000000180052cb0     libucrt:_wctype.obj
 0002:0000ccb0       $unwind$?getSystemCP@@YAHH@Z 0000000180052cb0     libucrt:mbctype.obj
 0002:0000ccb0       $unwind$?getAddressOf@UnDecorator@@CA?AVDName@@XZ 0000000180052cb0     libvcruntime:undname.obj
 0002:0000ccb0       $unwind$?getArrayAccess@UnDecorator@@CA?AVDName@@XZ 0000000180052cb0     libvcruntime:undname.obj
 0002:0000ccb0       $unwind$?getArrayObject@UnDecorator@@CA?AVDName@@XZ 0000000180052cb0     libvcruntime:undname.obj
 0002:0000ccb0       $unwind$?getMemberAccess@UnDecorator@@CA?AVDName@@XZ 0000000180052cb0     libvcruntime:undname.obj
 0002:0000ccb0       $unwind$?getStringEncoding@UnDecorator@@CA?AVDName@@W4PrefixKind@@H@Z 0000000180052cb0     libvcruntime:undname.obj
 0002:0000ccb0       $unwind$?getUnionObject@UnDecorator@@CA?AVDName@@XZ 0000000180052cb0     libvcruntime:undname.obj
 0002:0000ccb8       $unwind$?getHeightInternal2@HeightField@Gu@physx@@QEBAMIMM@Z 0000000180052cb8     Cooking.obj
 0002:0000ccc4       $chain$0$?getHeightInternal2@HeightField@Gu@physx@@QEBAMIMM@Z 0000000180052cc4     Cooking.obj
 0002:0000ccd8       $chain$2$?getHeightInternal2@HeightField@Gu@physx@@QEBAMIMM@Z 0000000180052cd8     Cooking.obj
 0002:0000ccec       $unwind$?Reduce@ReducedVertexCloud@physx@@QEAA_NPEAUREDUCEDCLOUD@2@@Z 0000000180052cec     CookingUtils.obj
 0002:0000ccf8       $chain$3$?Reduce@ReducedVertexCloud@physx@@QEAA_NPEAUREDUCEDCLOUD@2@@Z 0000000180052cf8     CookingUtils.obj
 0002:0000cd18       $chain$4$?Reduce@ReducedVertexCloud@physx@@QEAA_NPEAUREDUCEDCLOUD@2@@Z 0000000180052d18     CookingUtils.obj
 0002:0000cd2c       $chain$5$?Reduce@ReducedVertexCloud@physx@@QEAA_NPEAUREDUCEDCLOUD@2@@Z 0000000180052d2c     CookingUtils.obj
 0002:0000cd3c       $chain$6$?Reduce@ReducedVertexCloud@physx@@QEAA_NPEAUREDUCEDCLOUD@2@@Z 0000000180052d3c     CookingUtils.obj
 0002:0000cd54       $chain$7$?Reduce@ReducedVertexCloud@physx@@QEAA_NPEAUREDUCEDCLOUD@2@@Z 0000000180052d54     CookingUtils.obj
 0002:0000cd64       $unwind$??1AABBTreeBuildParams@Gu@physx@@QEAA@XZ 0000000180052d64     BVHStructureBuilder.obj
 0002:0000cd64       $unwind$??1BVHStructureBuilder@physx@@QEAA@XZ 0000000180052d64     BVHStructureBuilder.obj
 0002:0000cd64       $unwind$?reset@AABBTreeBuildParams@Gu@physx@@QEAAXXZ 0000000180052d64     BVHStructureBuilder.obj
 0002:0000cd64       $unwind$??1ConvexHullBuilder@physx@@QEAA@XZ 0000000180052d64     ConvexHullBuilder.obj
 0002:0000cd64       $unwind$??_GConvexHullLib@physx@@UEAAPEAXI@Z 0000000180052d64     ConvexHullLib.obj
 0002:0000cd64       $unwind$?resize@?$Array@VPxPlane@physx@@V?$ReflectionAllocator@VPxPlane@physx@@@shdfnd@2@@shdfnd@physx@@QEAAXIAEBVPxPlane@3@@Z 0000000180052d64     ConvexHullUtils.obj
 0002:0000cd64       $unwind$?resize@?$Array@VPxVec3@physx@@V?$ReflectionAllocator@VPxVec3@physx@@@shdfnd@2@@shdfnd@physx@@QEAAXIAEBVPxVec3@3@@Z 0000000180052d64     ConvexHullUtils.obj
 0002:0000cd64       $unwind$??1EdgeList@Gu@physx@@QEAA@XZ 0000000180052d64     EdgeList.obj
 0002:0000cd64       $unwind$??1MeshCleaner@physx@@QEAA@XZ 0000000180052d64     MeshCleaner.obj
 0002:0000cd64       $unwind$??1MeshDataBase@Gu@physx@@UEAA@XZ 0000000180052d64     TriangleMeshBuilder.obj
 0002:0000cd64       $unwind$??_GBV4TriangleMeshBuilder@physx@@UEAAPEAXI@Z 0000000180052d64     TriangleMeshBuilder.obj
 0002:0000cd64       $unwind$memcpy_s           0000000180052d64     libucrt:cfout.obj
 0002:0000cd64       $unwind$__acrt_getptd      0000000180052d64     libucrt:per_thread_data.obj
 0002:0000cd64       $unwind$__acrt_getptd_noexit 0000000180052d64     libucrt:per_thread_data.obj
 0002:0000cd64       $unwind$__acrt_execute_initializers 0000000180052d64     libucrt:shared_initialization.obj
 0002:0000cd64       $unwind$__acrt_InitializeCriticalSectionEx 0000000180052d64     libucrt:winapi_thunks.obj
 0002:0000cd64       $unwind$?free_crt_array_internal@@YAXQEAPEBX_K@Z 0000000180052d64     libucrt:inittime.obj
 0002:0000cd64       $unwind$??$common_lseek_nolock@_J@@YA_JH_JH@Z 0000000180052d64     libucrt:lseek.obj
 0002:0000cd64       $unwind$__acrt_stdio_flush_nolock 0000000180052d64     libucrt:fflush.obj
 0002:0000cd64       $unwind$??0_LocaleUpdate@@QEAA@QEAU__crt_locale_pointers@@@Z 0000000180052d64     libucrt:output.obj
 0002:0000cd64       $unwind$_exception_enabled 0000000180052d64     libucrt:libm_error.obj
 0002:0000cd64       $unwind$_DllMainCRTStartup 0000000180052d64     LIBCMT:dll_dllmain.obj
 0002:0000cd64       $unwind$__vcrt_getptd_noexit 0000000180052d64     libvcruntime:per_thread_data.obj
 0002:0000cd64       $unwind$??$?0$01@pcharNode@@QEAA@PEBDHU?$StringLifeSelector@$01@@@Z 0000000180052d64     libvcruntime:undname.obj
 0002:0000cd64       $unwind$??$?0$0A@@pcharNode@@QEAA@PEBDHU?$StringLifeSelector@$0A@@@@Z 0000000180052d64     libvcruntime:undname.obj
 0002:0000cd64       $unwind$??$doPchar@$01@DName@@AEAAXPEBDH@Z 0000000180052d64     libvcruntime:undname.obj
 0002:0000cd64       $unwind$??$doPchar@$0A@@DName@@AEAAXPEBDH@Z 0000000180052d64     libvcruntime:undname.obj
 0002:0000cd64       $unwind$??0DName@@QEAA@AEAPEBDD@Z 0000000180052d64     libvcruntime:undname.obj
 0002:0000cd64       $unwind$??0DName@@QEAA@PEAV0@@Z 0000000180052d64     libvcruntime:undname.obj
 0002:0000cd64       $unwind$?getMemoryWithBuffer@_HeapManager@@QEAAPEAX_K@Z 0000000180052d64     libvcruntime:undname.obj
 0002:0000cd64       $unwind$__vcrt_InitializeCriticalSectionEx 0000000180052d64     libvcruntime:winapi_downlevel.obj
 0002:0000cd74       $unwind$?init@EdgeListBuilder@Gu@physx@@QEAA_NAEBUEDGELISTCREATE@23@@Z 0000000180052d74     EdgeList.obj
 0002:0000cd74       $unwind$_invalid_parameter 0000000180052d74     libucrt:invalid_parameter.obj
 0002:0000cd88       $unwind$?createFacesToEdges@EdgeListBuilder@Gu@physx@@AEAA_NIPEBIPEBG@Z 0000000180052d88     EdgeList.obj
 0002:0000cd98       $chain$0$?createFacesToEdges@EdgeListBuilder@Gu@physx@@AEAA_NIPEBIPEBG@Z 0000000180052d98     EdgeList.obj
 0002:0000cdac       $chain$3$?createFacesToEdges@EdgeListBuilder@Gu@physx@@AEAA_NIPEBIPEBG@Z 0000000180052dac     EdgeList.obj
 0002:0000cdc8       $chain$4$?createFacesToEdges@EdgeListBuilder@Gu@physx@@AEAA_NIPEBIPEBG@Z 0000000180052dc8     EdgeList.obj
 0002:0000cde0       $chain$5$?createFacesToEdges@EdgeListBuilder@Gu@physx@@AEAA_NIPEBIPEBG@Z 0000000180052de0     EdgeList.obj
 0002:0000cdf8       $chain$6$?createFacesToEdges@EdgeListBuilder@Gu@physx@@AEAA_NIPEBIPEBG@Z 0000000180052df8     EdgeList.obj
 0002:0000ce0c       $chain$7$?createFacesToEdges@EdgeListBuilder@Gu@physx@@AEAA_NIPEBIPEBG@Z 0000000180052e0c     EdgeList.obj
 0002:0000ce1c       $unwind$?createEdgesToFaces@EdgeListBuilder@Gu@physx@@AEAA_NIPEBIPEBG@Z 0000000180052e1c     EdgeList.obj
 0002:0000ce28       $chain$2$?createEdgesToFaces@EdgeListBuilder@Gu@physx@@AEAA_NIPEBIPEBG@Z 0000000180052e28     EdgeList.obj
 0002:0000ce44       $chain$3$?createEdgesToFaces@EdgeListBuilder@Gu@physx@@AEAA_NIPEBIPEBG@Z 0000000180052e44     EdgeList.obj
 0002:0000ce5c       $chain$4$?createEdgesToFaces@EdgeListBuilder@Gu@physx@@AEAA_NIPEBIPEBG@Z 0000000180052e5c     EdgeList.obj
 0002:0000ce70       $unwind$?computeActiveEdges@EdgeListBuilder@Gu@physx@@AEAA_NIPEBIPEBGPEBVPxVec3@3@M@Z 0000000180052e70     EdgeList.obj
 0002:0000ce80       $chain$0$?computeActiveEdges@EdgeListBuilder@Gu@physx@@AEAA_NIPEBIPEBGPEBVPxVec3@3@M@Z 0000000180052e80     EdgeList.obj
 0002:0000ce94       $chain$3$?computeActiveEdges@EdgeListBuilder@Gu@physx@@AEAA_NIPEBIPEBGPEBVPxVec3@3@M@Z 0000000180052e94     EdgeList.obj
 0002:0000ceac       $chain$16$?computeActiveEdges@EdgeListBuilder@Gu@physx@@AEAA_NIPEBIPEBGPEBVPxVec3@3@M@Z 0000000180052eac     EdgeList.obj
 0002:0000cef0       $chain$17$?computeActiveEdges@EdgeListBuilder@Gu@physx@@AEAA_NIPEBIPEBGPEBVPxVec3@3@M@Z 0000000180052ef0     EdgeList.obj
 0002:0000cf04       $chain$18$?computeActiveEdges@EdgeListBuilder@Gu@physx@@AEAA_NIPEBIPEBGPEBVPxVec3@3@M@Z 0000000180052f04     EdgeList.obj
 0002:0000cf14       $chain$19$?computeActiveEdges@EdgeListBuilder@Gu@physx@@AEAA_NIPEBIPEBGPEBVPxVec3@3@M@Z 0000000180052f14     EdgeList.obj
 0002:0000cf24       $chain$0$??$?_UI@@YAPEAX_KV?$ReflectionAllocator@I@shdfnd@physx@@PEBDH@Z 0000000180052f24     EdgeList.obj
 0002:0000cf38       $chain$1$??$?_UI@@YAPEAX_KV?$ReflectionAllocator@I@shdfnd@physx@@PEBDH@Z 0000000180052f38     EdgeList.obj
 0002:0000cf48       $unwind$??0MeshCleaner@physx@@QEAA@IPEBVPxVec3@1@IPEBIM@Z 0000000180052f48     MeshCleaner.obj
 0002:0000cf54       $chain$1$??0MeshCleaner@physx@@QEAA@IPEBVPxVec3@1@IPEBIM@Z 0000000180052f54     MeshCleaner.obj
 0002:0000cf6c       $chain$5$??0MeshCleaner@physx@@QEAA@IPEBVPxVec3@1@IPEBIM@Z 0000000180052f6c     MeshCleaner.obj
 0002:0000cf8c       $chain$7$??0MeshCleaner@physx@@QEAA@IPEBVPxVec3@1@IPEBIM@Z 0000000180052f8c     MeshCleaner.obj
 0002:0000cfa4       $chain$8$??0MeshCleaner@physx@@QEAA@IPEBVPxVec3@1@IPEBIM@Z 0000000180052fa4     MeshCleaner.obj
 0002:0000cfb8       $chain$9$??0MeshCleaner@physx@@QEAA@IPEBVPxVec3@1@IPEBIM@Z 0000000180052fb8     MeshCleaner.obj
 0002:0000cfc8       $chain$10$??0MeshCleaner@physx@@QEAA@IPEBVPxVec3@1@IPEBIM@Z 0000000180052fc8     MeshCleaner.obj
 0002:0000cfd8       $chain$11$??0MeshCleaner@physx@@QEAA@IPEBVPxVec3@1@IPEBIM@Z 0000000180052fd8     MeshCleaner.obj
 0002:0000cff4       $chain$12$??0MeshCleaner@physx@@QEAA@IPEBVPxVec3@1@IPEBIM@Z 0000000180052ff4     MeshCleaner.obj
 0002:0000d004       $unwind$?createQuantizer@physx@@YAPEAVQuantizer@1@XZ 0000000180053004     Quantizer.obj
 0002:0000d004       $unwind$?__mbrtowc_utf8@__crt_mbstring@@YA_KPEA_WPEBD_KPEAU_Mbstatet@@@Z 0000000180053004     libucrt:mbrtowc.obj
 0002:0000d004       $unwind$?type_case_c_tchar@?$output_processor@DV?$string_output_adapter@D@__crt_stdio_output@@V?$format_validation_base@DV?$string_output_adapter@D@__crt_stdio_output@@@2@@__crt_stdio_output@@AEAA_ND@Z 0000000180053004     libucrt:output.obj
 0002:0000d004       $unwind$?type_case_c_tchar@?$output_processor@DV?$string_output_adapter@D@__crt_stdio_output@@V?$standard_base@DV?$string_output_adapter@D@__crt_stdio_output@@@2@@__crt_stdio_output@@AEAA_ND@Z 0000000180053004     libucrt:output.obj
 0002:0000d004       $unwind$__stdio_common_vsprintf_s 0000000180053004     libucrt:output.obj
 0002:0000d004       $unwind$?getNoexcept@UnDecorator@@CA?AVDName@@XZ 0000000180053004     libvcruntime:undname.obj
 0002:0000d004       $unwind$?getVCallThunkType@UnDecorator@@CA?AVDName@@XZ 0000000180053004     libvcruntime:undname.obj
 0002:0000d004       $unwind$?getVdispMapType@UnDecorator@@CA?AVDName@@AEBV2@@Z 0000000180053004     libvcruntime:undname.obj
 0002:0000d00c       $unwind$??$kmeans_cluster@VPxVec3@physx@@M@@YAIPEBVPxVec3@physx@@IIPEAV01@PEAIMM@Z 000000018005300c     Quantizer.obj
 0002:0000d018       $chain$6$??$kmeans_cluster@VPxVec3@physx@@M@@YAIPEBVPxVec3@physx@@IIPEAV01@PEAIMM@Z 0000000180053018     Quantizer.obj
 0002:0000d044       $chain$12$??$kmeans_cluster@VPxVec3@physx@@M@@YAIPEBVPxVec3@physx@@IIPEAV01@PEAIMM@Z 0000000180053044     Quantizer.obj
 0002:0000d06c       $chain$13$??$kmeans_cluster@VPxVec3@physx@@M@@YAIPEBVPxVec3@physx@@IIPEAV01@PEAIMM@Z 000000018005306c     Quantizer.obj
 0002:0000d07c       $chain$14$??$kmeans_cluster@VPxVec3@physx@@M@@YAIPEBVPxVec3@physx@@IIPEAV01@PEAIMM@Z 000000018005307c     Quantizer.obj
 0002:0000d08c       $unwind$?kmeansQuantize3D@QuantizerImpl@@UEAAPEBVPxVec3@physx@@IPEBV23@I_NIAEAI@Z 000000018005308c     Quantizer.obj
 0002:0000d09c       $chain$0$?kmeansQuantize3D@QuantizerImpl@@UEAAPEBVPxVec3@physx@@IPEBV23@I_NIAEAI@Z 000000018005309c     Quantizer.obj
 0002:0000d0b0       $chain$2$?kmeansQuantize3D@QuantizerImpl@@UEAAPEBVPxVec3@physx@@IPEBV23@I_NIAEAI@Z 00000001800530b0     Quantizer.obj
 0002:0000d0c8       $chain$3$?kmeansQuantize3D@QuantizerImpl@@UEAAPEBVPxVec3@physx@@IPEBV23@I_NIAEAI@Z 00000001800530c8     Quantizer.obj
 0002:0000d0dc       $chain$4$?kmeansQuantize3D@QuantizerImpl@@UEAAPEBVPxVec3@physx@@IPEBV23@I_NIAEAI@Z 00000001800530dc     Quantizer.obj
 0002:0000d0ec       $chain$5$?kmeansQuantize3D@QuantizerImpl@@UEAAPEBVPxVec3@physx@@IPEBV23@I_NIAEAI@Z 00000001800530ec     Quantizer.obj
 0002:0000d0fc       $unwind$?normalizeInput@QuantizerImpl@@AEAAXIPEBVPxVec3@physx@@I@Z 00000001800530fc     Quantizer.obj
 0002:0000d118       $chain$3$?normalizeInput@QuantizerImpl@@AEAAXIPEBVPxVec3@physx@@I@Z 0000000180053118     Quantizer.obj
 0002:0000d138       $chain$6$?normalizeInput@QuantizerImpl@@AEAAXIPEBVPxVec3@physx@@I@Z 0000000180053138     Quantizer.obj
 0002:0000d154       $chain$7$?normalizeInput@QuantizerImpl@@AEAAXIPEBVPxVec3@physx@@I@Z 0000000180053154     Quantizer.obj
 0002:0000d164       $chain$8$?normalizeInput@QuantizerImpl@@AEAAXIPEBVPxVec3@physx@@I@Z 0000000180053164     Quantizer.obj
 0002:0000d174       $chain$10$?normalizeInput@QuantizerImpl@@AEAAXIPEBVPxVec3@physx@@I@Z 0000000180053174     Quantizer.obj
 0002:0000d18c       $chain$11$?normalizeInput@QuantizerImpl@@AEAAXIPEBVPxVec3@physx@@I@Z 000000018005318c     Quantizer.obj
 0002:0000d19c       $unwind$?growAndPushBack@?$Array@VPxVec3@physx@@V?$ReflectionAllocator@VPxVec3@physx@@@shdfnd@2@@shdfnd@physx@@IEAAAEAVPxVec3@3@AEBV43@@Z 000000018005319c     Quantizer.obj
 0002:0000d19c       $unwind$?doAdjacentMerge@QuickHull@local@@IEAA_NAEAUQuickHullFace@2@_NAEA_N@Z 000000018005319c     QuickHullConvexHullLib.obj
 0002:0000d19c       $unwind$?saveMidPhaseStructure@BV4TriangleMeshBuilder@physx@@UEBAXAEAVPxOutputStream@2@_N@Z 000000018005319c     TriangleMeshBuilder.obj
 0002:0000d1a8       $chain$0$?growAndPushBack@?$Array@VPxVec3@physx@@V?$ReflectionAllocator@VPxVec3@physx@@@shdfnd@2@@shdfnd@physx@@IEAAAEAVPxVec3@3@AEBV43@@Z 00000001800531a8     Quantizer.obj
 0002:0000d1bc       $chain$1$?growAndPushBack@?$Array@VPxVec3@physx@@V?$ReflectionAllocator@VPxVec3@physx@@@shdfnd@2@@shdfnd@physx@@IEAAAEAVPxVec3@3@AEBV43@@Z 00000001800531bc     Quantizer.obj
 0002:0000d1d0       $chain$2$?growAndPushBack@?$Array@VPxVec3@physx@@V?$ReflectionAllocator@VPxVec3@physx@@@shdfnd@2@@shdfnd@physx@@IEAAAEAVPxVec3@3@AEBV43@@Z 00000001800531d0     Quantizer.obj
 0002:0000d1e0       $chain$4$?growAndPushBack@?$Array@VPxVec3@physx@@V?$ReflectionAllocator@VPxVec3@physx@@@shdfnd@2@@shdfnd@physx@@IEAAAEAVPxVec3@3@AEBV43@@Z 00000001800531e0     Quantizer.obj
 0002:0000d1f4       $chain$3$?growAndPushBack@?$Array@VPxVec3@physx@@V?$ReflectionAllocator@VPxVec3@physx@@@shdfnd@2@@shdfnd@physx@@IEAAAEAVPxVec3@3@AEBV43@@Z 00000001800531f4     Quantizer.obj
 0002:0000d204       $unwind$??_GQuantizerImpl@@EEAAPEAXI@Z 0000000180053204     Quantizer.obj
 0002:0000d204       $unwind$??_GConvexHull@physx@@QEAAPEAXI@Z 0000000180053204     QuickHullConvexHullLib.obj
 0002:0000d210       $chain$0$??_GQuantizerImpl@@EEAAPEAXI@Z 0000000180053210     Quantizer.obj
 0002:0000d224       $chain$1$??_GQuantizerImpl@@EEAAPEAXI@Z 0000000180053224     Quantizer.obj
 0002:0000d234       $unwind$?loadFromDesc@BVHStructureBuilder@physx@@QEAA_NAEBVPxBVHStructureDesc@2@@Z 0000000180053234     BVHStructureBuilder.obj
 0002:0000d248       $unwind$?save@BVHStructureBuilder@physx@@QEBA_NAEAVPxOutputStream@2@_N@Z 0000000180053248     BVHStructureBuilder.obj
 0002:0000d258       $chain$2$?save@BVHStructureBuilder@physx@@QEBA_NAEAVPxOutputStream@2@_N@Z 0000000180053258     BVHStructureBuilder.obj
 0002:0000d270       $chain$3$?save@BVHStructureBuilder@physx@@QEBA_NAEAVPxOutputStream@2@_N@Z 0000000180053270     BVHStructureBuilder.obj
 0002:0000d284       $chain$1$?allocate@?$Array@USlab@NodeAllocator@Gu@physx@@V?$ReflectionAllocator@USlab@NodeAllocator@Gu@physx@@@shdfnd@4@@shdfnd@physx@@IEAAPEAUSlab@NodeAllocator@Gu@3@I@Z 0000000180053284     BVHStructureBuilder.obj
 0002:0000d29c       $chain$3$?allocate@?$Array@USlab@NodeAllocator@Gu@physx@@V?$ReflectionAllocator@USlab@NodeAllocator@Gu@physx@@@shdfnd@4@@shdfnd@physx@@IEAAPEAUSlab@NodeAllocator@Gu@3@I@Z 000000018005329c     BVHStructureBuilder.obj
 0002:0000d2b0       $chain$4$?allocate@?$Array@USlab@NodeAllocator@Gu@physx@@V?$ReflectionAllocator@USlab@NodeAllocator@Gu@physx@@@shdfnd@4@@shdfnd@physx@@IEAAPEAUSlab@NodeAllocator@Gu@3@I@Z 00000001800532b0     BVHStructureBuilder.obj
 0002:0000d2c0       $chain$0$?recreate@?$Array@USlab@NodeAllocator@Gu@physx@@V?$ReflectionAllocator@USlab@NodeAllocator@Gu@physx@@@shdfnd@4@@shdfnd@physx@@IEAAXI@Z 00000001800532c0     BVHStructureBuilder.obj
 0002:0000d2d4       $chain$1$?recreate@?$Array@USlab@NodeAllocator@Gu@physx@@V?$ReflectionAllocator@USlab@NodeAllocator@Gu@physx@@@shdfnd@4@@shdfnd@physx@@IEAAXI@Z 00000001800532d4     BVHStructureBuilder.obj
 0002:0000d2e4       $unwind$??4NodeAllocator@Gu@physx@@QEAAAEAV012@AEBV012@@Z 00000001800532e4     BVHStructureBuilder.obj
 0002:0000d2e4       $unwind$_free_osfhnd       00000001800532e4     libucrt:osfinfo.obj
 0002:0000d2e4       $unwind$?process@?$output_processor@DV?$string_output_adapter@D@__crt_stdio_output@@V?$format_validation_base@DV?$string_output_adapter@D@__crt_stdio_output@@@2@@__crt_stdio_output@@QEAAHXZ 00000001800532e4     libucrt:output.obj
 0002:0000d2e4       $unwind$__std_exception_copy 00000001800532e4     libvcruntime:std_exception.obj
 0002:0000d2e4       $unwind$??$doPchar@$00@DName@@AEAAXPEBDH@Z 00000001800532e4     libvcruntime:undname.obj
 0002:0000d2f8       $unwind$?flatten@@YAXAEBVNodeAllocator@Gu@physx@@PEAUBVHNode@23@@Z 00000001800532f8     BVHStructureBuilder.obj
 0002:0000d304       $chain$5$?flatten@@YAXAEBVNodeAllocator@Gu@physx@@PEAUBVHNode@23@@Z 0000000180053304     BVHStructureBuilder.obj
 0002:0000d32c       $chain$6$?flatten@@YAXAEBVNodeAllocator@Gu@physx@@PEAUBVHNode@23@@Z 000000018005332c     BVHStructureBuilder.obj
 0002:0000d33c       $chain$7$?flatten@@YAXAEBVNodeAllocator@Gu@physx@@PEAUBVHNode@23@@Z 000000018005333c     BVHStructureBuilder.obj
 0002:0000d364       $unwind$?saveHeightField@physx@@YA_NAEBVHeightField@Gu@1@AEAVPxOutputStream@1@_N@Z 0000000180053364     HeightFieldCooking.obj
 0002:0000d374       $chain$2$?saveHeightField@physx@@YA_NAEBVHeightField@Gu@1@AEAVPxOutputStream@1@_N@Z 0000000180053374     HeightFieldCooking.obj
 0002:0000d38c       $chain$3$?saveHeightField@physx@@YA_NAEBVHeightField@Gu@1@AEAVPxOutputStream@1@_N@Z 000000018005338c     HeightFieldCooking.obj
 0002:0000d39c       $chain$0$?allocate@?$ReflectionAllocator@I@shdfnd@physx@@QEAAPEAX_KPEBDH@Z 000000018005339c     RTreeCooking.obj
 0002:0000d3b0       $chain$1$?allocate@?$ReflectionAllocator@I@shdfnd@physx@@QEAAPEAX_KPEBDH@Z 00000001800533b0     RTreeCooking.obj
 0002:0000d3c0       $unwind$?buildFromTriangles@RTreeCooker@physx@@SAXAEAURTree@Gu@2@PEBVPxVec3@2@IPEBGPEBIIAEAV?$Array@IV?$ReflectionAllocator@I@shdfnd@physx@@@shdfnd@2@PEAURemapCallback@12@MW4Enum@PxMeshCookingHint@2@@Z 00000001800533c0     RTreeCooking.obj
 0002:0000d3cc       $chain$7$?buildFromTriangles@RTreeCooker@physx@@SAXAEAURTree@Gu@2@PEBVPxVec3@2@IPEBGPEBIIAEAV?$Array@IV?$ReflectionAllocator@I@shdfnd@physx@@@shdfnd@2@PEAURemapCallback@12@MW4Enum@PxMeshCookingHint@2@@Z 00000001800533cc     RTreeCooking.obj
 0002:0000d3fc       $chain$9$?buildFromTriangles@RTreeCooker@physx@@SAXAEAURTree@Gu@2@PEBVPxVec3@2@IPEBGPEBIIAEAV?$Array@IV?$ReflectionAllocator@I@shdfnd@physx@@@shdfnd@2@PEAURemapCallback@12@MW4Enum@PxMeshCookingHint@2@@Z 00000001800533fc     RTreeCooking.obj
 0002:0000d414       $chain$10$?buildFromTriangles@RTreeCooker@physx@@SAXAEAURTree@Gu@2@PEBVPxVec3@2@IPEBGPEBIIAEAV?$Array@IV?$ReflectionAllocator@I@shdfnd@physx@@@shdfnd@2@PEAURemapCallback@12@MW4Enum@PxMeshCookingHint@2@@Z 0000000180053414     RTreeCooking.obj
 0002:0000d424       $chain$11$?buildFromTriangles@RTreeCooker@physx@@SAXAEAURTree@Gu@2@PEBVPxVec3@2@IPEBGPEBIIAEAV?$Array@IV?$ReflectionAllocator@I@shdfnd@physx@@@shdfnd@2@PEAURemapCallback@12@MW4Enum@PxMeshCookingHint@2@@Z 0000000180053424     RTreeCooking.obj
 0002:0000d434       $unwind$?buildFromBounds@physx@@YAXAEAURTree@Gu@1@PEBUPxBounds3V@1@IAEAV?$Array@IV?$ReflectionAllocator@I@shdfnd@physx@@@shdfnd@1@PEAURemapCallback@RTreeCooker@1@AEAT__m128@@4MW4Enum@PxMeshCookingHint@1@@Z 0000000180053434     RTreeCooking.obj
 0002:0000d450       $chain$1$?allocate@?$Array@UPxBounds3V@physx@@V?$ReflectionAllocator@UPxBounds3V@physx@@@shdfnd@2@@shdfnd@physx@@IEAAPEAUPxBounds3V@3@I@Z 0000000180053450     RTreeCooking.obj
 0002:0000d468       $chain$3$?allocate@?$Array@UPxBounds3V@physx@@V?$ReflectionAllocator@UPxBounds3V@physx@@@shdfnd@2@@shdfnd@physx@@IEAAPEAUPxBounds3V@3@I@Z 0000000180053468     RTreeCooking.obj
 0002:0000d47c       $chain$4$?allocate@?$Array@UPxBounds3V@physx@@V?$ReflectionAllocator@UPxBounds3V@physx@@@shdfnd@2@@shdfnd@physx@@IEAAPEAUPxBounds3V@3@I@Z 000000018005347c     RTreeCooking.obj
 0002:0000d48c       $unwind$?growAndPushBack@?$Array@VHalfEdge@ConvexHull@physx@@V?$ReflectionAllocator@VHalfEdge@ConvexHull@physx@@@shdfnd@3@@shdfnd@physx@@IEAAAEAVHalfEdge@ConvexHull@3@AEBV453@@Z 000000018005348c     ConvexHullUtils.obj
 0002:0000d48c       $unwind$?growAndPushBack@?$Array@VPxPlane@physx@@V?$ReflectionAllocator@VPxPlane@physx@@@shdfnd@2@@shdfnd@physx@@IEAAAEAVPxPlane@3@AEBV43@@Z 000000018005348c     ConvexHullUtils.obj
 0002:0000d48c       $unwind$?resize@?$Array@VHalfEdge@ConvexHull@physx@@V?$ReflectionAllocator@VHalfEdge@ConvexHull@physx@@@shdfnd@3@@shdfnd@physx@@QEAAXIAEBVHalfEdge@ConvexHull@3@@Z 000000018005348c     ConvexHullUtils.obj
 0002:0000d48c       $unwind$??_GQuickHullConvexHullLib@physx@@UEAAPEAXI@Z 000000018005348c     QuickHullConvexHullLib.obj
 0002:0000d48c       $unwind$?growAndPushBack@?$Array@PEAUQuickHullFace@local@@V?$ReflectionAllocator@PEAUQuickHullFace@local@@@shdfnd@physx@@@shdfnd@physx@@IEAAAEAPEAUQuickHullFace@local@@AEBQEAU45@@Z 000000018005348c     QuickHullConvexHullLib.obj
 0002:0000d48c       $unwind$?growAndPushBack@?$Array@PEAUQuickHullHalfEdge@local@@V?$ReflectionAllocator@PEAUQuickHullHalfEdge@local@@@shdfnd@physx@@@shdfnd@physx@@IEAAAEAPEAUQuickHullHalfEdge@local@@AEBQEAU45@@Z 000000018005348c     QuickHullConvexHullLib.obj
 0002:0000d48c       $unwind$?growAndPushBack@?$Array@PEAUQuickHullVertex@local@@V?$ReflectionAllocator@PEAUQuickHullVertex@local@@@shdfnd@physx@@@shdfnd@physx@@IEAAAEAPEAUQuickHullVertex@local@@AEBQEAU45@@Z 000000018005348c     QuickHullConvexHullLib.obj
 0002:0000d48c       $unwind$?growAndPushBack@?$Array@UExpandPoint@local@@V?$ReflectionAllocator@UExpandPoint@local@@@shdfnd@physx@@@shdfnd@physx@@IEAAAEAUExpandPoint@local@@AEBU45@@Z 000000018005348c     QuickHullConvexHullLib.obj
 0002:0000d48c       $unwind$?growAndPushBack@?$Array@UInterval@physx@@V?$InlineAllocator@$0CAAA@V?$ReflectionAllocator@UInterval@physx@@@shdfnd@physx@@@shdfnd@2@@shdfnd@physx@@IEAAAEAUInterval@3@AEBU43@@Z 000000018005348c     RTreeCooking.obj
 0002:0000d48c       $unwind$?growAndPushBack@?$Array@UPxBounds3V@physx@@V?$ReflectionAllocator@UPxBounds3V@physx@@@shdfnd@2@@shdfnd@physx@@IEAAAEAUPxBounds3V@3@AEBU43@@Z 000000018005348c     RTreeCooking.obj
 0002:0000d48c       $unwind$?growAndPushBack@?$Array@URTreeNodeNQ@physx@@V?$ReflectionAllocator@URTreeNodeNQ@physx@@@shdfnd@2@@shdfnd@physx@@IEAAAEAURTreeNodeNQ@3@AEBU43@@Z 000000018005348c     RTreeCooking.obj
 0002:0000d48c       $unwind$?growAndPushBack@?$Array@URTreeNodeQ@Gu@physx@@V?$ReflectionAllocator@URTreeNodeQ@Gu@physx@@@shdfnd@3@@shdfnd@physx@@IEAAAEAURTreeNodeQ@Gu@3@AEBU453@@Z 000000018005348c     RTreeCooking.obj
 0002:0000d48c       $unwind$?resize@?$Array@IV?$ReflectionAllocator@I@shdfnd@physx@@@shdfnd@physx@@QEAAXIAEBI@Z 000000018005348c     RTreeCooking.obj
 0002:0000d48c       $unwind$_ischartype_l      000000018005348c     libucrt:atox.obj
 0002:0000d48c       $unwind$_recalloc_base     000000018005348c     libucrt:recalloc.obj
 0002:0000d48c       $unwind$__acrt_free_locale 000000018005348c     libucrt:locale_refcounting.obj
 0002:0000d48c       $unwind$__acrt_lowio_create_handle_array 000000018005348c     libucrt:osfinfo.obj
 0002:0000d48c       $unwind$?setSBCS@@YAXPEAU__crt_multibyte_data@@@Z 000000018005348c     libucrt:mbctype.obj
 0002:0000d48c       $unwind$_seh_filter_exe    000000018005348c     libucrt:exception_filter.obj
 0002:0000d48c       $unwind$_initterm          000000018005348c     libucrt:initterm.obj
 0002:0000d48c       $unwind$??$ensure_buffer_is_big_enough@D@formatting_buffer@__crt_stdio_output@@QEAA_N_K@Z 000000018005348c     libucrt:output.obj
 0002:0000d48c       $unwind$__scrt_dllmain_exception_filter 000000018005348c     LIBCMT:utility.obj
 0002:0000d48c       $unwind$?Is_bad_exception_allowed@@YAEPEBU_s_ESTypeList@@@Z 000000018005348c     libvcruntime:frame.obj
 0002:0000d4a0       $chain$0$?recreate@?$Array@UPxBounds3V@physx@@V?$ReflectionAllocator@UPxBounds3V@physx@@@shdfnd@2@@shdfnd@physx@@IEAAXI@Z 00000001800534a0     RTreeCooking.obj
 0002:0000d4b4       $chain$1$?recreate@?$Array@UPxBounds3V@physx@@V?$ReflectionAllocator@UPxBounds3V@physx@@@shdfnd@2@@shdfnd@physx@@IEAAXI@Z 00000001800534b4     RTreeCooking.obj
 0002:0000d4c4       $unwind$?growAndPushBack@?$Array@IV?$ReflectionAllocator@I@shdfnd@physx@@@shdfnd@physx@@IEAAAEAIAEBI@Z 00000001800534c4     RTreeCooking.obj
 0002:0000d4d4       $chain$0$?growAndPushBack@?$Array@IV?$ReflectionAllocator@I@shdfnd@physx@@@shdfnd@physx@@IEAAAEAIAEBI@Z 00000001800534d4     RTreeCooking.obj
 0002:0000d4e8       $chain$2$?growAndPushBack@?$Array@IV?$ReflectionAllocator@I@shdfnd@physx@@@shdfnd@physx@@IEAAAEAIAEBI@Z 00000001800534e8     RTreeCooking.obj
 0002:0000d4fc       $chain$1$?growAndPushBack@?$Array@IV?$ReflectionAllocator@I@shdfnd@physx@@@shdfnd@physx@@IEAAAEAIAEBI@Z 00000001800534fc     RTreeCooking.obj
 0002:0000d50c       $chain$0$?recreate@?$Array@IV?$ReflectionAllocator@I@shdfnd@physx@@@shdfnd@physx@@IEAAXI@Z 000000018005350c     RTreeCooking.obj
 0002:0000d520       $chain$1$?recreate@?$Array@IV?$ReflectionAllocator@I@shdfnd@physx@@@shdfnd@physx@@IEAAXI@Z 0000000180053520     RTreeCooking.obj
 0002:0000d530       $chain$1$?allocate@?$Array@VPxVec3@physx@@V?$ReflectionAllocator@VPxVec3@physx@@@shdfnd@2@@shdfnd@physx@@IEAAPEAVPxVec3@3@I@Z 0000000180053530     RTreeCooking.obj
 0002:0000d548       $chain$3$?allocate@?$Array@VPxVec3@physx@@V?$ReflectionAllocator@VPxVec3@physx@@@shdfnd@2@@shdfnd@physx@@IEAAPEAVPxVec3@3@I@Z 0000000180053548     RTreeCooking.obj
 0002:0000d55c       $chain$4$?allocate@?$Array@VPxVec3@physx@@V?$ReflectionAllocator@VPxVec3@physx@@@shdfnd@2@@shdfnd@physx@@IEAAPEAVPxVec3@3@I@Z 000000018005355c     RTreeCooking.obj
 0002:0000d56c       $chain$0$?recreate@?$Array@VPxVec3@physx@@V?$ReflectionAllocator@VPxVec3@physx@@@shdfnd@2@@shdfnd@physx@@IEAAXI@Z 000000018005356c     RTreeCooking.obj
 0002:0000d580       $chain$1$?recreate@?$Array@VPxVec3@physx@@V?$ReflectionAllocator@VPxVec3@physx@@@shdfnd@2@@shdfnd@physx@@IEAAXI@Z 0000000180053580     RTreeCooking.obj
 0002:0000d590       $unwind$?sort4@SubSortQuick@physx@@QEAAXPEIAIIAEAV?$Array@URTreeNodeNQ@physx@@V?$ReflectionAllocator@URTreeNodeNQ@physx@@@shdfnd@2@@shdfnd@2@AEAIAEAUPxBounds3V@2@I@Z 0000000180053590     RTreeCooking.obj
 0002:0000d5a8       $chain$1$?allocate@?$Array@URTreeNodeNQ@physx@@V?$ReflectionAllocator@URTreeNodeNQ@physx@@@shdfnd@2@@shdfnd@physx@@IEAAPEAURTreeNodeNQ@3@I@Z 00000001800535a8     RTreeCooking.obj
 0002:0000d5c0       $chain$3$?allocate@?$Array@URTreeNodeNQ@physx@@V?$ReflectionAllocator@URTreeNodeNQ@physx@@@shdfnd@2@@shdfnd@physx@@IEAAPEAURTreeNodeNQ@3@I@Z 00000001800535c0     RTreeCooking.obj
 0002:0000d5d4       $chain$4$?allocate@?$Array@URTreeNodeNQ@physx@@V?$ReflectionAllocator@URTreeNodeNQ@physx@@@shdfnd@2@@shdfnd@physx@@IEAAPEAURTreeNodeNQ@3@I@Z 00000001800535d4     RTreeCooking.obj
 0002:0000d5e4       $chain$0$?recreate@?$Array@URTreeNodeNQ@physx@@V?$ReflectionAllocator@URTreeNodeNQ@physx@@@shdfnd@2@@shdfnd@physx@@IEAAXI@Z 00000001800535e4     RTreeCooking.obj
 0002:0000d5f8       $chain$1$?recreate@?$Array@URTreeNodeNQ@physx@@V?$ReflectionAllocator@URTreeNodeNQ@physx@@@shdfnd@2@@shdfnd@physx@@IEAAXI@Z 00000001800535f8     RTreeCooking.obj
 0002:0000d608       $unwind$??$quickSelectFirstK@UBoundsLTE@physx@@@quickSelect@physx@@YAXPEIAIIIIAEBUBoundsLTE@1@@Z 0000000180053608     RTreeCooking.obj
 0002:0000d624       $unwind$?split@SubSortSAH@physx@@QEAAIPEAII@Z 0000000180053624     RTreeCooking.obj
 0002:0000d630       $chain$5$?split@SubSortSAH@physx@@QEAAIPEAII@Z 0000000180053630     RTreeCooking.obj
 0002:0000d658       $chain$6$?split@SubSortSAH@physx@@QEAAIPEAII@Z 0000000180053658     RTreeCooking.obj
 0002:0000d66c       $chain$7$?split@SubSortSAH@physx@@QEAAIPEAII@Z 000000018005366c     RTreeCooking.obj
 0002:0000d66c       $chain$9$?split@SubSortSAH@physx@@QEAAIPEAII@Z 000000018005366c     RTreeCooking.obj
 0002:0000d67c       $chain$8$?split@SubSortSAH@physx@@QEAAIPEAII@Z 000000018005367c     RTreeCooking.obj
 0002:0000d690       $chain$10$?split@SubSortSAH@physx@@QEAAIPEAII@Z 0000000180053690     RTreeCooking.obj
 0002:0000d6a0       $unwind$?sort4@SubSortSAH@physx@@QEAAXPEAIIAEAV?$Array@URTreeNodeNQ@physx@@V?$ReflectionAllocator@URTreeNodeNQ@physx@@@shdfnd@2@@shdfnd@2@AEAIIPEAURTreeNodeNQ@2@@Z 00000001800536a0     RTreeCooking.obj
 0002:0000d6bc       $chain$2$?sort4@SubSortSAH@physx@@QEAAXPEAIIAEAV?$Array@URTreeNodeNQ@physx@@V?$ReflectionAllocator@URTreeNodeNQ@physx@@@shdfnd@2@@shdfnd@2@AEAIIPEAURTreeNodeNQ@2@@Z 00000001800536bc     RTreeCooking.obj
 0002:0000d6d8       $chain$3$?sort4@SubSortSAH@physx@@QEAAXPEAIIAEAV?$Array@URTreeNodeNQ@physx@@V?$ReflectionAllocator@URTreeNodeNQ@physx@@@shdfnd@2@@shdfnd@2@AEAIIPEAURTreeNodeNQ@2@@Z 00000001800536d8     RTreeCooking.obj
 0002:0000d6ec       $chain$4$?sort4@SubSortSAH@physx@@QEAAXPEAIIAEAV?$Array@URTreeNodeNQ@physx@@V?$ReflectionAllocator@URTreeNodeNQ@physx@@@shdfnd@2@@shdfnd@2@AEAIIPEAURTreeNodeNQ@2@@Z 00000001800536ec     RTreeCooking.obj
 0002:0000d6fc       $chain$5$?sort4@SubSortSAH@physx@@QEAAXPEAIIAEAV?$Array@URTreeNodeNQ@physx@@V?$ReflectionAllocator@URTreeNodeNQ@physx@@@shdfnd@2@@shdfnd@2@AEAIIPEAURTreeNodeNQ@2@@Z 00000001800536fc     RTreeCooking.obj
 0002:0000d710       $chain$6$?sort4@SubSortSAH@physx@@QEAAXPEAIIAEAV?$Array@URTreeNodeNQ@physx@@V?$ReflectionAllocator@URTreeNodeNQ@physx@@@shdfnd@2@@shdfnd@2@AEAIIPEAURTreeNodeNQ@2@@Z 0000000180053710     RTreeCooking.obj
 0002:0000d720       $chain$1$?allocate@?$Array@UInterval@physx@@V?$InlineAllocator@$0CAAA@V?$ReflectionAllocator@UInterval@physx@@@shdfnd@physx@@@shdfnd@2@@shdfnd@physx@@IEAAPEAUInterval@3@I@Z 0000000180053720     RTreeCooking.obj
 0002:0000d738       $chain$3$?allocate@?$Array@UInterval@physx@@V?$InlineAllocator@$0CAAA@V?$ReflectionAllocator@UInterval@physx@@@shdfnd@physx@@@shdfnd@2@@shdfnd@physx@@IEAAPEAUInterval@3@I@Z 0000000180053738     RTreeCooking.obj
 0002:0000d74c       $chain$4$?allocate@?$Array@UInterval@physx@@V?$InlineAllocator@$0CAAA@V?$ReflectionAllocator@UInterval@physx@@@shdfnd@physx@@@shdfnd@2@@shdfnd@physx@@IEAAPEAUInterval@3@I@Z 000000018005374c     RTreeCooking.obj
 0002:0000d75c       $chain$1$?allocate@?$Array@URTreeNodeQ@Gu@physx@@V?$ReflectionAllocator@URTreeNodeQ@Gu@physx@@@shdfnd@3@@shdfnd@physx@@IEAAPEAURTreeNodeQ@Gu@3@I@Z 000000018005375c     RTreeCooking.obj
 0002:0000d774       $chain$3$?allocate@?$Array@URTreeNodeQ@Gu@physx@@V?$ReflectionAllocator@URTreeNodeQ@Gu@physx@@@shdfnd@3@@shdfnd@physx@@IEAAPEAURTreeNodeQ@Gu@3@I@Z 0000000180053774     RTreeCooking.obj
 0002:0000d788       $chain$4$?allocate@?$Array@URTreeNodeQ@Gu@physx@@V?$ReflectionAllocator@URTreeNodeQ@Gu@physx@@@shdfnd@3@@shdfnd@physx@@IEAAPEAURTreeNodeQ@Gu@3@I@Z 0000000180053788     RTreeCooking.obj
 0002:0000d798       $chain$0$?recreate@?$Array@URTreeNodeQ@Gu@physx@@V?$ReflectionAllocator@URTreeNodeQ@Gu@physx@@@shdfnd@3@@shdfnd@physx@@IEAAXI@Z 0000000180053798     RTreeCooking.obj
 0002:0000d7ac       $chain$1$?recreate@?$Array@URTreeNodeQ@Gu@physx@@V?$ReflectionAllocator@URTreeNodeQ@Gu@physx@@@shdfnd@3@@shdfnd@physx@@IEAAXI@Z 00000001800537ac     RTreeCooking.obj
 0002:0000d7bc       $unwind$??$sort@IU?$Less@I@shdfnd@physx@@V?$ReflectionAllocator@I@23@@shdfnd@physx@@YAXPEAIIAEBU?$Less@I@01@AEBV?$ReflectionAllocator@I@01@I@Z 00000001800537bc     RTreeCooking.obj
 0002:0000d7dc       $unwind$??$sort@IUSortBoundsPredicate@physx@@V?$ReflectionAllocator@I@shdfnd@2@@shdfnd@physx@@YAXPEAIIAEBUSortBoundsPredicate@1@AEBV?$ReflectionAllocator@I@01@I@Z 00000001800537dc     RTreeCooking.obj
 0002:0000d7f8       $unwind$??$smallSort@I$$CBUSortBoundsPredicate@physx@@@internal@shdfnd@physx@@YAXPEAIHHAEBUSortBoundsPredicate@2@@Z 00000001800537f8     RTreeCooking.obj
 0002:0000d804       $chain$6$??$smallSort@I$$CBUSortBoundsPredicate@physx@@@internal@shdfnd@physx@@YAXPEAIHHAEBUSortBoundsPredicate@2@@Z 0000000180053804     RTreeCooking.obj
 0002:0000d830       $chain$7$??$smallSort@I$$CBUSortBoundsPredicate@physx@@@internal@shdfnd@physx@@YAXPEAIHHAEBUSortBoundsPredicate@2@@Z 0000000180053830     RTreeCooking.obj
 0002:0000d840       $unwind$?preallocate@QuickHull@local@@QEAAXI@Z 0000000180053840     QuickHullConvexHullLib.obj
 0002:0000d840       $unwind$?allocateVertices@MeshDataBase@Gu@physx@@QEAAPEAVPxVec3@3@I@Z 0000000180053840     TriangleMeshBuilder.obj
 0002:0000d840       $unwind$?getStateFromIterators@UWMap4@FH4@@SAHAEBViterator@12@H0H0@Z 0000000180053840     libvcruntime:frame.obj
 0002:0000d840       $unwind$?getUndecoratedName@UnDecorator@@QEAAPEADPEADH@Z 0000000180053840     libvcruntime:undname.obj
 0002:0000d850       $unwind$??0QuickHullConvexHullLib@physx@@QEAA@AEBVPxConvexMeshDesc@1@AEBUPxCookingParams@1@@Z 0000000180053850     QuickHullConvexHullLib.obj
 0002:0000d850       $unwind$?allocateTriangles@TriangleMeshData@Gu@physx@@QEAAPEAXI_NI@Z 0000000180053850     TriangleMeshBuilder.obj
 0002:0000d868       $chain$0$??$?_UG@@YAPEAX_KV?$ReflectionAllocator@G@shdfnd@physx@@PEBDH@Z 0000000180053868     TriangleMeshBuilder.obj
 0002:0000d87c       $chain$1$??$?_UG@@YAPEAX_KV?$ReflectionAllocator@G@shdfnd@physx@@PEBDH@Z 000000018005387c     TriangleMeshBuilder.obj
 0002:0000d88c       $chain$0$??1RTreeTriangleData@Gu@physx@@UEAA@XZ 000000018005388c     TriangleMeshBuilder.obj
 0002:0000d8a0       $chain$1$??1RTreeTriangleData@Gu@physx@@UEAA@XZ 00000001800538a0     TriangleMeshBuilder.obj
 0002:0000d8b0       $unwind$?cleanMesh@TriangleMeshBuilder@physx@@QEAA_N_NPEAW4Enum@PxTriangleMeshCookingResult@2@@Z 00000001800538b0     TriangleMeshBuilder.obj
 0002:0000d8c4       $chain$0$?cleanMesh@TriangleMeshBuilder@physx@@QEAA_N_NPEAW4Enum@PxTriangleMeshCookingResult@2@@Z 00000001800538c4     TriangleMeshBuilder.obj
 0002:0000d8d8       $chain$1$?cleanMesh@TriangleMeshBuilder@physx@@QEAA_N_NPEAW4Enum@PxTriangleMeshCookingResult@2@@Z 00000001800538d8     TriangleMeshBuilder.obj
 0002:0000d8ec       $chain$2$?cleanMesh@TriangleMeshBuilder@physx@@QEAA_N_NPEAW4Enum@PxTriangleMeshCookingResult@2@@Z 00000001800538ec     TriangleMeshBuilder.obj
 0002:0000d900       $chain$3$?cleanMesh@TriangleMeshBuilder@physx@@QEAA_N_NPEAW4Enum@PxTriangleMeshCookingResult@2@@Z 0000000180053900     TriangleMeshBuilder.obj
 0002:0000d914       $chain$4$?cleanMesh@TriangleMeshBuilder@physx@@QEAA_N_NPEAW4Enum@PxTriangleMeshCookingResult@2@@Z 0000000180053914     TriangleMeshBuilder.obj
 0002:0000d924       $chain$5$?cleanMesh@TriangleMeshBuilder@physx@@QEAA_N_NPEAW4Enum@PxTriangleMeshCookingResult@2@@Z 0000000180053924     TriangleMeshBuilder.obj
 0002:0000d934       $chain$9$?cleanMesh@TriangleMeshBuilder@physx@@QEAA_N_NPEAW4Enum@PxTriangleMeshCookingResult@2@@Z 0000000180053934     TriangleMeshBuilder.obj
 0002:0000d950       $chain$6$?cleanMesh@TriangleMeshBuilder@physx@@QEAA_N_NPEAW4Enum@PxTriangleMeshCookingResult@2@@Z 0000000180053950     TriangleMeshBuilder.obj
 0002:0000d960       $chain$10$?cleanMesh@TriangleMeshBuilder@physx@@QEAA_N_NPEAW4Enum@PxTriangleMeshCookingResult@2@@Z 0000000180053960     TriangleMeshBuilder.obj
 0002:0000d970       $unwind$?remapTopology@TriangleMeshBuilder@physx@@QEAAXPEBI@Z 0000000180053970     TriangleMeshBuilder.obj
 0002:0000d97c       $chain$4$?remapTopology@TriangleMeshBuilder@physx@@QEAAXPEBI@Z 000000018005397c     TriangleMeshBuilder.obj
 0002:0000d9a0       $chain$5$?remapTopology@TriangleMeshBuilder@physx@@QEAAXPEBI@Z 00000001800539a0     TriangleMeshBuilder.obj
 0002:0000d9c0       $chain$6$?remapTopology@TriangleMeshBuilder@physx@@QEAAXPEBI@Z 00000001800539c0     TriangleMeshBuilder.obj
 0002:0000d9d0       $unwind$?createSharedEdgeData@TriangleMeshBuilder@physx@@QEAAX_N0@Z 00000001800539d0     TriangleMeshBuilder.obj
 0002:0000d9dc       $chain$3$?createSharedEdgeData@TriangleMeshBuilder@physx@@QEAAX_N0@Z 00000001800539dc     TriangleMeshBuilder.obj
 0002:0000d9fc       $chain$4$?createSharedEdgeData@TriangleMeshBuilder@physx@@QEAAX_N0@Z 00000001800539fc     TriangleMeshBuilder.obj
 0002:0000da10       $chain$5$?createSharedEdgeData@TriangleMeshBuilder@physx@@QEAAX_N0@Z 0000000180053a10     TriangleMeshBuilder.obj
 0002:0000da20       $chain$6$?createSharedEdgeData@TriangleMeshBuilder@physx@@QEAAX_N0@Z 0000000180053a20     TriangleMeshBuilder.obj
 0002:0000da30       $unwind$?createGRBMidPhaseAndData@TriangleMeshBuilder@physx@@QEAAXI@Z 0000000180053a30     TriangleMeshBuilder.obj
 0002:0000da3c       $chain$0$?createGRBMidPhaseAndData@TriangleMeshBuilder@physx@@QEAAXI@Z 0000000180053a3c     TriangleMeshBuilder.obj
 0002:0000da50       $chain$4$?createGRBMidPhaseAndData@TriangleMeshBuilder@physx@@QEAAXI@Z 0000000180053a50     TriangleMeshBuilder.obj
 0002:0000da70       $chain$5$?createGRBMidPhaseAndData@TriangleMeshBuilder@physx@@QEAAXI@Z 0000000180053a70     TriangleMeshBuilder.obj
 0002:0000da8c       $chain$6$?createGRBMidPhaseAndData@TriangleMeshBuilder@physx@@QEAAXI@Z 0000000180053a8c     TriangleMeshBuilder.obj
 0002:0000daa0       $chain$7$?createGRBMidPhaseAndData@TriangleMeshBuilder@physx@@QEAAXI@Z 0000000180053aa0     TriangleMeshBuilder.obj
 0002:0000dab4       $chain$8$?createGRBMidPhaseAndData@TriangleMeshBuilder@physx@@QEAAXI@Z 0000000180053ab4     TriangleMeshBuilder.obj
 0002:0000dac4       $unwind$?loadFromDesc@TriangleMeshBuilder@physx@@QEAA_NAEBVPxTriangleMeshDesc@2@PEAW4Enum@PxTriangleMeshCookingResult@2@_N@Z 0000000180053ac4     TriangleMeshBuilder.obj
 0002:0000dad4       $chain$2$?loadFromDesc@TriangleMeshBuilder@physx@@QEAA_NAEBVPxTriangleMeshDesc@2@PEAW4Enum@PxTriangleMeshCookingResult@2@_N@Z 0000000180053ad4     TriangleMeshBuilder.obj
 0002:0000daf0       $chain$4$?loadFromDesc@TriangleMeshBuilder@physx@@QEAA_NAEBVPxTriangleMeshDesc@2@PEAW4Enum@PxTriangleMeshCookingResult@2@_N@Z 0000000180053af0     TriangleMeshBuilder.obj
 0002:0000db0c       $chain$5$?loadFromDesc@TriangleMeshBuilder@physx@@QEAA_NAEBVPxTriangleMeshDesc@2@PEAW4Enum@PxTriangleMeshCookingResult@2@_N@Z 0000000180053b0c     TriangleMeshBuilder.obj
 0002:0000db1c       $unwind$?save@TriangleMeshBuilder@physx@@QEBA_NAEAVPxOutputStream@2@_NAEBUPxCookingParams@2@@Z 0000000180053b1c     TriangleMeshBuilder.obj
 0002:0000db38       $chain$3$?save@TriangleMeshBuilder@physx@@QEBA_NAEAVPxOutputStream@2@_NAEBUPxCookingParams@2@@Z 0000000180053b38     TriangleMeshBuilder.obj
 0002:0000db4c       $unwind$?checkMeshIndicesSize@TriangleMeshBuilder@physx@@QEAAXXZ 0000000180053b4c     TriangleMeshBuilder.obj
 0002:0000db58       $chain$1$?checkMeshIndicesSize@TriangleMeshBuilder@physx@@QEAAXXZ 0000000180053b58     TriangleMeshBuilder.obj
 0002:0000db70       $chain$3$?checkMeshIndicesSize@TriangleMeshBuilder@physx@@QEAAXXZ 0000000180053b70     TriangleMeshBuilder.obj
 0002:0000db88       $chain$4$?checkMeshIndicesSize@TriangleMeshBuilder@physx@@QEAAXXZ 0000000180053b88     TriangleMeshBuilder.obj
 0002:0000db9c       $chain$5$?checkMeshIndicesSize@TriangleMeshBuilder@physx@@QEAAXXZ 0000000180053b9c     TriangleMeshBuilder.obj
 0002:0000dbac       $unwind$?importMesh@TriangleMeshBuilder@physx@@IEAA_NAEBVPxTriangleMeshDesc@2@AEBUPxCookingParams@2@PEAW4Enum@PxTriangleMeshCookingResult@2@_N@Z 0000000180053bac     TriangleMeshBuilder.obj
 0002:0000dbc8       $unwind$?createMidPhaseStructure@RTreeTriangleMeshBuilder@physx@@UEAAXXZ 0000000180053bc8     TriangleMeshBuilder.obj
 0002:0000dbd0       $unwind$?saveMidPhaseStructure@RTreeTriangleMeshBuilder@physx@@UEBAXAEAVPxOutputStream@2@_N@Z 0000000180053bd0     TriangleMeshBuilder.obj
 0002:0000dbe0       $chain$0$?saveMidPhaseStructure@RTreeTriangleMeshBuilder@physx@@UEBAXAEAVPxOutputStream@2@_N@Z 0000000180053be0     TriangleMeshBuilder.obj
 0002:0000dbf4       $chain$1$?saveMidPhaseStructure@RTreeTriangleMeshBuilder@physx@@UEBAXAEAVPxOutputStream@2@_N@Z 0000000180053bf4     TriangleMeshBuilder.obj
 0002:0000dc04       $unwind$?createMidPhaseStructure@BV4TriangleMeshBuilder@physx@@UEAAXXZ 0000000180053c04     TriangleMeshBuilder.obj
 0002:0000dc10       $chain$2$?createMidPhaseStructure@BV4TriangleMeshBuilder@physx@@UEAAXXZ 0000000180053c10     TriangleMeshBuilder.obj
 0002:0000dc2c       $chain$3$?createMidPhaseStructure@BV4TriangleMeshBuilder@physx@@UEAAXXZ 0000000180053c2c     TriangleMeshBuilder.obj
 0002:0000dc40       $chain$4$?createMidPhaseStructure@BV4TriangleMeshBuilder@physx@@UEAAXXZ 0000000180053c40     TriangleMeshBuilder.obj
 0002:0000dc50       $chain$5$?createMidPhaseStructure@BV4TriangleMeshBuilder@physx@@UEAAXXZ 0000000180053c50     TriangleMeshBuilder.obj
 0002:0000dc64       $unwind$?createMidPhaseStructure@BV32TriangleMeshBuilder@physx@@SAXAEBUPxCookingParams@2@AEAVTriangleMeshData@Gu@2@AEAVBV32Tree@52@@Z 0000000180053c64     TriangleMeshBuilder.obj
 0002:0000dc74       $chain$0$?createMidPhaseStructure@BV32TriangleMeshBuilder@physx@@SAXAEBUPxCookingParams@2@AEAVTriangleMeshData@Gu@2@AEAVBV32Tree@52@@Z 0000000180053c74     TriangleMeshBuilder.obj
 0002:0000dc88       $chain$1$?createMidPhaseStructure@BV32TriangleMeshBuilder@physx@@SAXAEBUPxCookingParams@2@AEAVTriangleMeshData@Gu@2@AEAVBV32Tree@52@@Z 0000000180053c88     TriangleMeshBuilder.obj
 0002:0000dc9c       $chain$2$?createMidPhaseStructure@BV32TriangleMeshBuilder@physx@@SAXAEBUPxCookingParams@2@AEAVTriangleMeshData@Gu@2@AEAVBV32Tree@52@@Z 0000000180053c9c     TriangleMeshBuilder.obj
 0002:0000dcac       $chain$3$?createMidPhaseStructure@BV32TriangleMeshBuilder@physx@@SAXAEBUPxCookingParams@2@AEAVTriangleMeshData@Gu@2@AEAVBV32Tree@52@@Z 0000000180053cac     TriangleMeshBuilder.obj
 0002:0000dcbc       $unwind$?findAdjacent@physx@@YAIPEBVPxVec3@1@0PEBUuint3@1@IIIAEBVPxPlane@1@PEAUEdgeTriLookup@1@I@Z 0000000180053cbc     TriangleMeshBuilder.obj
 0002:0000dce0       $unwind$?buildAdjacencies@physx@@YAXPEAUuint4@1@PEAVPxVec3@1@PEBV31@PEBUuint3@1@I@Z 0000000180053ce0     TriangleMeshBuilder.obj
 0002:0000dcec       $chain$7$?buildAdjacencies@physx@@YAXPEAUuint4@1@PEAVPxVec3@1@PEBV31@PEBUuint3@1@I@Z 0000000180053cec     TriangleMeshBuilder.obj
 0002:0000dd1c       $chain$11$?buildAdjacencies@physx@@YAXPEAUuint4@1@PEAVPxVec3@1@PEBV31@PEBUuint3@1@I@Z 0000000180053d1c     TriangleMeshBuilder.obj
 0002:0000dd3c       $chain$12$?buildAdjacencies@physx@@YAXPEAUuint4@1@PEAVPxVec3@1@PEBV31@PEBUuint3@1@I@Z 0000000180053d3c     TriangleMeshBuilder.obj
 0002:0000dd4c       $chain$13$?buildAdjacencies@physx@@YAXPEAUuint4@1@PEAVPxVec3@1@PEBV31@PEBUuint3@1@I@Z 0000000180053d4c     TriangleMeshBuilder.obj
 0002:0000dd5c       $unwind$??$sort@UEdgeTriLookup@physx@@U?$Less@UEdgeTriLookup@physx@@@shdfnd@2@V?$ReflectionAllocator@UEdgeTriLookup@physx@@@42@@shdfnd@physx@@YAXPEAUEdgeTriLookup@1@IAEBU?$Less@UEdgeTriLookup@physx@@@01@AEBV?$ReflectionAllocator@UEdgeTriLookup@physx@@@01@I@Z 0000000180053d5c     TriangleMeshBuilder.obj
 0002:0000dd7c       $unwind$?precompute@BigConvexDataBuilder@physx@@QEAA_NI@Z 0000000180053d7c     BigConvexDataBuilder.obj
 0002:0000dd94       $chain$10$?precompute@BigConvexDataBuilder@physx@@QEAA_NI@Z 0000000180053d94     BigConvexDataBuilder.obj
 0002:0000ddd0       $chain$11$?precompute@BigConvexDataBuilder@physx@@QEAA_NI@Z 0000000180053dd0     BigConvexDataBuilder.obj
 0002:0000dde0       $unwind$?save@BigConvexDataBuilder@physx@@QEBA_NAEAVPxOutputStream@2@_N@Z 0000000180053de0     BigConvexDataBuilder.obj
 0002:0000dde0       $unwind$?x_ismbbtype_l@@YAHPEAU__crt_locale_pointers@@IHH@Z 0000000180053de0     libucrt:ismbbyte.obj
 0002:0000ddf0       $unwind$?computeValencies@BigConvexDataBuilder@physx@@QEAA_NAEBVConvexHullBuilder@2@@Z 0000000180053df0     BigConvexDataBuilder.obj
 0002:0000de04       $chain$2$?computeValencies@BigConvexDataBuilder@physx@@QEAA_NAEBVConvexHullBuilder@2@@Z 0000000180053e04     BigConvexDataBuilder.obj
 0002:0000de20       $chain$3$?computeValencies@BigConvexDataBuilder@physx@@QEAA_NAEBVConvexHullBuilder@2@@Z 0000000180053e20     BigConvexDataBuilder.obj
 0002:0000de30       $unwind$?saveValencies@BigConvexDataBuilder@physx@@QEBA_NAEAVPxOutputStream@2@_N@Z 0000000180053e30     BigConvexDataBuilder.obj
 0002:0000de3c       $chain$1$?saveValencies@BigConvexDataBuilder@physx@@QEBA_NAEAVPxOutputStream@2@_N@Z 0000000180053e3c     BigConvexDataBuilder.obj
 0002:0000de54       $chain$2$?saveValencies@BigConvexDataBuilder@physx@@QEBA_NAEAVPxOutputStream@2@_N@Z 0000000180053e54     BigConvexDataBuilder.obj
 0002:0000de68       $chain$3$?saveValencies@BigConvexDataBuilder@physx@@QEBA_NAEAVPxOutputStream@2@_N@Z 0000000180053e68     BigConvexDataBuilder.obj
 0002:0000de78       $chain$4$?saveValencies@BigConvexDataBuilder@physx@@QEBA_NAEAVPxOutputStream@2@_N@Z 0000000180053e78     BigConvexDataBuilder.obj
 0002:0000de8c       $unwind$?init@ConvexHullBuilder@physx@@QEAA_NIPEBVPxVec3@2@PEBIIIPEBUPxHullPolygon@2@_NPEAVConvexHullLib@2@@Z 0000000180053e8c     ConvexHullBuilder.obj
 0002:0000dea4       $chain$0$?init@ConvexHullBuilder@physx@@QEAA_NIPEBVPxVec3@2@PEBIIIPEBUPxHullPolygon@2@_NPEAVConvexHullLib@2@@Z 0000000180053ea4     ConvexHullBuilder.obj
 0002:0000deb8       $chain$2$?init@ConvexHullBuilder@physx@@QEAA_NIPEBVPxVec3@2@PEBIIIPEBUPxHullPolygon@2@_NPEAVConvexHullLib@2@@Z 0000000180053eb8     ConvexHullBuilder.obj
 0002:0000ded0       $chain$9$?init@ConvexHullBuilder@physx@@QEAA_NIPEBVPxVec3@2@PEBIIIPEBUPxHullPolygon@2@_NPEAVConvexHullLib@2@@Z 0000000180053ed0     ConvexHullBuilder.obj
 0002:0000defc       $chain$10$?init@ConvexHullBuilder@physx@@QEAA_NIPEBVPxVec3@2@PEBIIIPEBUPxHullPolygon@2@_NPEAVConvexHullLib@2@@Z 0000000180053efc     ConvexHullBuilder.obj
 0002:0000df0c       $chain$11$?init@ConvexHullBuilder@physx@@QEAA_NIPEBVPxVec3@2@PEBIIIPEBUPxHullPolygon@2@_NPEAVConvexHullLib@2@@Z 0000000180053f0c     ConvexHullBuilder.obj
 0002:0000df1c       $chain$12$?init@ConvexHullBuilder@physx@@QEAA_NIPEBVPxVec3@2@PEBIIIPEBUPxHullPolygon@2@_NPEAVConvexHullLib@2@@Z 0000000180053f1c     ConvexHullBuilder.obj
 0002:0000df2c       $chain$13$?init@ConvexHullBuilder@physx@@QEAA_NIPEBVPxVec3@2@PEBIIIPEBUPxHullPolygon@2@_NPEAVConvexHullLib@2@@Z 0000000180053f2c     ConvexHullBuilder.obj
 0002:0000df48       $chain$14$?init@ConvexHullBuilder@physx@@QEAA_NIPEBVPxVec3@2@PEBIIIPEBUPxHullPolygon@2@_NPEAVConvexHullLib@2@@Z 0000000180053f48     ConvexHullBuilder.obj
 0002:0000df5c       $unwind$?save@ConvexHullBuilder@physx@@QEBA_NAEAVPxOutputStream@2@_N@Z 0000000180053f5c     ConvexHullBuilder.obj
 0002:0000df6c       $chain$0$?save@ConvexHullBuilder@physx@@QEBA_NAEAVPxOutputStream@2@_N@Z 0000000180053f6c     ConvexHullBuilder.obj
 0002:0000df80       $chain$3$?save@ConvexHullBuilder@physx@@QEBA_NAEAVPxOutputStream@2@_N@Z 0000000180053f80     ConvexHullBuilder.obj
 0002:0000df9c       $chain$4$?save@ConvexHullBuilder@physx@@QEBA_NAEAVPxOutputStream@2@_N@Z 0000000180053f9c     ConvexHullBuilder.obj
 0002:0000dfb0       $chain$5$?save@ConvexHullBuilder@physx@@QEBA_NAEAVPxOutputStream@2@_N@Z 0000000180053fb0     ConvexHullBuilder.obj
 0002:0000dfc0       $unwind$?copy@ConvexHullBuilder@physx@@QEAA_NAEAUConvexHullData@Gu@2@AEAI@Z 0000000180053fc0     ConvexHullBuilder.obj
 0002:0000dfc0       $unwind$??$copy_and_add_argument_to_buffer@D@@YAHQEBD0_KAEAV?$argument_list@D@?A0x5f5c8891@@@Z 0000000180053fc0     libucrt:argv_wildcards.obj
 0002:0000dfdc       $unwind$?createEdgeList@ConvexHullBuilder@physx@@QEAA_N_NI@Z 0000000180053fdc     ConvexHullBuilder.obj
 0002:0000dfec       $chain$4$?createEdgeList@ConvexHullBuilder@physx@@QEAA_N_NI@Z 0000000180053fec     ConvexHullBuilder.obj
 0002:0000e010       $chain$6$?createEdgeList@ConvexHullBuilder@physx@@QEAA_N_NI@Z 0000000180054010     ConvexHullBuilder.obj
 0002:0000e034       $unwind$?checkHullPolygons@ConvexHullBuilder@physx@@QEBA_NXZ 0000000180054034     ConvexHullBuilder.obj
 0002:0000e040       $chain$14$?checkHullPolygons@ConvexHullBuilder@physx@@QEBA_NXZ 0000000180054040     ConvexHullBuilder.obj
 0002:0000e08c       $chain$16$?checkHullPolygons@ConvexHullBuilder@physx@@QEBA_NXZ 000000018005408c     ConvexHullBuilder.obj
 0002:0000e0d8       $chain$17$?checkHullPolygons@ConvexHullBuilder@physx@@QEBA_NXZ 00000001800540d8     ConvexHullBuilder.obj
 0002:0000e0e8       $unwind$?calculateVertexMapTable@ConvexHullBuilder@physx@@QEAA_NI_N@Z 00000001800540e8     ConvexHullBuilder.obj
 0002:0000e100       $chain$0$?calculateVertexMapTable@ConvexHullBuilder@physx@@QEAA_NI_N@Z 0000000180054100     ConvexHullBuilder.obj
 0002:0000e114       $chain$1$?calculateVertexMapTable@ConvexHullBuilder@physx@@QEAA_NI_N@Z 0000000180054114     ConvexHullBuilder.obj
 0002:0000e124       $unwind$?computeGeomCenter@ConvexHullBuilder@physx@@IEBA_NAEAVPxVec3@2@IPEAUHullTriangleData@2@@Z 0000000180054124     ConvexHullBuilder.obj
 0002:0000e12c       $chain$1$?computeGeomCenter@ConvexHullBuilder@physx@@IEBA_NAEAVPxVec3@2@IPEAUHullTriangleData@2@@Z 000000018005412c     ConvexHullBuilder.obj
 0002:0000e144       $chain$10$?computeGeomCenter@ConvexHullBuilder@physx@@IEBA_NAEAVPxVec3@2@IPEAUHullTriangleData@2@@Z 0000000180054144     ConvexHullBuilder.obj
 0002:0000e178       $chain$11$?computeGeomCenter@ConvexHullBuilder@physx@@IEBA_NAEAVPxVec3@2@IPEAUHullTriangleData@2@@Z 0000000180054178     ConvexHullBuilder.obj
 0002:0000e188       $chain$12$?computeGeomCenter@ConvexHullBuilder@physx@@IEBA_NAEAVPxVec3@2@IPEAUHullTriangleData@2@@Z 0000000180054188     ConvexHullBuilder.obj
 0002:0000e198       $chain$0$??$?_UE@@YAPEAX_KV?$ReflectionAllocator@E@shdfnd@physx@@PEBDH@Z 0000000180054198     ConvexHullBuilder.obj
 0002:0000e1ac       $chain$1$??$?_UE@@YAPEAX_KV?$ReflectionAllocator@E@shdfnd@physx@@PEBDH@Z 00000001800541ac     ConvexHullBuilder.obj
 0002:0000e1bc       $unwind$?cleanupVertices@ConvexHullLib@physx@@IEAA_NIPEBVPxVec3@2@IAEAIPEAV32@AEAV32@3@Z 00000001800541bc     ConvexHullLib.obj
 0002:0000e1e4       $chain$7$?cleanupVertices@ConvexHullLib@physx@@IEAA_NIPEBVPxVec3@2@IAEAIPEAV32@AEAV32@3@Z 00000001800541e4     ConvexHullLib.obj
 0002:0000e1fc       $chain$13$?cleanupVertices@ConvexHullLib@physx@@IEAA_NIPEBVPxVec3@2@IAEAIPEAV32@AEAV32@3@Z 00000001800541fc     ConvexHullLib.obj
 0002:0000e224       $chain$14$?cleanupVertices@ConvexHullLib@physx@@IEAA_NIPEBVPxVec3@2@IAEAIPEAV32@AEAV32@3@Z 0000000180054224     ConvexHullLib.obj
 0002:0000e234       $chain$15$?cleanupVertices@ConvexHullLib@physx@@IEAA_NIPEBVPxVec3@2@IAEAIPEAV32@AEAV32@3@Z 0000000180054234     ConvexHullLib.obj
 0002:0000e244       $unwind$?shiftAndcleanupVertices@ConvexHullLib@physx@@IEAA_NIPEBVPxVec3@2@IAEAIPEAV32@AEAV32@3@Z 0000000180054244     ConvexHullLib.obj
 0002:0000e254       $chain$6$?shiftAndcleanupVertices@ConvexHullLib@physx@@IEAA_NIPEBVPxVec3@2@IAEAIPEAV32@AEAV32@3@Z 0000000180054254     ConvexHullLib.obj
 0002:0000e280       $chain$7$?shiftAndcleanupVertices@ConvexHullLib@physx@@IEAA_NIPEBVPxVec3@2@IAEAIPEAV32@AEAV32@3@Z 0000000180054280     ConvexHullLib.obj
 0002:0000e2a4       $chain$12$?shiftAndcleanupVertices@ConvexHullLib@physx@@IEAA_NIPEBVPxVec3@2@IAEAIPEAV32@AEAV32@3@Z 00000001800542a4     ConvexHullLib.obj
 0002:0000e2c8       $chain$13$?shiftAndcleanupVertices@ConvexHullLib@physx@@IEAA_NIPEBVPxVec3@2@IAEAIPEAV32@AEAV32@3@Z 00000001800542c8     ConvexHullLib.obj
 0002:0000e2d8       $chain$14$?shiftAndcleanupVertices@ConvexHullLib@physx@@IEAA_NIPEBVPxVec3@2@IAEAIPEAV32@AEAV32@3@Z 00000001800542d8     ConvexHullLib.obj
 0002:0000e2e8       $unwind$?swapLargestFace@ConvexHullLib@physx@@IEAAXAEAVPxConvexMeshDesc@2@@Z 00000001800542e8     ConvexHullLib.obj
 0002:0000e2f8       $chain$1$?swapLargestFace@ConvexHullLib@physx@@IEAAXAEAVPxConvexMeshDesc@2@@Z 00000001800542f8     ConvexHullLib.obj
 0002:0000e310       $chain$2$?swapLargestFace@ConvexHullLib@physx@@IEAAXAEAVPxConvexMeshDesc@2@@Z 0000000180054310     ConvexHullLib.obj
 0002:0000e324       $chain$3$?swapLargestFace@ConvexHullLib@physx@@IEAAXAEAVPxConvexMeshDesc@2@@Z 0000000180054324     ConvexHullLib.obj
 0002:0000e334       $chain$4$?swapLargestFace@ConvexHullLib@physx@@IEAAXAEAVPxConvexMeshDesc@2@@Z 0000000180054334     ConvexHullLib.obj
 0002:0000e344       $unwind$?checkPointsAABBValidity@local@@YA_NIPEBVPxVec3@physx@@IMMAEAV23@1AEAIPEAV23@_N@Z 0000000180054344     ConvexHullLib.obj
 0002:0000e360       $chain$1$?checkPointsAABBValidity@local@@YA_NIPEBVPxVec3@physx@@IMMAEAV23@1AEAIPEAV23@_N@Z 0000000180054360     ConvexHullLib.obj
 0002:0000e378       $chain$4$?checkPointsAABBValidity@local@@YA_NIPEBVPxVec3@physx@@IMMAEAV23@1AEAIPEAV23@_N@Z 0000000180054378     ConvexHullLib.obj
 0002:0000e394       $chain$5$?checkPointsAABBValidity@local@@YA_NIPEBVPxVec3@physx@@IMMAEAV23@1AEAIPEAV23@_N@Z 0000000180054394     ConvexHullLib.obj
 0002:0000e3a4       $chain$6$?checkPointsAABBValidity@local@@YA_NIPEBVPxVec3@physx@@IMMAEAV23@1AEAIPEAV23@_N@Z 00000001800543a4     ConvexHullLib.obj
 0002:0000e3b4       $unwind$??0PxQuat@physx@@QEAA@AEBVPxMat33@1@@Z 00000001800543b4     ConvexHullUtils.obj
 0002:0000e3bc       $chain$0$??0PxQuat@physx@@QEAA@AEBVPxMat33@1@@Z 00000001800543bc     ConvexHullUtils.obj
 0002:0000e3d0       $chain$1$??0PxQuat@physx@@QEAA@AEBVPxMat33@1@@Z 00000001800543d0     ConvexHullUtils.obj
 0002:0000e3e0       $unwind$?getInverse@PxMat33@physx@@QEBA?BV12@XZ 00000001800543e0     ConvexHullUtils.obj
 0002:0000e400       $chain$1$?getInverse@PxMat33@physx@@QEBA?BV12@XZ 0000000180054400     ConvexHullUtils.obj
 0002:0000e418       $chain$2$?getInverse@PxMat33@physx@@QEBA?BV12@XZ 0000000180054418     ConvexHullUtils.obj
 0002:0000e428       $unwind$??0ConvexHull@physx@@QEAA@AEBVPxVec3@1@AEBVPxTransform@1@AEBV?$Array@VPxPlane@physx@@V?$ReflectionAllocator@VPxPlane@physx@@@shdfnd@2@@shdfnd@1@@Z 0000000180054428     ConvexHullUtils.obj
 0002:0000e460       $unwind$?findCandidatePlane@ConvexHull@physx@@QEBAHMM@Z 0000000180054460     ConvexHullUtils.obj
 0002:0000e484       $chain$8$?findCandidatePlane@ConvexHull@physx@@QEBAHMM@Z 0000000180054484     ConvexHullUtils.obj
 0002:0000e4b8       $chain$9$?findCandidatePlane@ConvexHull@physx@@QEBAHMM@Z 00000001800544b8     ConvexHullUtils.obj
 0002:0000e4c8       $unwind$?assertIntact@ConvexHull@physx@@QEBA_NM@Z 00000001800544c8     ConvexHullUtils.obj
 0002:0000e50c       $unwind$?maxNumVertsPerFace@ConvexHull@physx@@QEBAIXZ 000000018005450c     ConvexHullUtils.obj
 0002:0000e518       $chain$0$?maxNumVertsPerFace@ConvexHull@physx@@QEBAIXZ 0000000180054518     ConvexHullUtils.obj
 0002:0000e52c       $chain$1$?maxNumVertsPerFace@ConvexHull@physx@@QEBAIXZ 000000018005452c     ConvexHullUtils.obj
 0002:0000e53c       $chain$1$?allocate@?$Array@VHalfEdge@ConvexHull@physx@@V?$ReflectionAllocator@VHalfEdge@ConvexHull@physx@@@shdfnd@3@@shdfnd@physx@@IEAAPEAVHalfEdge@ConvexHull@3@I@Z 000000018005453c     ConvexHullUtils.obj
 0002:0000e554       $chain$3$?allocate@?$Array@VHalfEdge@ConvexHull@physx@@V?$ReflectionAllocator@VHalfEdge@ConvexHull@physx@@@shdfnd@3@@shdfnd@physx@@IEAAPEAVHalfEdge@ConvexHull@3@I@Z 0000000180054554     ConvexHullUtils.obj
 0002:0000e568       $chain$4$?allocate@?$Array@VHalfEdge@ConvexHull@physx@@V?$ReflectionAllocator@VHalfEdge@ConvexHull@physx@@@shdfnd@3@@shdfnd@physx@@IEAAPEAVHalfEdge@ConvexHull@3@I@Z 0000000180054568     ConvexHullUtils.obj
 0002:0000e578       $chain$0$?recreate@?$Array@VHalfEdge@ConvexHull@physx@@V?$ReflectionAllocator@VHalfEdge@ConvexHull@physx@@@shdfnd@3@@shdfnd@physx@@IEAAXI@Z 0000000180054578     ConvexHullUtils.obj
 0002:0000e58c       $chain$1$?recreate@?$Array@VHalfEdge@ConvexHull@physx@@V?$ReflectionAllocator@VHalfEdge@ConvexHull@physx@@@shdfnd@3@@shdfnd@physx@@IEAAXI@Z 000000018005458c     ConvexHullUtils.obj
 0002:0000e59c       $chain$1$?allocate@?$Array@VPxPlane@physx@@V?$ReflectionAllocator@VPxPlane@physx@@@shdfnd@2@@shdfnd@physx@@IEAAPEAVPxPlane@3@I@Z 000000018005459c     ConvexHullUtils.obj
 0002:0000e5b4       $chain$3$?allocate@?$Array@VPxPlane@physx@@V?$ReflectionAllocator@VPxPlane@physx@@@shdfnd@2@@shdfnd@physx@@IEAAPEAVPxPlane@3@I@Z 00000001800545b4     ConvexHullUtils.obj
 0002:0000e5c8       $chain$4$?allocate@?$Array@VPxPlane@physx@@V?$ReflectionAllocator@VPxPlane@physx@@@shdfnd@2@@shdfnd@physx@@IEAAPEAVPxPlane@3@I@Z 00000001800545c8     ConvexHullUtils.obj
 0002:0000e5d8       $chain$0$?recreate@?$Array@VPxPlane@physx@@V?$ReflectionAllocator@VPxPlane@physx@@@shdfnd@2@@shdfnd@physx@@IEAAXI@Z 00000001800545d8     ConvexHullUtils.obj
 0002:0000e5ec       $chain$1$?recreate@?$Array@VPxPlane@physx@@V?$ReflectionAllocator@VPxPlane@physx@@@shdfnd@2@@shdfnd@physx@@IEAAXI@Z 00000001800545ec     ConvexHullUtils.obj
 0002:0000e5fc       $unwind$?convexHullCrop@physx@@YAPEAVConvexHull@1@AEBV21@AEBVPxPlane@1@M@Z 00000001800545fc     ConvexHullUtils.obj
 0002:0000e60c       $chain$5$?convexHullCrop@physx@@YAPEAVConvexHull@1@AEBV21@AEBVPxPlane@1@M@Z 000000018005460c     ConvexHullUtils.obj
 0002:0000e634       $chain$6$?convexHullCrop@physx@@YAPEAVConvexHull@1@AEBV21@AEBVPxPlane@1@M@Z 0000000180054634     ConvexHullUtils.obj
 0002:0000e648       $chain$7$?convexHullCrop@physx@@YAPEAVConvexHull@1@AEBV21@AEBVPxPlane@1@M@Z 0000000180054648     ConvexHullUtils.obj
 0002:0000e648       $chain$9$?convexHullCrop@physx@@YAPEAVConvexHull@1@AEBV21@AEBVPxPlane@1@M@Z 0000000180054648     ConvexHullUtils.obj
 0002:0000e658       $chain$8$?convexHullCrop@physx@@YAPEAVConvexHull@1@AEBV21@AEBVPxPlane@1@M@Z 0000000180054658     ConvexHullUtils.obj
 0002:0000e66c       $chain$10$?convexHullCrop@physx@@YAPEAVConvexHull@1@AEBV21@AEBVPxPlane@1@M@Z 000000018005466c     ConvexHullUtils.obj
 0002:0000e67c       $unwind$?computeOBBFromConvex@physx@@YA_NAEBVPxConvexMeshDesc@1@AEAVPxVec3@1@AEAVPxTransform@1@@Z 000000018005467c     ConvexHullUtils.obj
 0002:0000e6a0       $chain$4$?computeOBBFromConvex@physx@@YA_NAEBVPxConvexMeshDesc@1@AEAVPxVec3@1@AEAVPxTransform@1@@Z 00000001800546a0     ConvexHullUtils.obj
 0002:0000e6c4       $chain$5$?computeOBBFromConvex@physx@@YA_NAEBVPxConvexMeshDesc@1@AEAVPxVec3@1@AEAVPxTransform@1@@Z 00000001800546c4     ConvexHullUtils.obj
 0002:0000e6d4       $unwind$?rotate@Box@Gu@physx@@QEBA?AVPxVec3@3@AEBV43@@Z 00000001800546d4     ConvexHullUtils.obj
 0002:0000e6e0       $unwind$?rotateInv@Box@Gu@physx@@QEBA?AVPxVec3@3@AEBV43@@Z 00000001800546e0     ConvexHullUtils.obj
 0002:0000e6e0       $unwind$?transform@Box@Gu@physx@@QEBA?AVPxVec3@3@AEBV43@@Z 00000001800546e0     ConvexHullUtils.obj
 0002:0000e6ec       $unwind$?computeAABBExtent@Box@Gu@physx@@QEBA?AVPxVec3@3@XZ 00000001800546ec     ConvexHullUtils.obj
 0002:0000e6f8       $unwind$?computeOBBSIMD@local@@YAXIPEBT__m128@@AEAT2@AEBT2@1@Z 00000001800546f8     ConvexHullUtils.obj
 0002:0000e71c       $chain$1$?computeOBBSIMD@local@@YAXIPEBT__m128@@AEAT2@AEBT2@1@Z 000000018005471c     ConvexHullUtils.obj
 0002:0000e734       $chain$2$?computeOBBSIMD@local@@YAXIPEBT__m128@@AEAT2@AEBT2@1@Z 0000000180054734     ConvexHullUtils.obj
 0002:0000e744       $unwind$?build@ConvexMeshBuilder@physx@@QEAA_NAEBVPxConvexMeshDesc@2@I_NPEAVConvexHullLib@2@@Z 0000000180054744     ConvexMeshBuilder.obj
 0002:0000e754       $chain$0$?build@ConvexMeshBuilder@physx@@QEAA_NAEBVPxConvexMeshDesc@2@I_NPEAVConvexHullLib@2@@Z 0000000180054754     ConvexMeshBuilder.obj
 0002:0000e768       $chain$2$?build@ConvexMeshBuilder@physx@@QEAA_NAEBVPxConvexMeshDesc@2@I_NPEAVConvexHullLib@2@@Z 0000000180054768     ConvexMeshBuilder.obj
 0002:0000e780       $chain$3$?build@ConvexMeshBuilder@physx@@QEAA_NAEBVPxConvexMeshDesc@2@I_NPEAVConvexHullLib@2@@Z 0000000180054780     ConvexMeshBuilder.obj
 0002:0000e790       $chain$4$?build@ConvexMeshBuilder@physx@@QEAA_NAEBVPxConvexMeshDesc@2@I_NPEAVConvexHullLib@2@@Z 0000000180054790     ConvexMeshBuilder.obj
 0002:0000e7a0       $unwind$?save@ConvexMeshBuilder@physx@@QEBA_NAEAVPxOutputStream@2@_N@Z 00000001800547a0     ConvexMeshBuilder.obj
 0002:0000e7b0       $chain$0$?save@ConvexMeshBuilder@physx@@QEBA_NAEAVPxOutputStream@2@_N@Z 00000001800547b0     ConvexMeshBuilder.obj
 0002:0000e7c4       $chain$1$?save@ConvexMeshBuilder@physx@@QEBA_NAEAVPxOutputStream@2@_N@Z 00000001800547c4     ConvexMeshBuilder.obj
 0002:0000e7d4       $unwind$?loadConvexHull@ConvexMeshBuilder@physx@@QEAA_NAEBVPxConvexMeshDesc@2@PEAVConvexHullLib@2@@Z 00000001800547d4     ConvexMeshBuilder.obj
 0002:0000e7f4       $unwind$?computeHullPolygons@ConvexMeshBuilder@physx@@QEAA_NAEBIPEBVPxVec3@2@0PEBIAEAVPxAllocatorCallback@2@AEAIAEAPEAV32@4AEAPEAI4AEAPEAUPxHullPolygon@2@@Z 00000001800547f4     ConvexMeshBuilder.obj
 0002:0000e800       $chain$4$?computeHullPolygons@ConvexMeshBuilder@physx@@QEAA_NAEBIPEBVPxVec3@2@0PEBIAEAVPxAllocatorCallback@2@AEAIAEAPEAV32@4AEAPEAI4AEAPEAUPxHullPolygon@2@@Z 0000000180054800     ConvexMeshBuilder.obj
 0002:0000e820       $chain$5$?computeHullPolygons@ConvexMeshBuilder@physx@@QEAA_NAEBIPEBVPxVec3@2@0PEBIAEAVPxAllocatorCallback@2@AEAIAEAPEAV32@4AEAPEAI4AEAPEAUPxHullPolygon@2@@Z 0000000180054820     ConvexMeshBuilder.obj
 0002:0000e838       $unwind$?computeMassInfo@ConvexMeshBuilder@physx@@QEAAX_N@Z 0000000180054838     ConvexMeshBuilder.obj
 0002:0000e848       $chain$0$?computeMassInfo@ConvexMeshBuilder@physx@@QEAAX_N@Z 0000000180054848     ConvexMeshBuilder.obj
 0002:0000e85c       $chain$1$?computeMassInfo@ConvexMeshBuilder@physx@@QEAAX_N@Z 000000018005485c     ConvexMeshBuilder.obj
 0002:0000e870       $chain$5$?computeMassInfo@ConvexMeshBuilder@physx@@QEAAX_N@Z 0000000180054870     ConvexMeshBuilder.obj
 0002:0000e890       $chain$6$?computeMassInfo@ConvexMeshBuilder@physx@@QEAAX_N@Z 0000000180054890     ConvexMeshBuilder.obj
 0002:0000e8a0       $chain$7$?computeMassInfo@ConvexMeshBuilder@physx@@QEAAX_N@Z 00000001800548a0     ConvexMeshBuilder.obj
 0002:0000e8b0       $chain$8$?computeMassInfo@ConvexMeshBuilder@physx@@QEAAX_N@Z 00000001800548b0     ConvexMeshBuilder.obj
 0002:0000e8c0       $unwind$?ComputeInternalExtent@@YAXAEAUConvexHullData@Gu@physx@@PEBUHullPolygonData@23@@Z 00000001800548c0     ConvexMeshBuilder.obj
 0002:0000e8e8       $chain$0$?ComputeInternalExtent@@YAXAEAUConvexHullData@Gu@physx@@PEBUHullPolygonData@23@@Z 00000001800548e8     ConvexMeshBuilder.obj
 0002:0000e8fc       $chain$1$?ComputeInternalExtent@@YAXAEAUConvexHullData@Gu@physx@@PEBUHullPolygonData@23@@Z 00000001800548fc     ConvexMeshBuilder.obj
 0002:0000e90c       $unwind$?computeHullPolygons@ConvexPolygonsBuilder@physx@@QEAA_NAEBIPEBVPxVec3@2@0PEBI@Z 000000018005490c     ConvexPolygonsBuilder.obj
 0002:0000e930       $chain$0$?computeHullPolygons@ConvexPolygonsBuilder@physx@@QEAA_NAEBIPEBVPxVec3@2@0PEBI@Z 0000000180054930     ConvexPolygonsBuilder.obj
 0002:0000e944       $chain$8$?computeHullPolygons@ConvexPolygonsBuilder@physx@@QEAA_NAEBIPEBVPxVec3@2@0PEBI@Z 0000000180054944     ConvexPolygonsBuilder.obj
 0002:0000e974       $chain$9$?computeHullPolygons@ConvexPolygonsBuilder@physx@@QEAA_NAEBIPEBVPxVec3@2@0PEBI@Z 0000000180054974     ConvexPolygonsBuilder.obj
 0002:0000e9a4       $unwind$?createPolygonData@ConvexPolygonsBuilder@physx@@AEAA_NXZ 00000001800549a4     ConvexPolygonsBuilder.obj
 0002:0000e9b4       $chain$6$?createPolygonData@ConvexPolygonsBuilder@physx@@AEAA_NXZ 00000001800549b4     ConvexPolygonsBuilder.obj
 0002:0000e9e0       $chain$7$?createPolygonData@ConvexPolygonsBuilder@physx@@AEAA_NXZ 00000001800549e0     ConvexPolygonsBuilder.obj
 0002:0000e9f4       $chain$8$?createPolygonData@ConvexPolygonsBuilder@physx@@AEAA_NXZ 00000001800549f4     ConvexPolygonsBuilder.obj
 0002:0000ea04       $chain$9$?createPolygonData@ConvexPolygonsBuilder@physx@@AEAA_NXZ 0000000180054a04     ConvexPolygonsBuilder.obj
 0002:0000ea30       $chain$17$?createPolygonData@ConvexPolygonsBuilder@physx@@AEAA_NXZ 0000000180054a30     ConvexPolygonsBuilder.obj
 0002:0000ea60       $chain$18$?createPolygonData@ConvexPolygonsBuilder@physx@@AEAA_NXZ 0000000180054a60     ConvexPolygonsBuilder.obj
 0002:0000ea70       $unwind$?createTrianglesFromPolygons@ConvexPolygonsBuilder@physx@@AEAA_NXZ 0000000180054a70     ConvexPolygonsBuilder.obj
 0002:0000ea94       $chain$3$?createTrianglesFromPolygons@ConvexPolygonsBuilder@physx@@AEAA_NXZ 0000000180054a94     ConvexPolygonsBuilder.obj
 0002:0000eab4       $chain$4$?createTrianglesFromPolygons@ConvexPolygonsBuilder@physx@@AEAA_NXZ 0000000180054ab4     ConvexPolygonsBuilder.obj
 0002:0000eac4       $unwind$?findLineStrip@@YA_NAEAV?$Array@IV?$ReflectionAllocator@I@shdfnd@physx@@@shdfnd@physx@@AEBV?$Array@VPair@@V?$ReflectionAllocator@VPair@@@shdfnd@physx@@@23@@Z 0000000180054ac4     ConvexPolygonsBuilder.obj
 0002:0000ead0       $chain$3$?findLineStrip@@YA_NAEAV?$Array@IV?$ReflectionAllocator@I@shdfnd@physx@@@shdfnd@physx@@AEBV?$Array@VPair@@V?$ReflectionAllocator@VPair@@@shdfnd@physx@@@23@@Z 0000000180054ad0     ConvexPolygonsBuilder.obj
 0002:0000eaf0       $chain$5$?findLineStrip@@YA_NAEAV?$Array@IV?$ReflectionAllocator@I@shdfnd@physx@@@shdfnd@physx@@AEBV?$Array@VPair@@V?$ReflectionAllocator@VPair@@@shdfnd@physx@@@23@@Z 0000000180054af0     ConvexPolygonsBuilder.obj
 0002:0000eb08       $chain$6$?findLineStrip@@YA_NAEAV?$Array@IV?$ReflectionAllocator@I@shdfnd@physx@@@shdfnd@physx@@AEBV?$Array@VPair@@V?$ReflectionAllocator@VPair@@@shdfnd@physx@@@23@@Z 0000000180054b08     ConvexPolygonsBuilder.obj
 0002:0000eb18       $chain$7$?findLineStrip@@YA_NAEAV?$Array@IV?$ReflectionAllocator@I@shdfnd@physx@@@shdfnd@physx@@AEBV?$Array@VPair@@V?$ReflectionAllocator@VPair@@@shdfnd@physx@@@23@@Z 0000000180054b18     ConvexPolygonsBuilder.obj
 0002:0000eb40       $chain$1$?allocate@?$Array@VPair@@V?$ReflectionAllocator@VPair@@@shdfnd@physx@@@shdfnd@physx@@IEAAPEAVPair@@I@Z 0000000180054b40     ConvexPolygonsBuilder.obj
 0002:0000eb58       $chain$3$?allocate@?$Array@VPair@@V?$ReflectionAllocator@VPair@@@shdfnd@physx@@@shdfnd@physx@@IEAAPEAVPair@@I@Z 0000000180054b58     ConvexPolygonsBuilder.obj
 0002:0000eb6c       $chain$4$?allocate@?$Array@VPair@@V?$ReflectionAllocator@VPair@@@shdfnd@physx@@@shdfnd@physx@@IEAAPEAVPair@@I@Z 0000000180054b6c     ConvexPolygonsBuilder.obj
 0002:0000eb7c       $unwind$?TestDuplicateTriangles@@YA_NAEAIPEAU?$TriangleT@I@Gu@physx@@_N@Z 0000000180054b7c     ConvexPolygonsBuilder.obj
 0002:0000eb98       $unwind$?checkRedundantVertices@@YAXAEAIAEAV?$Array@IV?$ReflectionAllocator@I@shdfnd@physx@@@shdfnd@physx@@AEBVConvexPolygonsBuilder@3@11@Z 0000000180054b98     ConvexPolygonsBuilder.obj
 0002:0000ebb4       $unwind$?extractHullPolygons@@YA_NAEAIAEAV?$Array@IV?$ReflectionAllocator@I@shdfnd@physx@@@shdfnd@physx@@AEBVConvexPolygonsBuilder@3@PEAV123@1@Z 0000000180054bb4     ConvexPolygonsBuilder.obj
 0002:0000ebd0       $unwind$?FloodFill@Local@?7??extractHullPolygons@@YA_NAEAIAEAV?$Array@IV?$ReflectionAllocator@I@shdfnd@physx@@@shdfnd@physx@@AEBVConvexPolygonsBuilder@5@PEAV345@1@Z@SAX1PEBVAdjTriangle@5@IPEA_N@Z 0000000180054bd0     ConvexPolygonsBuilder.obj
 0002:0000ebe0       $chain$0$?FloodFill@Local@?7??extractHullPolygons@@YA_NAEAIAEAV?$Array@IV?$ReflectionAllocator@I@shdfnd@physx@@@shdfnd@physx@@AEBVConvexPolygonsBuilder@5@PEAV345@1@Z@SAX1PEBVAdjTriangle@5@IPEA_N@Z 0000000180054be0     ConvexPolygonsBuilder.obj
 0002:0000ebf4       $chain$1$?FloodFill@Local@?7??extractHullPolygons@@YA_NAEAIAEAV?$Array@IV?$ReflectionAllocator@I@shdfnd@physx@@@shdfnd@physx@@AEBVConvexPolygonsBuilder@5@PEAV345@1@Z@SAX1PEBVAdjTriangle@5@IPEA_N@Z 0000000180054bf4     ConvexPolygonsBuilder.obj
 0002:0000ec04       $unwind$?CheckFloodFillFace@Local@?7??extractHullPolygons@@YA_NAEAIAEAV?$Array@IV?$ReflectionAllocator@I@shdfnd@physx@@@shdfnd@physx@@AEBVConvexPolygonsBuilder@5@PEAV345@1@Z@SA_NIPEBVAdjTriangle@5@PEBI@Z 0000000180054c04     ConvexPolygonsBuilder.obj
 0002:0000ec1c       $unwind$?createConvexHull@QuickHullConvexHullLib@physx@@UEAA?AW4Enum@PxConvexMeshCookingResult@2@XZ 0000000180054c1c     QuickHullConvexHullLib.obj
 0002:0000ec34       $unwind$?createEdgeList@QuickHullConvexHullLib@physx@@UEAA_NIPEBEPEAPEAEPEAPEAG2@Z 0000000180054c34     QuickHullConvexHullLib.obj
 0002:0000ec54       $chain$5$?createEdgeList@QuickHullConvexHullLib@physx@@UEAA_NIPEBEPEAPEAEPEAPEAG2@Z 0000000180054c54     QuickHullConvexHullLib.obj
 0002:0000ec68       $chain$6$?createEdgeList@QuickHullConvexHullLib@physx@@UEAA_NIPEBEPEAPEAEPEAPEAG2@Z 0000000180054c68     QuickHullConvexHullLib.obj
 0002:0000ec78       $unwind$?expandHullOBB@QuickHullConvexHullLib@physx@@IEAA?AW4Enum@PxConvexMeshCookingResult@2@XZ 0000000180054c78     QuickHullConvexHullLib.obj
 0002:0000ec84       $chain$4$?expandHullOBB@QuickHullConvexHullLib@physx@@IEAA?AW4Enum@PxConvexMeshCookingResult@2@XZ 0000000180054c84     QuickHullConvexHullLib.obj
 0002:0000eca8       $chain$5$?expandHullOBB@QuickHullConvexHullLib@physx@@IEAA?AW4Enum@PxConvexMeshCookingResult@2@XZ 0000000180054ca8     QuickHullConvexHullLib.obj
 0002:0000ecbc       $chain$6$?expandHullOBB@QuickHullConvexHullLib@physx@@IEAA?AW4Enum@PxConvexMeshCookingResult@2@XZ 0000000180054cbc     QuickHullConvexHullLib.obj
 0002:0000eccc       $chain$7$?expandHullOBB@QuickHullConvexHullLib@physx@@IEAA?AW4Enum@PxConvexMeshCookingResult@2@XZ 0000000180054ccc     QuickHullConvexHullLib.obj
 0002:0000ecdc       $unwind$?expandHull@QuickHullConvexHullLib@physx@@IEAA?AW4Enum@PxConvexMeshCookingResult@2@XZ 0000000180054cdc     QuickHullConvexHullLib.obj
 0002:0000ed00       $unwind$?cleanupForSimplex@QuickHullConvexHullLib@physx@@IEAA_NPEAVPxVec3@2@IPEAUQuickHullVertex@local@@1AEAM2@Z 0000000180054d00     QuickHullConvexHullLib.obj
 0002:0000ed24       $chain$4$?cleanupForSimplex@QuickHullConvexHullLib@physx@@IEAA_NPEAVPxVec3@2@IPEAUQuickHullVertex@local@@1AEAM2@Z 0000000180054d24     QuickHullConvexHullLib.obj
 0002:0000ed48       $chain$6$?cleanupForSimplex@QuickHullConvexHullLib@physx@@IEAA_NPEAVPxVec3@2@IPEAUQuickHullVertex@local@@1AEAM2@Z 0000000180054d48     QuickHullConvexHullLib.obj
 0002:0000ed60       $chain$7$?cleanupForSimplex@QuickHullConvexHullLib@physx@@IEAA_NPEAVPxVec3@2@IPEAUQuickHullVertex@local@@1AEAM2@Z 0000000180054d60     QuickHullConvexHullLib.obj
 0002:0000ed74       $chain$8$?cleanupForSimplex@QuickHullConvexHullLib@physx@@IEAA_NPEAVPxVec3@2@IPEAUQuickHullVertex@local@@1AEAM2@Z 0000000180054d74     QuickHullConvexHullLib.obj
 0002:0000ed88       $chain$9$?cleanupForSimplex@QuickHullConvexHullLib@physx@@IEAA_NPEAVPxVec3@2@IPEAUQuickHullVertex@local@@1AEAM2@Z 0000000180054d88     QuickHullConvexHullLib.obj
 0002:0000ed98       $chain$10$?cleanupForSimplex@QuickHullConvexHullLib@physx@@IEAA_NPEAVPxVec3@2@IPEAUQuickHullVertex@local@@1AEAM2@Z 0000000180054d98     QuickHullConvexHullLib.obj
 0002:0000eda8       $chain$11$?cleanupForSimplex@QuickHullConvexHullLib@physx@@IEAA_NPEAVPxVec3@2@IPEAUQuickHullVertex@local@@1AEAM2@Z 0000000180054da8     QuickHullConvexHullLib.obj
 0002:0000edb8       $chain$12$?cleanupForSimplex@QuickHullConvexHullLib@physx@@IEAA_NPEAVPxVec3@2@IPEAUQuickHullVertex@local@@1AEAM2@Z 0000000180054db8     QuickHullConvexHullLib.obj
 0002:0000edc8       $unwind$?fillConvexMeshDescFromQuickHull@QuickHullConvexHullLib@physx@@IEAAXAEAVPxConvexMeshDesc@2@@Z 0000000180054dc8     QuickHullConvexHullLib.obj
 0002:0000ede0       $unwind$?fillConvexMeshDescFromCroppedHull@QuickHullConvexHullLib@physx@@IEAAXAEAVPxConvexMeshDesc@2@@Z 0000000180054de0     QuickHullConvexHullLib.obj
 0002:0000edf8       $chain$0$??_GConvexHull@physx@@QEAAPEAXI@Z 0000000180054df8     QuickHullConvexHullLib.obj
 0002:0000ee0c       $chain$1$??_GConvexHull@physx@@QEAAPEAXI@Z 0000000180054e0c     QuickHullConvexHullLib.obj
 0002:0000ee1c       $unwind$?mergeAdjacentFace@QuickHullFace@local@@QEAA_NPEAUQuickHullHalfEdge@2@AEAV?$Array@PEAUQuickHullFace@local@@V?$ReflectionAllocator@PEAUQuickHullFace@local@@@shdfnd@physx@@@shdfnd@physx@@@Z 0000000180054e1c     QuickHullConvexHullLib.obj
 0002:0000ee34       $chain$4$?mergeAdjacentFace@QuickHullFace@local@@QEAA_NPEAUQuickHullHalfEdge@2@AEAV?$Array@PEAUQuickHullFace@local@@V?$ReflectionAllocator@PEAUQuickHullFace@local@@@shdfnd@physx@@@shdfnd@physx@@@Z 0000000180054e34     QuickHullConvexHullLib.obj
 0002:0000ee58       $chain$5$?mergeAdjacentFace@QuickHullFace@local@@QEAA_NPEAUQuickHullHalfEdge@2@AEAV?$Array@PEAUQuickHullFace@local@@V?$ReflectionAllocator@PEAUQuickHullFace@local@@@shdfnd@physx@@@shdfnd@physx@@@Z 0000000180054e58     QuickHullConvexHullLib.obj
 0002:0000ee58       $chain$8$?mergeAdjacentFace@QuickHullFace@local@@QEAA_NPEAUQuickHullHalfEdge@2@AEAV?$Array@PEAUQuickHullFace@local@@V?$ReflectionAllocator@PEAUQuickHullFace@local@@@shdfnd@physx@@@shdfnd@physx@@@Z 0000000180054e58     QuickHullConvexHullLib.obj
 0002:0000ee68       $chain$6$?mergeAdjacentFace@QuickHullFace@local@@QEAA_NPEAUQuickHullHalfEdge@2@AEAV?$Array@PEAUQuickHullFace@local@@V?$ReflectionAllocator@PEAUQuickHullFace@local@@@shdfnd@physx@@@shdfnd@physx@@@Z 0000000180054e68     QuickHullConvexHullLib.obj
 0002:0000ee8c       $chain$7$?mergeAdjacentFace@QuickHullFace@local@@QEAA_NPEAUQuickHullHalfEdge@2@AEAV?$Array@PEAUQuickHullFace@local@@V?$ReflectionAllocator@PEAUQuickHullFace@local@@@shdfnd@physx@@@shdfnd@physx@@@Z 0000000180054e8c     QuickHullConvexHullLib.obj
 0002:0000eea0       $unwind$?connectHalfEdges@QuickHullFace@local@@AEAAPEAU12@PEAUQuickHullHalfEdge@2@0@Z 0000000180054ea0     QuickHullConvexHullLib.obj
 0002:0000eea8       $chain$5$?connectHalfEdges@QuickHullFace@local@@AEAAPEAU12@PEAUQuickHullHalfEdge@2@0@Z 0000000180054ea8     QuickHullConvexHullLib.obj
 0002:0000eed0       $chain$6$?connectHalfEdges@QuickHullFace@local@@AEAAPEAU12@PEAUQuickHullHalfEdge@2@0@Z 0000000180054ed0     QuickHullConvexHullLib.obj
 0002:0000eef4       $chain$7$?connectHalfEdges@QuickHullFace@local@@AEAAPEAU12@PEAUQuickHullHalfEdge@2@0@Z 0000000180054ef4     QuickHullConvexHullLib.obj
 0002:0000ef08       $chain$8$?connectHalfEdges@QuickHullFace@local@@AEAAPEAU12@PEAUQuickHullHalfEdge@2@0@Z 0000000180054f08     QuickHullConvexHullLib.obj
 0002:0000ef18       $unwind$?parseInputVertices@QuickHull@local@@QEAAXPEBVPxVec3@physx@@I@Z 0000000180054f18     QuickHullConvexHullLib.obj
 0002:0000ef24       $chain$1$?parseInputVertices@QuickHull@local@@QEAAXPEBVPxVec3@physx@@I@Z 0000000180054f24     QuickHullConvexHullLib.obj
 0002:0000ef3c       $chain$2$?parseInputVertices@QuickHull@local@@QEAAXPEBVPxVec3@physx@@I@Z 0000000180054f3c     QuickHullConvexHullLib.obj
 0002:0000ef4c       $unwind$?buildHull@QuickHull@local@@QEAA?AW4Enum@QuickHullResult@2@XZ 0000000180054f4c     QuickHullConvexHullLib.obj
 0002:0000ef60       $unwind$?computeMinMaxVerts@QuickHull@local@@IEAAXXZ 0000000180054f60     QuickHullConvexHullLib.obj
 0002:0000ef6c       $unwind$?findSimplex@QuickHull@local@@IEAA_NXZ 0000000180054f6c     QuickHullConvexHullLib.obj
 0002:0000ef80       $chain$8$?findSimplex@QuickHull@local@@IEAA_NXZ 0000000180054f80     QuickHullConvexHullLib.obj
 0002:0000efb4       $chain$12$?findSimplex@QuickHull@local@@IEAA_NXZ 0000000180054fb4     QuickHullConvexHullLib.obj
 0002:0000efd4       $chain$13$?findSimplex@QuickHull@local@@IEAA_NXZ 0000000180054fd4     QuickHullConvexHullLib.obj
 0002:0000efd4       $chain$15$?findSimplex@QuickHull@local@@IEAA_NXZ 0000000180054fd4     QuickHullConvexHullLib.obj
 0002:0000f008       $chain$14$?findSimplex@QuickHull@local@@IEAA_NXZ 0000000180055008     QuickHullConvexHullLib.obj
 0002:0000f04c       $chain$16$?findSimplex@QuickHull@local@@IEAA_NXZ 000000018005504c     QuickHullConvexHullLib.obj
 0002:0000f05c       $unwind$?addSimplex@QuickHull@local@@IEAAXPEAUQuickHullVertex@2@_N@Z 000000018005505c     QuickHullConvexHullLib.obj
 0002:0000f070       $chain$2$?addSimplex@QuickHull@local@@IEAAXPEAUQuickHullVertex@2@_N@Z 0000000180055070     QuickHullConvexHullLib.obj
 0002:0000f08c       $chain$8$?addSimplex@QuickHull@local@@IEAAXPEAUQuickHullVertex@2@_N@Z 000000018005508c     QuickHullConvexHullLib.obj
 0002:0000f0b0       $chain$3$?addSimplex@QuickHull@local@@IEAAXPEAUQuickHullVertex@2@_N@Z 00000001800550b0     QuickHullConvexHullLib.obj
 0002:0000f0c0       $unwind$?nextPointToAdd@QuickHull@local@@IEAAPEAUQuickHullVertex@2@AEAPEAUQuickHullFace@2@@Z 00000001800550c0     QuickHullConvexHullLib.obj
 0002:0000f0d4       $unwind$?addPointToHull@QuickHull@local@@IEAA_NPEBUQuickHullVertex@2@AEAUQuickHullFace@2@AEA_N@Z 00000001800550d4     QuickHullConvexHullLib.obj
 0002:0000f0e8       $chain$1$?addPointToHull@QuickHull@local@@IEAA_NPEBUQuickHullVertex@2@AEAUQuickHullFace@2@AEA_N@Z 00000001800550e8     QuickHullConvexHullLib.obj
 0002:0000f100       $chain$2$?addPointToHull@QuickHull@local@@IEAA_NPEBUQuickHullVertex@2@AEAUQuickHullFace@2@AEA_N@Z 0000000180055100     QuickHullConvexHullLib.obj
 0002:0000f114       $unwind$?createTriangle@QuickHull@local@@IEAAPEAUQuickHullFace@2@AEBUQuickHullVertex@2@00@Z 0000000180055114     QuickHullConvexHullLib.obj
 0002:0000f140       $unwind$?calculateHorizon@QuickHull@local@@IEAAXAEBVPxVec3@physx@@PEAUQuickHullHalfEdge@2@AEAUQuickHullFace@2@AEAV?$Array@PEAUQuickHullHalfEdge@local@@V?$ReflectionAllocator@PEAUQuickHullHalfEdge@local@@@shdfnd@physx@@@shdfnd@4@AEAV?$Array@PEAUQuickHullFace@local@@V?$ReflectionAllocator@PEAUQuickHullFace@local@@@shdfnd@physx@@@84@@Z 0000000180055140     QuickHullConvexHullLib.obj
 0002:0000f158       $chain$1$?doAdjacentMerge@QuickHull@local@@IEAA_NAEAUQuickHullFace@2@_NAEA_N@Z 0000000180055158     QuickHullConvexHullLib.obj
 0002:0000f170       $chain$2$?doAdjacentMerge@QuickHull@local@@IEAA_NAEAUQuickHullFace@2@_NAEA_N@Z 0000000180055170     QuickHullConvexHullLib.obj
 0002:0000f184       $chain$3$?doAdjacentMerge@QuickHull@local@@IEAA_NAEAUQuickHullFace@2@_NAEA_N@Z 0000000180055184     QuickHullConvexHullLib.obj
 0002:0000f198       $chain$4$?doAdjacentMerge@QuickHull@local@@IEAA_NAEAUQuickHullFace@2@_NAEA_N@Z 0000000180055198     QuickHullConvexHullLib.obj
 0002:0000f1a8       $chain$5$?doAdjacentMerge@QuickHull@local@@IEAA_NAEAUQuickHullFace@2@_NAEA_N@Z 00000001800551a8     QuickHullConvexHullLib.obj
 0002:0000f1b8       $unwind$?resolveUnclaimedPoints@QuickHull@local@@IEAAXAEBV?$Array@PEAUQuickHullFace@local@@V?$ReflectionAllocator@PEAUQuickHullFace@local@@@shdfnd@physx@@@shdfnd@physx@@@Z 00000001800551b8     QuickHullConvexHullLib.obj
 0002:0000f1c8       $chain$1$?resolveUnclaimedPoints@QuickHull@local@@IEAAXAEBV?$Array@PEAUQuickHullFace@local@@V?$ReflectionAllocator@PEAUQuickHullFace@local@@@shdfnd@physx@@@shdfnd@physx@@@Z 00000001800551c8     QuickHullConvexHullLib.obj
 0002:0000f1e0       $chain$2$?resolveUnclaimedPoints@QuickHull@local@@IEAAXAEBV?$Array@PEAUQuickHullFace@local@@V?$ReflectionAllocator@PEAUQuickHullFace@local@@@shdfnd@physx@@@shdfnd@physx@@@Z 00000001800551e0     QuickHullConvexHullLib.obj
 0002:0000f1f0       $unwind$?postMergeHull@QuickHull@local@@IEAAXXZ 00000001800551f0     QuickHullConvexHullLib.obj
 0002:0000f1fc       $chain$5$?postMergeHull@QuickHull@local@@IEAAXXZ 00000001800551fc     QuickHullConvexHullLib.obj
 0002:0000f224       $chain$6$?postMergeHull@QuickHull@local@@IEAAXXZ 0000000180055224     QuickHullConvexHullLib.obj
 0002:0000f234       $chain$7$?postMergeHull@QuickHull@local@@IEAAXXZ 0000000180055234     QuickHullConvexHullLib.obj
 0002:0000f25c       $unwind$?canMergeFaces@QuickHull@local@@IEAA_NAEBUQuickHullHalfEdge@2@@Z 000000018005525c     QuickHullConvexHullLib.obj
 0002:0000f2a0       $unwind$?init@?$MemBlock@UQuickHullHalfEdge@local@@$0A@@local@@QEAAXI@Z 00000001800552a0     QuickHullConvexHullLib.obj
 0002:0000f2ac       $unwind$??1?$MemBlock@UQuickHullFace@local@@$00@local@@QEAA@XZ 00000001800552ac     QuickHullConvexHullLib.obj
 0002:0000f2ac       $unwind$??1?$MemBlock@UQuickHullHalfEdge@local@@$0A@@local@@QEAA@XZ 00000001800552ac     QuickHullConvexHullLib.obj
 0002:0000f2b8       $chain$0$??1?$MemBlock@UQuickHullFace@local@@$00@local@@QEAA@XZ 00000001800552b8     QuickHullConvexHullLib.obj
 0002:0000f2b8       $chain$0$??1?$MemBlock@UQuickHullHalfEdge@local@@$0A@@local@@QEAA@XZ 00000001800552b8     QuickHullConvexHullLib.obj
 0002:0000f2cc       $chain$1$??1?$MemBlock@UQuickHullFace@local@@$00@local@@QEAA@XZ 00000001800552cc     QuickHullConvexHullLib.obj
 0002:0000f2cc       $chain$1$??1?$MemBlock@UQuickHullHalfEdge@local@@$0A@@local@@QEAA@XZ 00000001800552cc     QuickHullConvexHullLib.obj
 0002:0000f2dc       $unwind$?getFreeItem@?$MemBlock@UQuickHullHalfEdge@local@@$0A@@local@@QEAAPEAUQuickHullHalfEdge@2@XZ 00000001800552dc     QuickHullConvexHullLib.obj
 0002:0000f2e8       $chain$1$?allocate@?$Array@PEAUQuickHullHalfEdge@local@@V?$ReflectionAllocator@PEAUQuickHullHalfEdge@local@@@shdfnd@physx@@@shdfnd@physx@@IEAAPEAPEAUQuickHullHalfEdge@local@@I@Z 00000001800552e8     QuickHullConvexHullLib.obj
 0002:0000f300       $chain$3$?allocate@?$Array@PEAUQuickHullHalfEdge@local@@V?$ReflectionAllocator@PEAUQuickHullHalfEdge@local@@@shdfnd@physx@@@shdfnd@physx@@IEAAPEAPEAUQuickHullHalfEdge@local@@I@Z 0000000180055300     QuickHullConvexHullLib.obj
 0002:0000f314       $chain$4$?allocate@?$Array@PEAUQuickHullHalfEdge@local@@V?$ReflectionAllocator@PEAUQuickHullHalfEdge@local@@@shdfnd@physx@@@shdfnd@physx@@IEAAPEAPEAUQuickHullHalfEdge@local@@I@Z 0000000180055314     QuickHullConvexHullLib.obj
 0002:0000f324       $chain$0$?recreate@?$Array@PEAUQuickHullHalfEdge@local@@V?$ReflectionAllocator@PEAUQuickHullHalfEdge@local@@@shdfnd@physx@@@shdfnd@physx@@IEAAXI@Z 0000000180055324     QuickHullConvexHullLib.obj
 0002:0000f338       $chain$1$?recreate@?$Array@PEAUQuickHullHalfEdge@local@@V?$ReflectionAllocator@PEAUQuickHullHalfEdge@local@@@shdfnd@physx@@@shdfnd@physx@@IEAAXI@Z 0000000180055338     QuickHullConvexHullLib.obj
 0002:0000f348       $unwind$?init@?$MemBlock@UQuickHullFace@local@@$00@local@@QEAAXI@Z 0000000180055348     QuickHullConvexHullLib.obj
 0002:0000f358       $unwind$?getFreeItem@?$MemBlock@UQuickHullFace@local@@$00@local@@QEAAPEAUQuickHullFace@2@XZ 0000000180055358     QuickHullConvexHullLib.obj
 0002:0000f368       $chain$1$?allocate@?$Array@PEAUQuickHullFace@local@@V?$ReflectionAllocator@PEAUQuickHullFace@local@@@shdfnd@physx@@@shdfnd@physx@@IEAAPEAPEAUQuickHullFace@local@@I@Z 0000000180055368     QuickHullConvexHullLib.obj
 0002:0000f380       $chain$3$?allocate@?$Array@PEAUQuickHullFace@local@@V?$ReflectionAllocator@PEAUQuickHullFace@local@@@shdfnd@physx@@@shdfnd@physx@@IEAAPEAPEAUQuickHullFace@local@@I@Z 0000000180055380     QuickHullConvexHullLib.obj
 0002:0000f394       $chain$4$?allocate@?$Array@PEAUQuickHullFace@local@@V?$ReflectionAllocator@PEAUQuickHullFace@local@@@shdfnd@physx@@@shdfnd@physx@@IEAAPEAPEAUQuickHullFace@local@@I@Z 0000000180055394     QuickHullConvexHullLib.obj
 0002:0000f3a4       $chain$0$?recreate@?$Array@PEAUQuickHullFace@local@@V?$ReflectionAllocator@PEAUQuickHullFace@local@@@shdfnd@physx@@@shdfnd@physx@@IEAAXI@Z 00000001800553a4     QuickHullConvexHullLib.obj
 0002:0000f3b8       $chain$1$?recreate@?$Array@PEAUQuickHullFace@local@@V?$ReflectionAllocator@PEAUQuickHullFace@local@@@shdfnd@physx@@@shdfnd@physx@@IEAAXI@Z 00000001800553b8     QuickHullConvexHullLib.obj
 0002:0000f3c8       $chain$1$?allocate@?$Array@PEAUQuickHullVertex@local@@V?$ReflectionAllocator@PEAUQuickHullVertex@local@@@shdfnd@physx@@@shdfnd@physx@@IEAAPEAPEAUQuickHullVertex@local@@I@Z 00000001800553c8     QuickHullConvexHullLib.obj
 0002:0000f3e0       $chain$3$?allocate@?$Array@PEAUQuickHullVertex@local@@V?$ReflectionAllocator@PEAUQuickHullVertex@local@@@shdfnd@physx@@@shdfnd@physx@@IEAAPEAPEAUQuickHullVertex@local@@I@Z 00000001800553e0     QuickHullConvexHullLib.obj
 0002:0000f3f4       $chain$4$?allocate@?$Array@PEAUQuickHullVertex@local@@V?$ReflectionAllocator@PEAUQuickHullVertex@local@@@shdfnd@physx@@@shdfnd@physx@@IEAAPEAPEAUQuickHullVertex@local@@I@Z 00000001800553f4     QuickHullConvexHullLib.obj
 0002:0000f404       $chain$0$?recreate@?$Array@PEAUQuickHullVertex@local@@V?$ReflectionAllocator@PEAUQuickHullVertex@local@@@shdfnd@physx@@@shdfnd@physx@@IEAAXI@Z 0000000180055404     QuickHullConvexHullLib.obj
 0002:0000f418       $chain$1$?recreate@?$Array@PEAUQuickHullVertex@local@@V?$ReflectionAllocator@PEAUQuickHullVertex@local@@@shdfnd@physx@@@shdfnd@physx@@IEAAXI@Z 0000000180055418     QuickHullConvexHullLib.obj
 0002:0000f428       $chain$1$?allocate@?$Array@UExpandPoint@local@@V?$ReflectionAllocator@UExpandPoint@local@@@shdfnd@physx@@@shdfnd@physx@@IEAAPEAUExpandPoint@local@@I@Z 0000000180055428     QuickHullConvexHullLib.obj
 0002:0000f440       $chain$3$?allocate@?$Array@UExpandPoint@local@@V?$ReflectionAllocator@UExpandPoint@local@@@shdfnd@physx@@@shdfnd@physx@@IEAAPEAUExpandPoint@local@@I@Z 0000000180055440     QuickHullConvexHullLib.obj
 0002:0000f454       $chain$4$?allocate@?$Array@UExpandPoint@local@@V?$ReflectionAllocator@UExpandPoint@local@@@shdfnd@physx@@@shdfnd@physx@@IEAAPEAUExpandPoint@local@@I@Z 0000000180055454     QuickHullConvexHullLib.obj
 0002:0000f464       $chain$0$?recreate@?$Array@UExpandPoint@local@@V?$ReflectionAllocator@UExpandPoint@local@@@shdfnd@physx@@@shdfnd@physx@@IEAAXI@Z 0000000180055464     QuickHullConvexHullLib.obj
 0002:0000f478       $chain$1$?recreate@?$Array@UExpandPoint@local@@V?$ReflectionAllocator@UExpandPoint@local@@@shdfnd@physx@@@shdfnd@physx@@IEAAXI@Z 0000000180055478     QuickHullConvexHullLib.obj
 0002:0000f488       $unwind$?computeVolumeIntegralsEberly@physx@@YA_NAEBVPxConvexMeshDesc@1@MAEAUPxIntegrals@1@AEBVPxVec3@1@@Z 0000000180055488     VolumeIntegration.obj
 0002:0000f488       $unwind$?computeVolumeIntegralsEberlySIMD@physx@@YA_NAEBVPxConvexMeshDesc@1@MAEAUPxIntegrals@1@AEBVPxVec3@1@@Z 0000000180055488     VolumeIntegration.obj
 0002:0000f488       $unwind$_raise_exc         0000000180055488     libucrt:fpexcept.obj
 0002:0000f488       $unwind$_raise_excf        0000000180055488     libucrt:fpexcept.obj
 0002:0000f488       $unwind$__unDName          0000000180055488     libvcruntime:undname.obj
 0002:0000f490       $unwind$?computeVolumeIntegralsSIMD@VolumeIntegratorEberly@?A0xc93de727@physx@@QEAA_NAEAUPxIntegrals@3@AEBVPxVec3@3@@Z 0000000180055490     VolumeIntegration.obj
 0002:0000f4c8       $chain$1$?computeVolumeIntegralsSIMD@VolumeIntegratorEberly@?A0xc93de727@physx@@QEAA_NAEAUPxIntegrals@3@AEBVPxVec3@3@@Z 00000001800554c8     VolumeIntegration.obj
 0002:0000f4e0       $chain$2$?computeVolumeIntegralsSIMD@VolumeIntegratorEberly@?A0xc93de727@physx@@QEAA_NAEAUPxIntegrals@3@AEBVPxVec3@3@@Z 00000001800554e0     VolumeIntegration.obj
 0002:0000f4f0       $unwind$?computeVolumeIntegrals@VolumeIntegratorEberly@?A0xc93de727@physx@@QEAA_NAEAUPxIntegrals@3@AEBVPxVec3@3@@Z 00000001800554f0     VolumeIntegration.obj
 0002:0000f528       $chain$0$?computeVolumeIntegrals@VolumeIntegratorEberly@?A0xc93de727@physx@@QEAA_NAEAUPxIntegrals@3@AEBVPxVec3@3@@Z 0000000180055528     VolumeIntegration.obj
 0002:0000f53c       $chain$3$?computeVolumeIntegrals@VolumeIntegratorEberly@?A0xc93de727@physx@@QEAA_NAEAUPxIntegrals@3@AEBVPxVec3@3@@Z 000000018005553c     VolumeIntegration.obj
 0002:0000f558       $chain$4$?computeVolumeIntegrals@VolumeIntegratorEberly@?A0xc93de727@physx@@QEAA_NAEAUPxIntegrals@3@AEBVPxVec3@3@@Z 0000000180055558     VolumeIntegration.obj
 0002:0000f568       $chain$5$?computeVolumeIntegrals@VolumeIntegratorEberly@?A0xc93de727@physx@@QEAA_NAEAUPxIntegrals@3@AEBVPxVec3@3@@Z 0000000180055568     VolumeIntegration.obj
 0002:0000f578       $chain$1$?cookingDelayHook@@YAP6A_JXZIPEAUDelayLoadInfo@@@Z 0000000180055578     WindowsCookingDelayLoadHook.obj
 0002:0000f590       $chain$3$?cookingDelayHook@@YAP6A_JXZIPEAUDelayLoadInfo@@@Z 0000000180055590     WindowsCookingDelayLoadHook.obj
 0002:0000f590       $chain$5$?cookingDelayHook@@YAP6A_JXZIPEAUDelayLoadInfo@@@Z 0000000180055590     WindowsCookingDelayLoadHook.obj
 0002:0000f5a8       $chain$6$?cookingDelayHook@@YAP6A_JXZIPEAUDelayLoadInfo@@@Z 00000001800555a8     WindowsCookingDelayLoadHook.obj
 0002:0000f5b8       xdata                      00000001800555b8     PhysXCommon_64:PhysXCommon_64.dll
 0002:0000f5c0       xdata                      00000001800555c0     PhysXFoundation_64:PhysXFoundation_64.dll
 0002:0000f5c8       $unwind$?DloadObtainSection@@YAPEAXPEAK0@Z 00000001800555c8     Delayimp:delayhlp.obj
 0002:0000f5c8       $unwind$strstr             00000001800555c8     libvcruntime:strstr.obj
 0002:0000f5d8       $unwind$?DloadProtectSection@@YAXKPEAK@Z 00000001800555d8     Delayimp:delayhlp.obj
 0002:0000f5e8       $unwind$__delayLoadHelper2 00000001800555e8     Delayimp:delayhlp.obj
 0002:0000f608       $xdatasym                  0000000180055608     LIBCMT:chkstk.obj
 0002:0000f610       $unwind$?dllmain_crt_process_attach@@YAHQEAUHINSTANCE__@@QEAX@Z 0000000180055610     LIBCMT:dll_dllmain.obj
 0002:0000f64c       $unwind$_query_new_handler$fin$0 000000018005564c     libucrt:new_handler.obj
 0002:0000f64c       $unwind$?fin$0@?0???$?RV<lambda_0ae27a3a962d80f24befdcbee591983d>@@AEAV<lambda_8d0ee55de4b1038c4002e0adecdf1839>@@V<lambda_dc504788e8f1664fe9b84e20bfb512f2>@@@?$__crt_seh_guarded_call@X@@QEAAX$$QEAV<lambda_0ae27a3a962d80f24befdcbee591983d>@@AEAV<lambda_8d0ee55de4b1038c4002e0adecdf1839>@@$$QEAV<lambda_dc504788e8f1664fe9b84e20bfb512f2>@@@Z@4HA 000000018005564c     libucrt:per_thread_data.obj
 0002:0000f64c       $unwind$?fin$0@?0???$?RV<lambda_2d41944a1d46af3157314b8a01080d33>@@AEAV<lambda_8f455de75cd7d7f24b4096f044d8b9e6>@@V<lambda_aa500f224e6afead328df44964fe2772>@@@?$__crt_seh_guarded_call@X@@QEAAX$$QEAV<lambda_2d41944a1d46af3157314b8a01080d33>@@AEAV<lambda_8f455de75cd7d7f24b4096f044d8b9e6>@@$$QEAV<lambda_aa500f224e6afead328df44964fe2772>@@@Z@4HA 000000018005564c     libucrt:per_thread_data.obj
 0002:0000f64c       $unwind$?fin$0@?0???$?RV<lambda_aa87e3671a710a21b5dc78c0bdf72e11>@@AEAV<lambda_92619d2358a28f41a33ba319515a20b9>@@V<lambda_6992ecaafeb10aed2b74cb1fae11a551>@@@?$__crt_seh_guarded_call@X@@QEAAX$$QEAV<lambda_aa87e3671a710a21b5dc78c0bdf72e11>@@AEAV<lambda_92619d2358a28f41a33ba319515a20b9>@@$$QEAV<lambda_6992ecaafeb10aed2b74cb1fae11a551>@@@Z@4HA 000000018005564c     libucrt:per_thread_data.obj
 0002:0000f64c       $unwind$?fin$0@?0???$?RV<lambda_f2e299630e499de9f9a165e60fcd3db5>@@AEAV<lambda_2ae9d31cdba2644fcbeaf08da7c24588>@@V<lambda_40d01ff24d0e7b3814fdbdcee8eab3c7>@@@?$__crt_seh_guarded_call@X@@QEAAX$$QEAV<lambda_f2e299630e499de9f9a165e60fcd3db5>@@AEAV<lambda_2ae9d31cdba2644fcbeaf08da7c24588>@@$$QEAV<lambda_40d01ff24d0e7b3814fdbdcee8eab3c7>@@@Z@4HA 000000018005564c     libucrt:per_thread_data.obj
 0002:0000f64c       $unwind$__acrt_update_thread_locale_data$fin$0 000000018005564c     libucrt:locale_refcounting.obj
 0002:0000f64c       $unwind$?fin$0@?0???$?RV<lambda_410d79af7f07d98d83a3f525b3859a53>@@AEAV<lambda_3e16ef9562a7dcce91392c22ab16ea36>@@V<lambda_38119f0e861e05405d8a144b9b982f0a>@@@?$__crt_seh_guarded_call@X@@QEAAX$$QEAV<lambda_410d79af7f07d98d83a3f525b3859a53>@@AEAV<lambda_3e16ef9562a7dcce91392c22ab16ea36>@@$$QEAV<lambda_38119f0e861e05405d8a144b9b982f0a>@@@Z@4HA 000000018005564c     libucrt:wsetlocale.obj
 0002:0000f64c       $unwind$?fin$0@?0???$?RV<lambda_751a882b2c74d4b022dec766aa51a29a>@@AEAV<lambda_628dfdc04ba53c8bfc02c9951375f3f5>@@V<lambda_f6c7be5f7998530c34de24c7437d6b54>@@@?$__crt_seh_guarded_call@H@@QEAAH$$QEAV<lambda_751a882b2c74d4b022dec766aa51a29a>@@AEAV<lambda_628dfdc04ba53c8bfc02c9951375f3f5>@@$$QEAV<lambda_f6c7be5f7998530c34de24c7437d6b54>@@@Z@4HA 000000018005564c     libucrt:close.obj
 0002:0000f64c       $unwind$?fin$0@?0???$?RV<lambda_a37b2b86f63e897a80ea819b0eb08c01>@@AEAV<lambda_38ce7e780aa69e748d6df282ebc68efe>@@V<lambda_99fb1378e971ab6e7edea83e3a7a83a2>@@@?$__crt_seh_guarded_call@H@@QEAAH$$QEAV<lambda_a37b2b86f63e897a80ea819b0eb08c01>@@AEAV<lambda_38ce7e780aa69e748d6df282ebc68efe>@@$$QEAV<lambda_99fb1378e971ab6e7edea83e3a7a83a2>@@@Z@4HA 000000018005564c     libucrt:commit.obj
 0002:0000f64c       $unwind$__acrt_initialize_lowio$fin$0 000000018005564c     libucrt:ioinit.obj
 0002:0000f64c       $unwind$__acrt_lowio_ensure_fh_exists$fin$0 000000018005564c     libucrt:osfinfo.obj
 0002:0000f64c       $unwind$_write$fin$0       000000018005564c     libucrt:write.obj
 0002:0000f64c       $unwind$?fin$0@?0???$?RV<lambda_efdfa57d1f175319df784efa44bb7b81>@@AEAV<lambda_5f0a4c1567f8adc6734073e5d1e1b35c>@@V<lambda_2e8a7d3640ea6ccb4c2413664c2db6fd>@@@?$__crt_seh_guarded_call@X@@QEAAX$$QEAV<lambda_efdfa57d1f175319df784efa44bb7b81>@@AEAV<lambda_5f0a4c1567f8adc6734073e5d1e1b35c>@@$$QEAV<lambda_2e8a7d3640ea6ccb4c2413664c2db6fd>@@@Z@4HA 000000018005564c     libucrt:mbctype.obj
 0002:0000f64c       $unwind$?fin$0@?0??update_thread_multibyte_data_internal@@YAPEAU__crt_multibyte_data@@QEAU__acrt_ptd@@QEAPEAU1@@Z@4HA 000000018005564c     libucrt:mbctype.obj
 0002:0000f64c       $unwind$?fin$0@?0???$?RV<lambda_450d765d439847d4c735a33c368b5fc0>@@AEAV<lambda_44731a7d0e6d81c3e6aa82d741081786>@@V<lambda_601a2a7da3b7a96e9554ac7215c4b07c>@@@?$__crt_seh_guarded_call@P6AXH@Z@@QEAAP6AXH@Z$$QEAV<lambda_450d765d439847d4c735a33c368b5fc0>@@AEAV<lambda_44731a7d0e6d81c3e6aa82d741081786>@@$$QEAV<lambda_601a2a7da3b7a96e9554ac7215c4b07c>@@@Z@4HA 000000018005564c     libucrt:signal.obj
 0002:0000f64c       $unwind$raise$fin$0        000000018005564c     libucrt:signal.obj
 0002:0000f64c       $unwind$?filt$0@?0???R<lambda_6e4b09c48022b2350581041d5f6b0c4c>@@QEBA@XZ@4HA 000000018005564c     libucrt:exit.obj
 0002:0000f64c       $unwind$?fin$0@?0???$?RV<lambda_d80eeec6fff315bfe5c115232f3240e3>@@AEAV<lambda_6e4b09c48022b2350581041d5f6b0c4c>@@V<lambda_2358e3775559c9db80273638284d5e45>@@@?$__crt_seh_guarded_call@X@@QEAAX$$QEAV<lambda_d80eeec6fff315bfe5c115232f3240e3>@@AEAV<lambda_6e4b09c48022b2350581041d5f6b0c4c>@@$$QEAV<lambda_2358e3775559c9db80273638284d5e45>@@@Z@4HA 000000018005564c     libucrt:exit.obj
 0002:0000f64c       $unwind$?fin$0@?0???$?RV<lambda_7777bce6b2f8c936911f934f8298dc43>@@AEAV<lambda_f03950bc5685219e0bcd2087efbe011e>@@V<lambda_3883c3dff614d5e0c5f61bb1ac94921c>@@@?$__crt_seh_guarded_call@H@@QEAAH$$QEAV<lambda_7777bce6b2f8c936911f934f8298dc43>@@AEAV<lambda_f03950bc5685219e0bcd2087efbe011e>@@$$QEAV<lambda_3883c3dff614d5e0c5f61bb1ac94921c>@@@Z@4HA 000000018005564c     libucrt:onexit.obj
 0002:0000f64c       $unwind$_fcloseall$fin$0   000000018005564c     libucrt:closeall.obj
 0002:0000f64c       $unwind$fclose$fin$0       000000018005564c     libucrt:fclose.obj
 0002:0000f64c       $unwind$?fin$0@?0???$?RV<lambda_842d9ff0dc9ef11c61343bbaebe7f885>@@AEAV<lambda_c5860995281e5c4ce005b3de8f5874ee>@@V<lambda_d90129c13df834fdcbf8d2b88dafcf2d>@@@?$__crt_seh_guarded_call@X@@QEAAX$$QEAV<lambda_842d9ff0dc9ef11c61343bbaebe7f885>@@AEAV<lambda_c5860995281e5c4ce005b3de8f5874ee>@@$$QEAV<lambda_d90129c13df834fdcbf8d2b88dafcf2d>@@@Z@4HA 000000018005564c     libucrt:fflush.obj
 0002:0000f64c       $unwind$?fin$0@?0???$?RV<lambda_886d6c58226a84441f68b9f2b8217b83>@@AEAV<lambda_ab61a845afdef5b7c387490eaf3616ee>@@V<lambda_f7f22ab5edc0698d5f6905b0d3f44752>@@@?$__crt_seh_guarded_call@X@@QEAAX$$QEAV<lambda_886d6c58226a84441f68b9f2b8217b83>@@AEAV<lambda_ab61a845afdef5b7c387490eaf3616ee>@@$$QEAV<lambda_f7f22ab5edc0698d5f6905b0d3f44752>@@@Z@4HA 000000018005564c     libucrt:fflush.obj
 0002:0000f64c       $unwind$_ctrlfp$filt$0     000000018005564c     libucrt:fpctrl.obj
 0002:0000f64c       $unwind$common_control87$filt$0 000000018005564c     libucrt:ieee.obj
 0002:0000f64c       $unwind$?fin$0@?0??dllmain_crt_process_attach@@YAHQEAUHINSTANCE__@@QEAX@Z@4HA 000000018005564c     LIBCMT:dll_dllmain.obj
 0002:0000f64c       $unwind$?fin$0@?0??dllmain_crt_process_detach@@YAH_N@Z@4HA 000000018005564c     LIBCMT:dll_dllmain.obj
 0002:0000f64c       $unwind$?fin$1@?0??dllmain_crt_process_detach@@YAH_N@Z@4HA 000000018005564c     LIBCMT:dll_dllmain.obj
 0002:0000f64c       $unwind$_IsNonwritableInCurrentImage$filt$0 000000018005564c     LIBCMT:pesect.obj
 0002:0000f64c       $unwind$?filt$0@?0??CxxCallCatchBlock@__FrameHandler4@@SAPEAXPEAU_EXCEPTION_RECORD@@@Z@4HA 000000018005564c     libvcruntime:frame.obj
 0002:0000f64c       $unwind$__unDNameEx$fin$0  000000018005564c     libvcruntime:undname.obj
 0002:0000f654       $unwind$?dllmain_crt_process_detach@@YAH_N@Z 0000000180055654     LIBCMT:dll_dllmain.obj
 0002:0000f6a8       $unwind$?dllmain_dispatch@@YAHQEAUHINSTANCE__@@KQEAX@Z 00000001800556a8     LIBCMT:dll_dllmain.obj
 0002:0000f6d0       $unwind$?filt$0@?0??dllmain_dispatch@@YAHQEAUHINSTANCE__@@KQEAX@Z@4HA 00000001800556d0     LIBCMT:dll_dllmain.obj
 0002:0000f6d0       $unwind$?filt$0@?0??FrameUnwindToState@__FrameHandler4@@SAXPEA_KPEAU_xDISPATCHER_CONTEXT@@PEAUFuncInfo4@FH4@@H@Z@4HA 00000001800556d0     libvcruntime:frame.obj
 0002:0000f6d0       $unwind$?fin$1@?0??FrameUnwindToState@__FrameHandler4@@SAXPEA_KPEAU_xDISPATCHER_CONTEXT@@PEAUFuncInfo4@FH4@@H@Z@4HA 00000001800556d0     libvcruntime:frame.obj
 0002:0000f6d8       $unwind$__isa_available_init 00000001800556d8     LIBCMT:cpu_disp.obj
 0002:0000f6e8       $xdatasym                  00000001800556e8     LIBCMT:svml_ssinf4_sse2.obj
 0002:0000f720       $xdatasym                  0000000180055720     LIBCMT:svml_ssinf4_sse4.obj
 0002:0000f754       $unwind$__security_init_cookie 0000000180055754     LIBCMT:gs_support.obj
 0002:0000f760       $unwind$__scrt_is_nonwritable_in_current_image 0000000180055760     LIBCMT:utility.obj
 0002:0000f780       $unwind$__scrt_is_nonwritable_in_current_image$filt$0 0000000180055780     LIBCMT:utility.obj
 0002:0000f788       $unwind$__scrt_fastfail    0000000180055788     LIBCMT:utility_desktop.obj
 0002:0000f798       $xdatasym                  0000000180055798     LIBCMT:guard_dispatch.obj
 0002:0000f7a0       $xdatasym                  00000001800557a0     LIBCMT:guard_xfg_dispatch.obj
 0002:0000f7a8       $xdatasym                  00000001800557a8     LIBCMT:svml_s_sin_cout.obj
 0002:0000f7b0       $unwind$__C_specific_handler 00000001800557b0     libvcruntime:riscchandler.obj
 0002:0000f7b0       $unwind$__std_type_info_name 00000001800557b0     libvcruntime:std_type_info.obj
 0002:0000f7d0       $xdatasym                  00000001800557d0     libvcruntime:memset.obj
 0002:0000f7e0       $xdatasym                  00000001800557e0     libvcruntime:memcpy.obj
 0002:0000f7f0       $unwind$__DestructExceptionObject 00000001800557f0     libvcruntime:ehhelpers.obj
 0002:0000f810       $unwind$__DestructExceptionObject$filt$0 0000000180055810     libvcruntime:ehhelpers.obj
 0002:0000f810       $unwind$?fin$1@?0??CxxCallCatchBlock@__FrameHandler4@@SAPEAXPEAU_EXCEPTION_RECORD@@@Z@4HA 0000000180055810     libvcruntime:frame.obj
 0002:0000f81c       $unwind$__unDNameEx        000000018005581c     libvcruntime:undname.obj
 0002:0000f84c       $unwind$snprintf           000000018005584c     libvcruntime:undname.obj
 0002:0000f84c       $unwind$sprintf_s          000000018005584c     libvcruntime:undname.obj
 0002:0000f85c       $unwind$??0DName@@QEAA@_J@Z 000000018005585c     libvcruntime:undname.obj
 0002:0000f85c       $unwind$??0DName@@QEAA@_K@Z 000000018005585c     libvcruntime:undname.obj
 0002:0000f86c       $unwind$?doPchar@DName@@AEAAXD@Z 000000018005586c     libvcruntime:undname.obj
 0002:0000f878       $unwind$?getDecoratedName@UnDecorator@@CA?AVDName@@XZ 0000000180055878     libvcruntime:undname.obj
 0002:0000f898       $cppxdata$?getDecoratedName@UnDecorator@@CA?AVDName@@XZ 0000000180055898     libvcruntime:undname.obj
 0002:0000f8a1       $stateUnwindMap$?getDecoratedName@UnDecorator@@CA?AVDName@@XZ 00000001800558a1     libvcruntime:undname.obj
 0002:0000f8a8       $ip2state$?getDecoratedName@UnDecorator@@CA?AVDName@@XZ 00000001800558a8     libvcruntime:undname.obj
 0002:0000f8b0       $unwind$?getZName@UnDecorator@@CA?AVDName@@_N0@Z 00000001800558b0     libvcruntime:undname.obj
 0002:0000f8d0       $unwind$?getOperatorName@UnDecorator@@CA?AVDName@@_NPEA_N@Z 00000001800558d0     libvcruntime:undname.obj
 0002:0000f8ec       $unwind$?getScope@UnDecorator@@CA?AVDName@@XZ 00000001800558ec     libvcruntime:undname.obj
 0002:0000f908       $unwind$?getScopedName@UnDecorator@@CA?AVDName@@XZ 0000000180055908     libvcruntime:undname.obj
 0002:0000f918       $unwind$_mbsdec_l          0000000180055918     libucrt:mbsdec.obj
 0002:0000f918       $unwind$?getSignedDimension@UnDecorator@@CA?AVDName@@XZ 0000000180055918     libvcruntime:undname.obj
 0002:0000f924       $unwind$?getDimension@UnDecorator@@CA?AVDName@@_N@Z 0000000180055924     libvcruntime:undname.obj
 0002:0000f93c       $unwind$?getFloatingPoint@UnDecorator@@CA?AVDName@@H@Z 000000018005593c     libvcruntime:undname.obj
 0002:0000f954       $unwind$?getValueObject@UnDecorator@@CA?AVDName@@XZ 0000000180055954     libvcruntime:undname.obj
 0002:0000f960       $unwind$?getArgumentTypes@UnDecorator@@CA?AVDName@@XZ 0000000180055960     libvcruntime:undname.obj
 0002:0000f960       $unwind$?getPointerToMember@UnDecorator@@CA?AVDName@@XZ 0000000180055960     libvcruntime:undname.obj
 0002:0000f96c       $unwind$?getTemplateName@UnDecorator@@CA?AVDName@@_N@Z 000000018005596c     libvcruntime:undname.obj
 0002:0000f988       $unwind$?getTemplateArgumentList@UnDecorator@@CA?AVDName@@XZ 0000000180055988     libvcruntime:undname.obj
 0002:0000f9a8       $unwind$?getTemplateNonTypeArgument@UnDecorator@@CA?AVDName@@XZ 00000001800559a8     libvcruntime:undname.obj
 0002:0000f9c8       $unwind$?getTemplateTypeArgument@UnDecorator@@CA?AVDName@@XZ 00000001800559c8     libvcruntime:undname.obj
 0002:0000f9e0       $unwind$?composeDeclaration@UnDecorator@@CA?AVDName@@AEBV2@@Z 00000001800559e0     libvcruntime:undname.obj
 0002:0000f9fc       $unwind$?getBasedType@UnDecorator@@CA?AVDName@@XZ 00000001800559fc     libvcruntime:undname.obj
 0002:0000f9fc       $unwind$?getEnumType@UnDecorator@@CA?AVDName@@XZ 00000001800559fc     libvcruntime:undname.obj
 0002:0000fa08       $unwind$?getCallingConvention@UnDecorator@@CA?AVDName@@XZ 0000000180055a08     libvcruntime:undname.obj
 0002:0000fa18       $unwind$?getDataType@UnDecorator@@CA?AVDName@@PEAV2@@Z 0000000180055a18     libvcruntime:undname.obj
 0002:0000fa24       $unwind$?getExtendedDataIndirectType@UnDecorator@@CA?AVDName@@AEAW4IndirectionKind@@AEA_NH@Z 0000000180055a24     libvcruntime:undname.obj
 0002:0000fa24       $unwind$?getPrimaryDataType@UnDecorator@@CA?AVDName@@AEBV2@@Z 0000000180055a24     libvcruntime:undname.obj
 0002:0000fa24       $unwind$?getPtrRefDataType@UnDecorator@@CA?AVDName@@AEBV2@H@Z 0000000180055a24     libvcruntime:undname.obj
 0002:0000fa34       $unwind$?getDataIndirectType@UnDecorator@@CA?AVDName@@AEBV2@W4IndirectionKind@@0H@Z 0000000180055a34     libvcruntime:undname.obj
 0002:0000fa54       $unwind$?getBasicDataType@UnDecorator@@CA?AVDName@@AEBV2@@Z 0000000180055a54     libvcruntime:undname.obj
 0002:0000fa6c       $unwind$?getECSUDataType@UnDecorator@@CA?AVDName@@XZ 0000000180055a6c     libvcruntime:undname.obj
 0002:0000fa7c       $unwind$?getPtrRefType@UnDecorator@@CA?AVDName@@AEBV2@0W4IndirectionKind@@@Z 0000000180055a7c     libvcruntime:undname.obj
 0002:0000fa94       $unwind$?getArrayType@UnDecorator@@CA?AVDName@@AEBV2@@Z 0000000180055a94     libvcruntime:undname.obj
 0002:0000faac       $unwind$?getFunctionIndirectType@UnDecorator@@CA?AVDName@@AEBV2@@Z 0000000180055aac     libvcruntime:undname.obj
 0002:0000facc       $unwind$?getRestrictionSpec@UnDecorator@@CA?AVDName@@XZ 0000000180055acc     libvcruntime:undname.obj
 0002:0000fae4       $unwind$?getLexicalFrame@UnDecorator@@CA?AVDName@@XZ 0000000180055ae4     libvcruntime:undname.obj
 0002:0000fae4       $unwind$?parseDecoratedName@UnDecorator@@CA?AVDName@@XZ 0000000180055ae4     libvcruntime:undname.obj
 0002:0000faf0       $unwind$?getExternalDataType@UnDecorator@@CA?AVDName@@AEBV2@@Z 0000000180055af0     libvcruntime:undname.obj
 0002:0000fb00       $unwind$?getVfTableType@UnDecorator@@CA?AVDName@@AEBV2@@Z 0000000180055b00     libvcruntime:undname.obj
 0002:0000fb14       $unwind$?UScore@UnDecorator@@SA?AUStringLiteral@@W4Tokens@@@Z 0000000180055b14     libvcruntime:undname.obj
 0002:0000fb20       $xdatasym                  0000000180055b20     libvcruntime:notify.obj
 0002:0000fb2c       $unwind$?StateFromIp@__FrameHandler4@@SAHPEAUFuncInfo4@FH4@@PEAU_xDISPATCHER_CONTEXT@@_K@Z 0000000180055b2c     libvcruntime:ehstate.obj
 0002:0000fb2c       $unwind$?DecompFuncInfo@FH4@@YA_JPEAEAEAUFuncInfo4@1@_KH_N@Z 0000000180055b2c     libvcruntime:risctrnsctrl.obj
 0002:0000fb44       $unwind$?UnwindNestedFrames@__FrameHandler4@@SAXPEA_KPEAUEHExceptionRecord@@PEAU_CONTEXT@@0PEAXPEAUFuncInfo4@FH4@@HHPEAUHandlerType4@5@PEAU_xDISPATCHER_CONTEXT@@E@Z 0000000180055b44     libvcruntime:risctrnsctrl.obj
 0002:0000fb58       $unwind$?GetRangeOfTrysToCheck@__FrameHandler4@@SA?AU?$pair@Viterator@TryBlockMap4@FH4@@V123@@std@@AEAVTryBlockMap4@FH4@@HPEAU_xDISPATCHER_CONTEXT@@PEAUFuncInfo4@5@H@Z 0000000180055b58     libvcruntime:risctrnsctrl.obj
 0002:0000fb74       $unwind$__CxxFrameHandler4 0000000180055b74     libvcruntime:risctrnsctrl.obj
 0002:0000fb88       $unwind$??$_CallSETranslator@V__FrameHandler4@@@@YAHPEAUEHExceptionRecord@@PEA_KPEAU_CONTEXT@@PEAU_xDISPATCHER_CONTEXT@@PEAUFuncInfo4@FH4@@K1H@Z 0000000180055b88     libvcruntime:risctrnsctrl.obj
 0002:0000fba8       $unwind$?filt$0@?0???$_CallSETranslator@V__FrameHandler4@@@@YAHPEAUEHExceptionRecord@@PEA_KPEAU_CONTEXT@@PEAU_xDISPATCHER_CONTEXT@@PEAUFuncInfo4@FH4@@K1H@Z@4HA 0000000180055ba8     libvcruntime:risctrnsctrl.obj
 0002:0000fbb4       $unwind$?try_get_function@@YAPEAXW4function_id@?A0x391cf84c@@QEBDQEBW4module_id@2@2@Z 0000000180055bb4     libucrt:winapi_thunks.obj
 0002:0000fbb4       $unwind$?try_get_function@@YAPEAXW4function_id@?A0x14174aea@@QEBDQEBW4module_id@2@2@Z 0000000180055bb4     libvcruntime:winapi_downlevel.obj
 0002:0000fbd0       $unwind$?getStartStop@UWMap4@FH4@@QEAAXHHAEAViterator@12@0@Z 0000000180055bd0     libvcruntime:frame.obj
 0002:0000fbe8       $unwind$?FrameUnwindToState@__FrameHandler4@@SAXPEA_KPEAU_xDISPATCHER_CONTEXT@@PEAUFuncInfo4@FH4@@H@Z 0000000180055be8     libvcruntime:frame.obj
 0002:0000fc30       $unwind$?CxxCallCatchBlock@__FrameHandler4@@SAPEAXPEAU_EXCEPTION_RECORD@@@Z 0000000180055c30     libvcruntime:frame.obj
 0002:0000fc8c       $unwind$?IsInExceptionSpec@@YAEPEAUEHExceptionRecord@@PEBU_s_ESTypeList@@@Z 0000000180055c8c     libvcruntime:frame.obj
 0002:0000fca8       $unwind$??$__InternalCxxFrameHandler@V__FrameHandler4@@@@YA?AW4_EXCEPTION_DISPOSITION@@PEAUEHExceptionRecord@@PEA_KPEAU_CONTEXT@@PEAU_xDISPATCHER_CONTEXT@@PEAUFuncInfo4@FH4@@H1E@Z 0000000180055ca8     libvcruntime:frame.obj
 0002:0000fcc0       $unwind$?initialize_stdio_handles_nolock@@YAXXZ 0000000180055cc0     libucrt:ioinit.obj
 0002:0000fcc0       $unwind$__acrt_initialize_stdio 0000000180055cc0     libucrt:_file.obj
 0002:0000fcc0       $unwind$?type_case_integer@?$output_processor@DV?$string_output_adapter@D@__crt_stdio_output@@V?$format_validation_base@DV?$string_output_adapter@D@__crt_stdio_output@@@2@@__crt_stdio_output@@AEAA_NI_N@Z 0000000180055cc0     libucrt:output.obj
 0002:0000fcc0       $unwind$?type_case_integer@?$output_processor@DV?$string_output_adapter@D@__crt_stdio_output@@V?$standard_base@DV?$string_output_adapter@D@__crt_stdio_output@@@2@@__crt_stdio_output@@AEAA_NI_N@Z 0000000180055cc0     libucrt:output.obj
 0002:0000fcc0       $unwind$__GSHandlerCheck_SEH 0000000180055cc0     LIBCMT:gshandlerseh.obj
 0002:0000fcc0       $unwind$??$TypeMatchHelper@V__FrameHandler3@@@@YAHPEBU_s_HandlerType@@PEBU_s_CatchableType@@PEBU_s_ThrowInfo@@@Z 0000000180055cc0     libvcruntime:frame.obj
 0002:0000fcc0       $unwind$??$TypeMatchHelper@V__FrameHandler4@@@@YAHPEAUHandlerType4@FH4@@PEBU_s_CatchableType@@PEBU_s_ThrowInfo@@@Z 0000000180055cc0     libvcruntime:frame.obj
 0002:0000fcd8       $unwind$??$BuildCatchObjectHelperInternal@V__FrameHandler4@@@@YAHPEAUEHExceptionRecord@@PEAXPEAUHandlerType4@FH4@@PEBU_s_CatchableType@@@Z 0000000180055cd8     libvcruntime:frame.obj
 0002:0000fd18       $unwind$??$BuildCatchObjectInternal@V__FrameHandler4@@@@YAXPEAUEHExceptionRecord@@PEAXPEAUHandlerType4@FH4@@PEBU_s_CatchableType@@@Z 0000000180055d18     libvcruntime:frame.obj
 0002:0000fd44       $unwind$??$FindHandler@V__FrameHandler4@@@@YAXPEAUEHExceptionRecord@@PEA_KPEAU_CONTEXT@@PEAU_xDISPATCHER_CONTEXT@@PEAUFuncInfo4@FH4@@EH1@Z 0000000180055d44     libvcruntime:frame.obj
 0002:0000fd64       $unwind$??$CatchIt@V__FrameHandler4@@@@YAXPEAUEHExceptionRecord@@PEA_KPEAU_CONTEXT@@PEAU_xDISPATCHER_CONTEXT@@PEAUFuncInfo4@FH4@@PEAUHandlerType4@4@PEBU_s_CatchableType@@PEAUTryBlockMapEntry4@4@H1EE@Z 0000000180055d64     libvcruntime:frame.obj
 0002:0000fd7c       $unwind$??$FindHandlerForForeignException@V__FrameHandler4@@@@YAXPEAUEHExceptionRecord@@PEA_KPEAU_CONTEXT@@PEAU_xDISPATCHER_CONTEXT@@PEAUFuncInfo4@FH4@@HH1@Z 0000000180055d7c     libvcruntime:frame.obj
 0002:0000fda0       $xdatasym                  0000000180055da0     libvcruntime:handlers.obj
 0002:0000fdc0       $unwind$_CxxThrowException 0000000180055dc0     libvcruntime:throw.obj
 0002:0000fdd0       $xdatasym                  0000000180055dd0     libucrt:strcmp.obj
 0002:0000fdd4       $unwind$atan2f             0000000180055dd4     libucrt:atan2f.obj
 0002:0000fdf8       $xdatasym                  0000000180055df8     libucrt:cosf.obj
 0002:0000fe00       $xdatasym                  0000000180055e00     libucrt:sinf.obj
 0002:0000fe08       $unwind$?common_exit@@YAXHW4_crt_exit_cleanup_mode@@W4_crt_exit_return_mode@@@Z 0000000180055e08     libucrt:exit.obj
 0002:0000fe14       $unwind$??R<lambda_6e4b09c48022b2350581041d5f6b0c4c>@@QEBA@XZ 0000000180055e14     libucrt:exit.obj
 0002:0000fe34       $unwind$??$?RV<lambda_d80eeec6fff315bfe5c115232f3240e3>@@AEAV<lambda_6e4b09c48022b2350581041d5f6b0c4c>@@V<lambda_2358e3775559c9db80273638284d5e45>@@@?$__crt_seh_guarded_call@X@@QEAAX$$QEAV<lambda_d80eeec6fff315bfe5c115232f3240e3>@@AEAV<lambda_6e4b09c48022b2350581041d5f6b0c4c>@@$$QEAV<lambda_2358e3775559c9db80273638284d5e45>@@@Z 0000000180055e34     libucrt:exit.obj
 0002:0000fe58       $unwind$_configure_narrow_argv 0000000180055e58     libucrt:argv_parsing.obj
 0002:0000fe6c       $unwind$?should_round_up@@YA_NQEBN_KFW4__acrt_rounding_mode@@@Z 0000000180055e6c     libucrt:cvt.obj
 0002:0000fe6c       $unwind$??$parse_command_line@D@@YAXPEADPEAPEAD0PEA_K2@Z 0000000180055e6c     libucrt:argv_parsing.obj
 0002:0000fe88       $unwind$??$free_environment@D@@YAXQEAPEAD@Z 0000000180055e88     libucrt:environment_initialization.obj
 0002:0000fe88       $unwind$??$free_environment@_W@@YAXQEAPEA_W@Z 0000000180055e88     libucrt:environment_initialization.obj
 0002:0000fe94       $unwind$??$create_environment@D@@YAQEAPEADQEAD@Z 0000000180055e94     libucrt:environment_initialization.obj
 0002:0000feac       $unwind$_execute_onexit_table 0000000180055eac     libucrt:onexit.obj
 0002:0000feb4       $unwind$__acrt_fp_strflt_to_string 0000000180055eb4     libucrt:_fptostr.obj
 0002:0000feb4       $unwind$__acrt_DownlevelLocaleNameToLCID 0000000180055eb4     libucrt:lcidtoname_downlevel.obj
 0002:0000feb4       $unwind$??R<lambda_f03950bc5685219e0bcd2087efbe011e>@@QEBAHXZ 0000000180055eb4     libucrt:onexit.obj
 0002:0000fecc       $unwind$??$?RV<lambda_7777bce6b2f8c936911f934f8298dc43>@@AEAV<lambda_f03950bc5685219e0bcd2087efbe011e>@@V<lambda_3883c3dff614d5e0c5f61bb1ac94921c>@@@?$__crt_seh_guarded_call@H@@QEAAH$$QEAV<lambda_7777bce6b2f8c936911f934f8298dc43>@@AEAV<lambda_f03950bc5685219e0bcd2087efbe011e>@@$$QEAV<lambda_3883c3dff614d5e0c5f61bb1ac94921c>@@@Z 0000000180055ecc     libucrt:onexit.obj
 0002:0000fef0       $unwind$terminate          0000000180055ef0     libucrt:terminate.obj
 0002:0000ff10       $unwind$??$common_vsprintf@Vformat_validation_base@__crt_stdio_output@@D@@YAH_KQEAD0QEBDQEAU__crt_locale_pointers@@1@Z 0000000180055f10     libucrt:output.obj
 0002:0000ff10       $unwind$??$common_vsprintf@Vstandard_base@__crt_stdio_output@@D@@YAH_KQEAD0QEBDQEAU__crt_locale_pointers@@1@Z 0000000180055f10     libucrt:output.obj
 0002:0000ff30       $unwind$?write_string@?$string_output_adapter@D@__crt_stdio_output@@QEBAXQEBDHQEAHAEAV__crt_deferred_errno_cache@@@Z 0000000180055f30     libucrt:output.obj
 0002:0000ff48       $unwind$?process@?$output_processor@DV?$string_output_adapter@D@__crt_stdio_output@@V?$standard_base@DV?$string_output_adapter@D@__crt_stdio_output@@@2@@__crt_stdio_output@@QEAAHXZ 0000000180055f48     libucrt:output.obj
 0002:0000ff58       $unwind$?parse_int_from_format_string@?$output_processor@DV?$string_output_adapter@D@__crt_stdio_output@@V?$format_validation_base@DV?$string_output_adapter@D@__crt_stdio_output@@@2@@__crt_stdio_output@@AEAA_NQEAH@Z 0000000180055f58     libucrt:output.obj
 0002:0000ff58       $unwind$?parse_int_from_format_string@?$output_processor@DV?$string_output_adapter@D@__crt_stdio_output@@V?$standard_base@DV?$string_output_adapter@D@__crt_stdio_output@@@2@@__crt_stdio_output@@AEAA_NQEAH@Z 0000000180055f58     libucrt:output.obj
 0002:0000ff6c       $unwind$?state_case_type@?$output_processor@DV?$string_output_adapter@D@__crt_stdio_output@@V?$format_validation_base@DV?$string_output_adapter@D@__crt_stdio_output@@@2@@__crt_stdio_output@@AEAA_NXZ 0000000180055f6c     libucrt:output.obj
 0002:0000ff6c       $unwind$?state_case_type@?$output_processor@DV?$string_output_adapter@D@__crt_stdio_output@@V?$standard_base@DV?$string_output_adapter@D@__crt_stdio_output@@@2@@__crt_stdio_output@@AEAA_NXZ 0000000180055f6c     libucrt:output.obj
 0002:0000ff84       $unwind$?type_case_a@?$output_processor@DV?$string_output_adapter@D@__crt_stdio_output@@V?$format_validation_base@DV?$string_output_adapter@D@__crt_stdio_output@@@2@@__crt_stdio_output@@AEAA_NXZ 0000000180055f84     libucrt:output.obj
 0002:0000ff84       $unwind$?type_case_a@?$output_processor@DV?$string_output_adapter@D@__crt_stdio_output@@V?$standard_base@DV?$string_output_adapter@D@__crt_stdio_output@@@2@@__crt_stdio_output@@AEAA_NXZ 0000000180055f84     libucrt:output.obj
 0002:0000ff90       $unwind$?write_stored_string_tchar@?$output_processor@DV?$string_output_adapter@D@__crt_stdio_output@@V?$format_validation_base@DV?$string_output_adapter@D@__crt_stdio_output@@@2@@__crt_stdio_output@@AEAA_ND@Z 0000000180055f90     libucrt:output.obj
 0002:0000ff90       $unwind$?write_stored_string_tchar@?$output_processor@DV?$string_output_adapter@D@__crt_stdio_output@@V?$standard_base@DV?$string_output_adapter@D@__crt_stdio_output@@@2@@__crt_stdio_output@@AEAA_ND@Z 0000000180055f90     libucrt:output.obj
 0002:0000ffa8       $unwind$??$write_multiple_characters@V?$string_output_adapter@D@__crt_stdio_output@@D@__crt_stdio_output@@YAXAEBV?$string_output_adapter@D@0@DHQEAH@Z 0000000180055fa8     libucrt:output.obj
 0002:0000ffb4       $unwind$??$type_case_integer_parse_into_buffer@I@?$output_processor@DV?$string_output_adapter@D@__crt_stdio_output@@V?$format_validation_base@DV?$string_output_adapter@D@__crt_stdio_output@@@2@@__crt_stdio_output@@AEAAXII_N@Z 0000000180055fb4     libucrt:output.obj
 0002:0000ffb4       $unwind$??$type_case_integer_parse_into_buffer@I@?$output_processor@DV?$string_output_adapter@D@__crt_stdio_output@@V?$standard_base@DV?$string_output_adapter@D@__crt_stdio_output@@@2@@__crt_stdio_output@@AEAAXII_N@Z 0000000180055fb4     libucrt:output.obj
 0002:0000ffb4       $unwind$??$type_case_integer_parse_into_buffer@_K@?$output_processor@DV?$string_output_adapter@D@__crt_stdio_output@@V?$format_validation_base@DV?$string_output_adapter@D@__crt_stdio_output@@@2@@__crt_stdio_output@@AEAAX_KI_N@Z 0000000180055fb4     libucrt:output.obj
 0002:0000ffb4       $unwind$??$type_case_integer_parse_into_buffer@_K@?$output_processor@DV?$string_output_adapter@D@__crt_stdio_output@@V?$standard_base@DV?$string_output_adapter@D@__crt_stdio_output@@@2@@__crt_stdio_output@@AEAAX_KI_N@Z 0000000180055fb4     libucrt:output.obj
 0002:0000ffb4       $unwind$strrchr            0000000180055fb4     libvcruntime:strrchr.obj
 0002:0000ffbc       $unwind$??$parse_integer@KV?$c_string_character_source@D@__crt_strtox@@@__crt_strtox@@YAKQEAU__crt_locale_pointers@@V?$c_string_character_source@D@0@H_N@Z 0000000180055fbc     libucrt:atox.obj
 0002:0000ffd8       $xdatasym                  0000000180055fd8     libucrt:strncmp.obj
 0002:0000ffdc       $unwind$_ctrlfp            0000000180055fdc     libucrt:fpctrl.obj
 0002:00010004       $unwind$_call_matherr      0000000180056004     libucrt:libm_error.obj
 0002:0001000c       $unwind$_handle_error      000000018005600c     libucrt:libm_error.obj
 0002:0001000c       $unwind$_handle_errorf     000000018005600c     libucrt:libm_error.obj
 0002:00010030       $xdatasym                  0000000180056030     libucrt:remainder_piby2f_forasm.obj
 0002:00010038       $xdatasym                  0000000180056038     libucrt:remainder_piby2_forfma3.obj
 0002:00010044       $unwind$_sincosf_special   0000000180056044     libucrt:sincos_special.obj
 0002:0001004c       $unwind$__acrt_initialize_fma3 000000018005604c     libucrt:fma3_available.obj
 0002:00010058       $xdatasym                  0000000180056058     libucrt:remainder_piby2f_forc.obj
 0002:00010068       $unwind$_free_base         0000000180056068     libucrt:free_base.obj
 0002:00010068       $unwind$?destroy_fls@@YAXPEAX@Z 0000000180056068     libucrt:per_thread_data.obj
 0002:00010068       $unwind$__acrt_locale_free_numeric 0000000180056068     libucrt:initnum.obj
 0002:00010068       $unwind$__acrt_locale_free_lc_time_if_unreferenced 0000000180056068     libucrt:locale_refcounting.obj
 0002:00010070       $unwind$?construct_ptd_array@@YAXQEAU__acrt_ptd@@@Z 0000000180056070     libucrt:per_thread_data.obj
 0002:00010078       $unwind$?destroy_ptd_array@@YAXQEAU__acrt_ptd@@@Z 0000000180056078     libucrt:per_thread_data.obj
 0002:00010080       $unwind$??$?RV<lambda_0ae27a3a962d80f24befdcbee591983d>@@AEAV<lambda_8d0ee55de4b1038c4002e0adecdf1839>@@V<lambda_dc504788e8f1664fe9b84e20bfb512f2>@@@?$__crt_seh_guarded_call@X@@QEAAX$$QEAV<lambda_0ae27a3a962d80f24befdcbee591983d>@@AEAV<lambda_8d0ee55de4b1038c4002e0adecdf1839>@@$$QEAV<lambda_dc504788e8f1664fe9b84e20bfb512f2>@@@Z 0000000180056080     libucrt:per_thread_data.obj
 0002:000100a4       $unwind$??$?RV<lambda_aa87e3671a710a21b5dc78c0bdf72e11>@@AEAV<lambda_92619d2358a28f41a33ba319515a20b9>@@V<lambda_6992ecaafeb10aed2b74cb1fae11a551>@@@?$__crt_seh_guarded_call@X@@QEAAX$$QEAV<lambda_aa87e3671a710a21b5dc78c0bdf72e11>@@AEAV<lambda_92619d2358a28f41a33ba319515a20b9>@@$$QEAV<lambda_6992ecaafeb10aed2b74cb1fae11a551>@@@Z 00000001800560a4     libucrt:per_thread_data.obj
 0002:000100c8       $unwind$??$?RV<lambda_f2e299630e499de9f9a165e60fcd3db5>@@AEAV<lambda_2ae9d31cdba2644fcbeaf08da7c24588>@@V<lambda_40d01ff24d0e7b3814fdbdcee8eab3c7>@@@?$__crt_seh_guarded_call@X@@QEAAX$$QEAV<lambda_f2e299630e499de9f9a165e60fcd3db5>@@AEAV<lambda_2ae9d31cdba2644fcbeaf08da7c24588>@@$$QEAV<lambda_40d01ff24d0e7b3814fdbdcee8eab3c7>@@@Z 00000001800560c8     libucrt:per_thread_data.obj
 0002:000100ec       $unwind$??$?RV<lambda_2d41944a1d46af3157314b8a01080d33>@@AEAV<lambda_8f455de75cd7d7f24b4096f044d8b9e6>@@V<lambda_aa500f224e6afead328df44964fe2772>@@@?$__crt_seh_guarded_call@X@@QEAAX$$QEAV<lambda_2d41944a1d46af3157314b8a01080d33>@@AEAV<lambda_8f455de75cd7d7f24b4096f044d8b9e6>@@$$QEAV<lambda_aa500f224e6afead328df44964fe2772>@@@Z 00000001800560ec     libucrt:per_thread_data.obj
 0002:00010110       $unwind$__acrt_call_reportfault 0000000180056110     libucrt:invalid_parameter.obj
 0002:00010130       $unwind$??$__acrt_mbs_to_wcs_cp@U__crt_win32_buffer_internal_dynamic_resizing@@@@YAHQEBDAEAV?$__crt_win32_buffer@_WU__crt_win32_buffer_internal_dynamic_resizing@@@@I@Z 0000000180056130     libucrt:argv_wildcards.obj
 0002:00010148       $unwind$__dcrt_get_narrow_environment_from_os 0000000180056148     libucrt:get_environment_from_os.obj
 0002:00010148       $unwind$?fp_format_f_internal@@YAHQEAD_KHQEAU_strflt@@_NQEAU__crt_locale_pointers@@@Z 0000000180056148     libucrt:cvt.obj
 0002:00010148       $unwind$??$__acrt_wcs_to_mbs_cp@U__crt_win32_buffer_internal_dynamic_resizing@@@@YAHQEB_WAEAV?$__crt_win32_buffer@DU__crt_win32_buffer_internal_dynamic_resizing@@@@I@Z 0000000180056148     libucrt:argv_wildcards.obj
 0002:00010160       $unwind$??$common_expand_argv_wildcards@D@@YAHQEAPEADQEAPEAPEAD@Z 0000000180056160     libucrt:argv_wildcards.obj
 0002:00010178       $unwind$??$expand_argument_wildcards@D@@YAHQEAD0AEAV?$argument_list@D@?A0x5f5c8891@@@Z 0000000180056178     libucrt:argv_wildcards.obj
 0002:0001019c       $unwind$__acrt_GetModuleFileNameA 000000018005619c     libucrt:getmodulefilenamea.obj
 0002:000101b8       $unwind$__dcrt_write_console 00000001800561b8     libucrt:initcon.obj
 0002:000101b8       $unwind$??$__acrt_wcs_to_mbs_cp@U__crt_win32_buffer_no_resizing@@@@YAHQEB_WAEAV?$__crt_win32_buffer@DU__crt_win32_buffer_no_resizing@@@@I@Z 00000001800561b8     libucrt:getmodulefilenamea.obj
 0002:000101cc       $unwind$_setmbcp_nolock    00000001800561cc     libucrt:mbctype.obj
 0002:000101ec       $unwind$?update_thread_multibyte_data_internal@@YAPEAU__crt_multibyte_data@@QEAU__acrt_ptd@@QEAPEAU1@@Z 00000001800561ec     libucrt:mbctype.obj
 0002:00010214       $unwind$?setmbcp_internal@@YAHH_NQEAU__acrt_ptd@@QEAPEAU__crt_multibyte_data@@@Z 0000000180056214     libucrt:mbctype.obj
 0002:00010224       $unwind$?setSBUpLow@@YAXPEAU__crt_multibyte_data@@@Z 0000000180056224     libucrt:mbctype.obj
 0002:00010240       $unwind$??$?RV<lambda_efdfa57d1f175319df784efa44bb7b81>@@AEAV<lambda_5f0a4c1567f8adc6734073e5d1e1b35c>@@V<lambda_2e8a7d3640ea6ccb4c2413664c2db6fd>@@@?$__crt_seh_guarded_call@X@@QEAAX$$QEAV<lambda_efdfa57d1f175319df784efa44bb7b81>@@AEAV<lambda_5f0a4c1567f8adc6734073e5d1e1b35c>@@$$QEAV<lambda_2e8a7d3640ea6ccb4c2413664c2db6fd>@@@Z 0000000180056240     libucrt:mbctype.obj
 0002:00010264       $unwind$__acrt_WideCharToMultiByte 0000000180056264     libucrt:widechartomultibyte.obj
 0002:00010270       $unwind$__acrt_initialize_winapi_thunks 0000000180056270     libucrt:winapi_thunks.obj
 0002:00010278       $unwind$?fp_format_e@@YAHQEBNQEAD_K12H_NIQEAU__crt_locale_pointers@@W4__acrt_rounding_mode@@@Z 0000000180056278     libucrt:cvt.obj
 0002:00010278       $unwind$_mbtowc_l          0000000180056278     libucrt:mbtowc.obj
 0002:00010278       $unwind$__acrt_LCMapStringEx 0000000180056278     libucrt:winapi_thunks.obj
 0002:0001028c       $unwind$__acrt_initialize_lowio 000000018005628c     libucrt:ioinit.obj
 0002:000102ac       $unwind$?initialize_inherited_file_handles_nolock@@YAXXZ 00000001800562ac     libucrt:ioinit.obj
 0002:000102c8       $unwind$_query_new_handler 00000001800562c8     libucrt:new_handler.obj
 0002:000102e8       $unwind$__acrt_uninitialize_locale 00000001800562e8     libucrt:wsetlocale.obj
 0002:000102e8       $unwind$__acrt_get_sigabrt_handler 00000001800562e8     libucrt:signal.obj
 0002:000102f0       $unwind$raise              00000001800562f0     libucrt:signal.obj
 0002:0001032c       $unwind$??$?RV<lambda_450d765d439847d4c735a33c368b5fc0>@@AEAV<lambda_44731a7d0e6d81c3e6aa82d741081786>@@V<lambda_601a2a7da3b7a96e9554ac7215c4b07c>@@@?$__crt_seh_guarded_call@P6AXH@Z@@QEAAP6AXH@Z$$QEAV<lambda_450d765d439847d4c735a33c368b5fc0>@@AEAV<lambda_44731a7d0e6d81c3e6aa82d741081786>@@$$QEAV<lambda_601a2a7da3b7a96e9554ac7215c4b07c>@@@Z 000000018005632c     libucrt:signal.obj
